
210.elf:     file format elf32-littlearm


Disassembly of section .text:

30008000 <_start>:
30008000:	ea000017 	b	30008064 <reset>
30008004:	e59ff014 	ldr	pc, [pc, #20]	; 30008020 <_undefined_instruction>
30008008:	e59ff014 	ldr	pc, [pc, #20]	; 30008024 <_software_interrupt>
3000800c:	e59ff014 	ldr	pc, [pc, #20]	; 30008028 <_prefetch_abort>
30008010:	e59ff014 	ldr	pc, [pc, #20]	; 3000802c <_data_abort>
30008014:	e59ff014 	ldr	pc, [pc, #20]	; 30008030 <_not_used>
30008018:	e59ff014 	ldr	pc, [pc, #20]	; 30008034 <_irq>
3000801c:	e59ff014 	ldr	pc, [pc, #20]	; 30008038 <_fiq>

30008020 <_undefined_instruction>:
30008020:	3000803c 	andcc	r8, r0, ip, lsr r0

30008024 <_software_interrupt>:
30008024:	30008040 	andcc	r8, r0, r0, asr #32

30008028 <_prefetch_abort>:
30008028:	30008044 	andcc	r8, r0, r4, asr #32

3000802c <_data_abort>:
3000802c:	30008048 	andcc	r8, r0, r8, asr #32

30008030 <_not_used>:
30008030:	3000804c 	andcc	r8, r0, ip, asr #32

30008034 <_irq>:
30008034:	30008050 	andcc	r8, r0, r0, asr r0

30008038 <_fiq>:
30008038:	30008060 	andcc	r8, r0, r0, rrx

3000803c <undefined_instruction>:
3000803c:	e1a00000 	nop			; (mov r0, r0)

30008040 <software_interrupt>:
30008040:	e1a00000 	nop			; (mov r0, r0)

30008044 <prefetch_abort>:
30008044:	e1a00000 	nop			; (mov r0, r0)

30008048 <data_abort>:
30008048:	e1a00000 	nop			; (mov r0, r0)

3000804c <not_used>:
3000804c:	e1a00000 	nop			; (mov r0, r0)

30008050 <irq>:
30008050:	e24ee004 	sub	lr, lr, #4
30008054:	e92d5fff 	push	{r0, r1, r2, r3, r4, r5, r6, r7, r8, r9, sl, fp, ip, lr}
30008058:	eb0002b9 	bl	30008b44 <irq_handler>
3000805c:	e8fd9fff 	ldm	sp!, {r0, r1, r2, r3, r4, r5, r6, r7, r8, r9, sl, fp, ip, pc}^

30008060 <fiq>:
30008060:	e1a00000 	nop			; (mov r0, r0)

30008064 <reset>:
30008064:	eb000009 	bl	30008090 <set_svc>
30008068:	eb00000d 	bl	300080a4 <disable_watchdog>
3000806c:	eb000010 	bl	300080b4 <disable_interrupt>
30008070:	eb000019 	bl	300080dc <disable_mmu>
30008074:	eb00001e 	bl	300080f4 <clock_init>
30008078:	eb00006f 	bl	3000823c <mem_init>
3000807c:	eb000039 	bl	30008168 <stack_init>
30008080:	eb000456 	bl	300091e0 <nand_init>
30008084:	eb00003c 	bl	3000817c <copy_to_ram>
30008088:	eb000044 	bl	300081a0 <bss_clean>
3000808c:	e59ff14c 	ldr	pc, [pc, #332]	; 300081e0 <led_debug+0x1c>

30008090 <set_svc>:
30008090:	e10f0000 	mrs	r0, CPSR
30008094:	e3c000ff 	bic	r0, r0, #255	; 0xff
30008098:	e38000d3 	orr	r0, r0, #211	; 0xd3
3000809c:	e121f000 	msr	CPSR_c, r0
300080a0:	e1a0f00e 	mov	pc, lr

300080a4 <disable_watchdog>:
300080a4:	e59f0138 	ldr	r0, [pc, #312]	; 300081e4 <led_debug+0x20>
300080a8:	e3a01000 	mov	r1, #0
300080ac:	e5801000 	str	r1, [r0]
300080b0:	e1a0f00e 	mov	pc, lr

300080b4 <disable_interrupt>:
300080b4:	e3e00000 	mvn	r0, #0
300080b8:	e59f1128 	ldr	r1, [pc, #296]	; 300081e8 <led_debug+0x24>
300080bc:	e5810000 	str	r0, [r1]
300080c0:	e59f1124 	ldr	r1, [pc, #292]	; 300081ec <led_debug+0x28>
300080c4:	e5810000 	str	r0, [r1]
300080c8:	e59f1120 	ldr	r1, [pc, #288]	; 300081f0 <led_debug+0x2c>
300080cc:	e5810000 	str	r0, [r1]
300080d0:	e59f111c 	ldr	r1, [pc, #284]	; 300081f4 <led_debug+0x30>
300080d4:	e5810000 	str	r0, [r1]
300080d8:	e1a0f00e 	mov	pc, lr

300080dc <disable_mmu>:
300080dc:	ee070f15 	mcr	15, 0, r0, cr7, cr5, {0}
300080e0:	ee070f36 	mcr	15, 0, r0, cr7, cr6, {1}
300080e4:	ee110f10 	mrc	15, 0, r0, cr1, cr0, {0}
300080e8:	e3c00007 	bic	r0, r0, #7
300080ec:	ee010f10 	mcr	15, 0, r0, cr1, cr0, {0}
300080f0:	e1a0f00e 	mov	pc, lr

300080f4 <clock_init>:
300080f4:	e59f00fc 	ldr	r0, [pc, #252]	; 300081f8 <led_debug+0x34>
300080f8:	e59f10fc 	ldr	r1, [pc, #252]	; 300081fc <led_debug+0x38>
300080fc:	e5801000 	str	r1, [r0]
30008100:	e59f00f8 	ldr	r0, [pc, #248]	; 30008200 <led_debug+0x3c>
30008104:	e59f10f0 	ldr	r1, [pc, #240]	; 300081fc <led_debug+0x38>
30008108:	e5801000 	str	r1, [r0]
3000810c:	e59f00f0 	ldr	r0, [pc, #240]	; 30008204 <led_debug+0x40>
30008110:	e59f10f0 	ldr	r1, [pc, #240]	; 30008208 <led_debug+0x44>
30008114:	e5801000 	str	r1, [r0]
30008118:	e59f00ec 	ldr	r0, [pc, #236]	; 3000820c <led_debug+0x48>
3000811c:	e59f10ec 	ldr	r1, [pc, #236]	; 30008210 <led_debug+0x4c>
30008120:	e5801000 	str	r1, [r0]
30008124:	e59f00e8 	ldr	r0, [pc, #232]	; 30008214 <led_debug+0x50>
30008128:	e59f10e8 	ldr	r1, [pc, #232]	; 30008218 <led_debug+0x54>
3000812c:	e5801000 	str	r1, [r0]
30008130:	e59f00e4 	ldr	r0, [pc, #228]	; 3000821c <led_debug+0x58>
30008134:	e59f10e4 	ldr	r1, [pc, #228]	; 30008220 <led_debug+0x5c>
30008138:	e5801000 	str	r1, [r0]
3000813c:	e1a0f00e 	mov	pc, lr

30008140 <iram_to_ram>:
30008140:	e24f0f52 	sub	r0, pc, #328	; 0x148
30008144:	e59f10d8 	ldr	r1, [pc, #216]	; 30008224 <led_debug+0x60>
30008148:	e59f30d8 	ldr	r3, [pc, #216]	; 30008228 <led_debug+0x64>
3000814c:	e1500001 	cmp	r0, r1
30008150:	01a0f00e 	moveq	pc, lr

30008154 <copy_loop>:
30008154:	e4902004 	ldr	r2, [r0], #4
30008158:	e4812004 	str	r2, [r1], #4
3000815c:	e1510003 	cmp	r1, r3
30008160:	1afffffb 	bne	30008154 <copy_loop>
30008164:	e1a0f00e 	mov	pc, lr

30008168 <stack_init>:
30008168:	e321f0d2 	msr	CPSR_c, #210	; 0xd2
3000816c:	e3a0d43e 	mov	sp, #1040187392	; 0x3e000000
30008170:	e321f0d3 	msr	CPSR_c, #211	; 0xd3
30008174:	e3a0d43f 	mov	sp, #1056964608	; 0x3f000000
30008178:	e1a0f00e 	mov	pc, lr

3000817c <copy_to_ram>:
3000817c:	e3a00000 	mov	r0, #0
30008180:	e59f109c 	ldr	r1, [pc, #156]	; 30008224 <led_debug+0x60>
30008184:	e59f209c 	ldr	r2, [pc, #156]	; 30008228 <led_debug+0x64>
30008188:	e0422001 	sub	r2, r2, r1
3000818c:	e2411010 	sub	r1, r1, #16
30008190:	e1a0c00e 	mov	ip, lr
30008194:	eb00044d 	bl	300092d0 <nand_to_ram>
30008198:	e1a0e00c 	mov	lr, ip
3000819c:	e1a0f00e 	mov	pc, lr

300081a0 <bss_clean>:
300081a0:	e59f0080 	ldr	r0, [pc, #128]	; 30008228 <led_debug+0x64>
300081a4:	e59f1080 	ldr	r1, [pc, #128]	; 3000822c <led_debug+0x68>
300081a8:	e1500001 	cmp	r0, r1
300081ac:	01a0f00e 	moveq	pc, lr

300081b0 <clean_loop>:
300081b0:	e3a02000 	mov	r2, #0
300081b4:	e4802004 	str	r2, [r0], #4
300081b8:	e1500001 	cmp	r0, r1
300081bc:	1afffffb 	bne	300081b0 <clean_loop>
300081c0:	e1a0f00e 	mov	pc, lr

300081c4 <led_debug>:
300081c4:	e59f0064 	ldr	r0, [pc, #100]	; 30008230 <led_debug+0x6c>
300081c8:	e59f1064 	ldr	r1, [pc, #100]	; 30008234 <led_debug+0x70>
300081cc:	e5801000 	str	r1, [r0]
300081d0:	e59f0060 	ldr	r0, [pc, #96]	; 30008238 <led_debug+0x74>
300081d4:	e3a01000 	mov	r1, #0
300081d8:	e5801000 	str	r1, [r0]
300081dc:	e1a0f00e 	mov	pc, lr
300081e0:	30008448 	andcc	r8, r0, r8, asr #8
300081e4:	e2700000 	rsbs	r0, r0, #0
300081e8:	f2000014 	vqadd.s8	d0, d0, d4
300081ec:	f2100014 	vqadd.s16	d0, d0, d4
300081f0:	f2200014 	vqadd.s32	d0, d0, d4
300081f4:	f2300014 	vqadd.s64	d0, d0, d4
300081f8:	e0100000 	ands	r0, r0, r0
300081fc:	00000fff 	strdeq	r0, [r0], -pc	; <UNPREDICTABLE>
30008200:	e0100008 	ands	r0, r0, r8
30008204:	e0100300 	ands	r0, r0, r0, lsl #6
30008208:	14131440 	ldrne	r1, [r3], #-1088	; 0xfffffbc0
3000820c:	e0100100 	ands	r0, r0, r0, lsl #2
30008210:	807d0301 	rsbshi	r0, sp, r1, lsl #6
30008214:	e0100108 	ands	r0, r0, r8, lsl #2
30008218:	829b0c01 	addshi	r0, fp, #256	; 0x100
3000821c:	e0100200 	ands	r0, r0, r0, lsl #4
30008220:	10001111 	andne	r1, r0, r1, lsl r1
30008224:	30008000 	andcc	r8, r0, r0
30008228:	300103ac 	andcc	r0, r1, ip, lsr #7
3000822c:	300115d8 	ldrdcc	r1, [r1], -r8
30008230:	e0200280 	eor	r0, r0, r0, lsl #5
30008234:	00001010 	andeq	r1, r0, r0, lsl r0
30008238:	e0200284 	eor	r0, r0, r4, lsl #5

3000823c <mem_init>:
3000823c:	e59f0194 	ldr	r0, [pc, #404]	; 300083d8 <wait_lock+0x100>
30008240:	e59f1194 	ldr	r1, [pc, #404]	; 300083dc <wait_lock+0x104>
30008244:	e5801000 	str	r1, [r0]
30008248:	e59f0188 	ldr	r0, [pc, #392]	; 300083d8 <wait_lock+0x100>
3000824c:	e59f118c 	ldr	r1, [pc, #396]	; 300083e0 <wait_lock+0x108>
30008250:	e5801000 	str	r1, [r0]
30008254:	e59f0188 	ldr	r0, [pc, #392]	; 300083e4 <wait_lock+0x10c>
30008258:	e3a01086 	mov	r1, #134	; 0x86
3000825c:	e5801000 	str	r1, [r0]
30008260:	e59f0170 	ldr	r0, [pc, #368]	; 300083d8 <wait_lock+0x100>
30008264:	e59f117c 	ldr	r1, [pc, #380]	; 300083e8 <wait_lock+0x110>
30008268:	e5801000 	str	r1, [r0]
3000826c:	e3a0020f 	mov	r0, #-268435456	; 0xf0000000
30008270:	e59f1174 	ldr	r1, [pc, #372]	; 300083ec <wait_lock+0x114>
30008274:	e5801000 	str	r1, [r0]
30008278:	e3a0024f 	mov	r0, #-268435452	; 0xf0000004
3000827c:	e59f116c 	ldr	r1, [pc, #364]	; 300083f0 <wait_lock+0x118>
30008280:	e5801000 	str	r1, [r0]
30008284:	e3a0028f 	mov	r0, #-268435448	; 0xf0000008
30008288:	e59f1164 	ldr	r1, [pc, #356]	; 300083f4 <wait_lock+0x11c>
3000828c:	e5801000 	str	r1, [r0]
30008290:	e59f0160 	ldr	r0, [pc, #352]	; 300083f8 <wait_lock+0x120>
30008294:	e3a014ff 	mov	r1, #-16777216	; 0xff000000
30008298:	e5801000 	str	r1, [r0]
3000829c:	e59f0158 	ldr	r0, [pc, #344]	; 300083fc <wait_lock+0x124>
300082a0:	e3e01cff 	mvn	r1, #65280	; 0xff00
300082a4:	e5801000 	str	r1, [r0]
300082a8:	e59f0150 	ldr	r0, [pc, #336]	; 30008400 <wait_lock+0x128>
300082ac:	e59f1150 	ldr	r1, [pc, #336]	; 30008404 <wait_lock+0x12c>
300082b0:	e5801000 	str	r1, [r0]
300082b4:	e59f014c 	ldr	r0, [pc, #332]	; 30008408 <wait_lock+0x130>
300082b8:	e59f114c 	ldr	r1, [pc, #332]	; 3000840c <wait_lock+0x134>
300082bc:	e5801000 	str	r1, [r0]
300082c0:	e59f0148 	ldr	r0, [pc, #328]	; 30008410 <wait_lock+0x138>
300082c4:	e59f1148 	ldr	r1, [pc, #328]	; 30008414 <wait_lock+0x13c>
300082c8:	e5801000 	str	r1, [r0]
300082cc:	e59f0144 	ldr	r0, [pc, #324]	; 30008418 <wait_lock+0x140>
300082d0:	e59f1144 	ldr	r1, [pc, #324]	; 3000841c <wait_lock+0x144>
300082d4:	e5801000 	str	r1, [r0]

300082d8 <wait_lock>:
300082d8:	e59f0140 	ldr	r0, [pc, #320]	; 30008420 <wait_lock+0x148>
300082dc:	e5901000 	ldr	r1, [r0]
300082e0:	e2012004 	and	r2, r1, #4
300082e4:	e3520004 	cmp	r2, #4
300082e8:	1afffffa 	bne	300082d8 <wait_lock>
300082ec:	e59f0130 	ldr	r0, [pc, #304]	; 30008424 <wait_lock+0x14c>
300082f0:	e3a01407 	mov	r1, #117440512	; 0x7000000
300082f4:	e5801000 	str	r1, [r0]
300082f8:	e3a01401 	mov	r1, #16777216	; 0x1000000
300082fc:	e5801000 	str	r1, [r0]
30008300:	e3a01802 	mov	r1, #131072	; 0x20000
30008304:	e5801000 	str	r1, [r0]
30008308:	e3a01803 	mov	r1, #196608	; 0x30000
3000830c:	e5801000 	str	r1, [r0]
30008310:	e3a01b41 	mov	r1, #66560	; 0x10400
30008314:	e5801000 	str	r1, [r0]
30008318:	e59f1108 	ldr	r1, [pc, #264]	; 30008428 <wait_lock+0x150>
3000831c:	e5801000 	str	r1, [r0]
30008320:	e3a01401 	mov	r1, #16777216	; 0x1000000
30008324:	e5801000 	str	r1, [r0]
30008328:	e3a01405 	mov	r1, #83886080	; 0x5000000
3000832c:	e5801000 	str	r1, [r0]
30008330:	e3a01405 	mov	r1, #83886080	; 0x5000000
30008334:	e5801000 	str	r1, [r0]
30008338:	e59f10ec 	ldr	r1, [pc, #236]	; 3000842c <wait_lock+0x154>
3000833c:	e5801000 	str	r1, [r0]
30008340:	e59f10e8 	ldr	r1, [pc, #232]	; 30008430 <wait_lock+0x158>
30008344:	e5801000 	str	r1, [r0]
30008348:	e3a01b41 	mov	r1, #66560	; 0x10400
3000834c:	e5801000 	str	r1, [r0]
30008350:	e3a01671 	mov	r1, #118489088	; 0x7100000
30008354:	e5801000 	str	r1, [r0]
30008358:	e3a01611 	mov	r1, #17825792	; 0x1100000
3000835c:	e5801000 	str	r1, [r0]
30008360:	e3a01812 	mov	r1, #1179648	; 0x120000
30008364:	e5801000 	str	r1, [r0]
30008368:	e3a01813 	mov	r1, #1245184	; 0x130000
3000836c:	e5801000 	str	r1, [r0]
30008370:	e59f10bc 	ldr	r1, [pc, #188]	; 30008434 <wait_lock+0x15c>
30008374:	e5801000 	str	r1, [r0]
30008378:	e59f10b8 	ldr	r1, [pc, #184]	; 30008438 <wait_lock+0x160>
3000837c:	e5801000 	str	r1, [r0]
30008380:	e3a01611 	mov	r1, #17825792	; 0x1100000
30008384:	e5801000 	str	r1, [r0]
30008388:	e3a01651 	mov	r1, #84934656	; 0x5100000
3000838c:	e5801000 	str	r1, [r0]
30008390:	e3a01651 	mov	r1, #84934656	; 0x5100000
30008394:	e5801000 	str	r1, [r0]
30008398:	e59f109c 	ldr	r1, [pc, #156]	; 3000843c <wait_lock+0x164>
3000839c:	e5801000 	str	r1, [r0]
300083a0:	e59f1098 	ldr	r1, [pc, #152]	; 30008440 <wait_lock+0x168>
300083a4:	e5801000 	str	r1, [r0]
300083a8:	e59f1084 	ldr	r1, [pc, #132]	; 30008434 <wait_lock+0x15c>
300083ac:	e5801000 	str	r1, [r0]
300083b0:	e3a0020f 	mov	r0, #-268435456	; 0xf0000000
300083b4:	e59f1088 	ldr	r1, [pc, #136]	; 30008444 <wait_lock+0x16c>
300083b8:	e5801000 	str	r1, [r0]
300083bc:	e59f0038 	ldr	r0, [pc, #56]	; 300083fc <wait_lock+0x124>
300083c0:	e3e01cff 	mvn	r1, #65280	; 0xff00
300083c4:	e5801000 	str	r1, [r0]
300083c8:	e3a0020f 	mov	r0, #-268435456	; 0xf0000000
300083cc:	e59f101c 	ldr	r1, [pc, #28]	; 300083f0 <wait_lock+0x118>
300083d0:	e5801000 	str	r1, [r0]
300083d4:	e1a0f00e 	mov	pc, lr
300083d8:	f0000018 			; <UNDEFINED> instruction: 0xf0000018
300083dc:	00101000 	andseq	r1, r0, r0
300083e0:	00101002 	andseq	r1, r0, r2
300083e4:	f000001c 			; <UNDEFINED> instruction: 0xf000001c
300083e8:	00101003 	andseq	r1, r0, r3
300083ec:	0fff1350 	svceq	0x00ff1350
300083f0:	00202400 	eoreq	r2, r0, r0, lsl #8
300083f4:	20e00323 	rsccs	r0, r0, r3, lsr #6
300083f8:	f0000014 			; <UNDEFINED> instruction: 0xf0000014
300083fc:	f0000028 			; <UNDEFINED> instruction: 0xf0000028
30008400:	f0000030 			; <UNDEFINED> instruction: 0xf0000030
30008404:	00000618 	andeq	r0, r0, r8, lsl r6
30008408:	f0000034 			; <UNDEFINED> instruction: 0xf0000034
3000840c:	2b34438a 	blcs	30d1923c <bss_end+0xd07c64>
30008410:	f0000038 			; <UNDEFINED> instruction: 0xf0000038
30008414:	24240000 	strtcs	r0, [r4], #-0
30008418:	f000003c 			; <UNDEFINED> instruction: 0xf000003c
3000841c:	0bdc0343 	bleq	2f709130 <_start-0x8feed0>
30008420:	f0000040 			; <UNDEFINED> instruction: 0xf0000040
30008424:	f0000010 			; <UNDEFINED> instruction: 0xf0000010
30008428:	00000542 	andeq	r0, r0, r2, asr #10
3000842c:	00000442 	andeq	r0, r0, r2, asr #8
30008430:	00010780 	andeq	r0, r1, r0, lsl #15
30008434:	00110400 	andseq	r0, r1, r0, lsl #8
30008438:	00100542 	andseq	r0, r0, r2, asr #10
3000843c:	00100442 	andseq	r0, r0, r2, asr #8
30008440:	00110780 	andseq	r0, r1, r0, lsl #15
30008444:	0ff02030 	svceq	0x00f02030

30008448 <main>:
30008448:	e92d4800 	push	{fp, lr}
3000844c:	e28db004 	add	fp, sp, #4
30008450:	e24dd010 	sub	sp, sp, #16
30008454:	e3a03000 	mov	r3, #0
30008458:	e54b3005 	strb	r3, [fp, #-5]
3000845c:	eb000111 	bl	300088a8 <led_init>
30008460:	eb000178 	bl	30008a48 <key_init>
30008464:	eb0001eb 	bl	30008c18 <irq_init>
30008468:	eb00029d 	bl	30008ee4 <uart0_init>
3000846c:	eb00053f 	bl	30009970 <lcd_init>
30008470:	eb00040f 	bl	300094b4 <i2c0_init>
30008474:	e3a00000 	mov	r0, #0
30008478:	eb0005f0 	bl	30009c40 <lcd_clear_screen>
3000847c:	eb000772 	bl	3000a24c <dm9000_init>
30008480:	e59f010c 	ldr	r0, [pc, #268]	; 30008594 <main+0x14c>
30008484:	eb0009fa 	bl	3000ac74 <printf>
30008488:	e3a00000 	mov	r0, #0
3000848c:	e3a010aa 	mov	r1, #170	; 0xaa
30008490:	eb000522 	bl	30009920 <at24cxx_write>
30008494:	e3a00000 	mov	r0, #0
30008498:	eb00050c 	bl	300098d0 <at24cxx_read>
3000849c:	e1a03000 	mov	r3, r0
300084a0:	e54b3005 	strb	r3, [fp, #-5]
300084a4:	e55b3005 	ldrb	r3, [fp, #-5]
300084a8:	e59f00e8 	ldr	r0, [pc, #232]	; 30008598 <main+0x150>
300084ac:	e1a01003 	mov	r1, r3
300084b0:	eb0009ef 	bl	3000ac74 <printf>
300084b4:	e59f00e0 	ldr	r0, [pc, #224]	; 3000859c <main+0x154>
300084b8:	eb0009ed 	bl	3000ac74 <printf>
300084bc:	e3a00001 	mov	r0, #1
300084c0:	e3a01033 	mov	r1, #51	; 0x33
300084c4:	eb000515 	bl	30009920 <at24cxx_write>
300084c8:	e3a00001 	mov	r0, #1
300084cc:	eb0004ff 	bl	300098d0 <at24cxx_read>
300084d0:	e1a03000 	mov	r3, r0
300084d4:	e54b3005 	strb	r3, [fp, #-5]
300084d8:	e55b3005 	ldrb	r3, [fp, #-5]
300084dc:	e59f00bc 	ldr	r0, [pc, #188]	; 300085a0 <main+0x158>
300084e0:	e1a01003 	mov	r1, r3
300084e4:	eb0009e2 	bl	3000ac74 <printf>
300084e8:	e59f00b4 	ldr	r0, [pc, #180]	; 300085a4 <main+0x15c>
300084ec:	eb0009e0 	bl	3000ac74 <printf>
300084f0:	e59f00b0 	ldr	r0, [pc, #176]	; 300085a8 <main+0x160>
300084f4:	eb0009de 	bl	3000ac74 <printf>
300084f8:	e59f00ac 	ldr	r0, [pc, #172]	; 300085ac <main+0x164>
300084fc:	eb0009dc 	bl	3000ac74 <printf>
30008500:	e59f009c 	ldr	r0, [pc, #156]	; 300085a4 <main+0x15c>
30008504:	eb0009da 	bl	3000ac74 <printf>
30008508:	e59f00a0 	ldr	r0, [pc, #160]	; 300085b0 <main+0x168>
3000850c:	eb0009d8 	bl	3000ac74 <printf>
30008510:	e59f009c 	ldr	r0, [pc, #156]	; 300085b4 <main+0x16c>
30008514:	eb0009d6 	bl	3000ac74 <printf>
30008518:	e59f0098 	ldr	r0, [pc, #152]	; 300085b8 <main+0x170>
3000851c:	eb0009d4 	bl	3000ac74 <printf>
30008520:	e24b300c 	sub	r3, fp, #12
30008524:	e59f0090 	ldr	r0, [pc, #144]	; 300085bc <main+0x174>
30008528:	e1a01003 	mov	r1, r3
3000852c:	eb0009f9 	bl	3000ad18 <scanf>
30008530:	e51b300c 	ldr	r3, [fp, #-12]
30008534:	e59f0080 	ldr	r0, [pc, #128]	; 300085bc <main+0x174>
30008538:	e1a01003 	mov	r1, r3
3000853c:	eb0009cc 	bl	3000ac74 <printf>
30008540:	e51b300c 	ldr	r3, [fp, #-12]
30008544:	e50b3010 	str	r3, [fp, #-16]
30008548:	e51b3010 	ldr	r3, [fp, #-16]
3000854c:	e3530002 	cmp	r3, #2
30008550:	0a000007 	beq	30008574 <main+0x12c>
30008554:	e51b3010 	ldr	r3, [fp, #-16]
30008558:	e3530003 	cmp	r3, #3
3000855c:	0a000007 	beq	30008580 <main+0x138>
30008560:	e51b3010 	ldr	r3, [fp, #-16]
30008564:	e3530001 	cmp	r3, #1
30008568:	1a000006 	bne	30008588 <main+0x140>
3000856c:	eb001761 	bl	3000e2f8 <arp_request>
30008570:	eaffffdc 	b	300084e8 <main+0xa0>
30008574:	e59f0044 	ldr	r0, [pc, #68]	; 300085c0 <main+0x178>
30008578:	eb0018c8 	bl	3000e8a0 <tftp_send_request>
3000857c:	eaffffd9 	b	300084e8 <main+0xa0>
30008580:	eb00009d 	bl	300087fc <boot_linux>
30008584:	eaffffd7 	b	300084e8 <main+0xa0>
30008588:	e59f0034 	ldr	r0, [pc, #52]	; 300085c4 <main+0x17c>
3000858c:	eb0009b8 	bl	3000ac74 <printf>
30008590:	eaffffd4 	b	300084e8 <main+0xa0>
30008594:	3000efd0 	ldrdcc	lr, [r0], -r0
30008598:	3000efec 	andcc	lr, r0, ip, ror #31
3000859c:	3000f00c 	andcc	pc, r0, ip
300085a0:	3000f02c 	andcc	pc, r0, ip, lsr #32
300085a4:	3000f04c 	andcc	pc, r0, ip, asr #32
300085a8:	3000f050 	andcc	pc, r0, r0, asr r0	; <UNPREDICTABLE>
300085ac:	3000f084 	andcc	pc, r0, r4, lsl #1
300085b0:	3000f0b8 	strhcc	pc, [r0], -r8	; <UNPREDICTABLE>
300085b4:	3000f0d4 	ldrdcc	pc, [r0], -r4
300085b8:	3000f0f8 	strdcc	pc, [r0], -r8
300085bc:	3000f10c 	andcc	pc, r0, ip, lsl #2
300085c0:	3000f114 	andcc	pc, r0, r4, lsl r1	; <UNPREDICTABLE>
300085c4:	3000f11c 	andcc	pc, r0, ip, lsl r1	; <UNPREDICTABLE>

300085c8 <setup_core_tag>:
300085c8:	e92d4800 	push	{fp, lr}
300085cc:	e28db004 	add	fp, sp, #4
300085d0:	e59f2094 	ldr	r2, [pc, #148]	; 3000866c <setup_core_tag+0xa4>
300085d4:	e3a03202 	mov	r3, #536870912	; 0x20000000
300085d8:	e2833c01 	add	r3, r3, #256	; 0x100
300085dc:	e5823000 	str	r3, [r2]
300085e0:	e59f3084 	ldr	r3, [pc, #132]	; 3000866c <setup_core_tag+0xa4>
300085e4:	e5932000 	ldr	r2, [r3]
300085e8:	e3a03355 	mov	r3, #1409286145	; 0x54000001
300085ec:	e2833841 	add	r3, r3, #4259840	; 0x410000
300085f0:	e5823004 	str	r3, [r2, #4]
300085f4:	e59f3070 	ldr	r3, [pc, #112]	; 3000866c <setup_core_tag+0xa4>
300085f8:	e5932000 	ldr	r2, [r3]
300085fc:	e3a03005 	mov	r3, #5
30008600:	e5823000 	str	r3, [r2]
30008604:	e59f3060 	ldr	r3, [pc, #96]	; 3000866c <setup_core_tag+0xa4>
30008608:	e5932000 	ldr	r2, [r3]
3000860c:	e3a03000 	mov	r3, #0
30008610:	e5823008 	str	r3, [r2, #8]
30008614:	e59f3050 	ldr	r3, [pc, #80]	; 3000866c <setup_core_tag+0xa4>
30008618:	e5932000 	ldr	r2, [r3]
3000861c:	e3a03a01 	mov	r3, #4096	; 0x1000
30008620:	e582300c 	str	r3, [r2, #12]
30008624:	e59f3040 	ldr	r3, [pc, #64]	; 3000866c <setup_core_tag+0xa4>
30008628:	e5932000 	ldr	r2, [r3]
3000862c:	e3a03000 	mov	r3, #0
30008630:	e5823010 	str	r3, [r2, #16]
30008634:	e59f3030 	ldr	r3, [pc, #48]	; 3000866c <setup_core_tag+0xa4>
30008638:	e5932000 	ldr	r2, [r3]
3000863c:	e59f3028 	ldr	r3, [pc, #40]	; 3000866c <setup_core_tag+0xa4>
30008640:	e5933000 	ldr	r3, [r3]
30008644:	e5933000 	ldr	r3, [r3]
30008648:	e1a03103 	lsl	r3, r3, #2
3000864c:	e0822003 	add	r2, r2, r3
30008650:	e59f3014 	ldr	r3, [pc, #20]	; 3000866c <setup_core_tag+0xa4>
30008654:	e5832000 	str	r2, [r3]
30008658:	e59f0010 	ldr	r0, [pc, #16]	; 30008670 <setup_core_tag+0xa8>
3000865c:	eb000984 	bl	3000ac74 <printf>
30008660:	e24bd004 	sub	sp, fp, #4
30008664:	e8bd4800 	pop	{fp, lr}
30008668:	e12fff1e 	bx	lr
3000866c:	300103c8 	andcc	r0, r1, r8, asr #7
30008670:	3000f150 	andcc	pc, r0, r0, asr r1	; <UNPREDICTABLE>

30008674 <setup_mem_tag>:
30008674:	e92d4800 	push	{fp, lr}
30008678:	e28db004 	add	fp, sp, #4
3000867c:	e59f3074 	ldr	r3, [pc, #116]	; 300086f8 <setup_mem_tag+0x84>
30008680:	e5932000 	ldr	r2, [r3]
30008684:	e3a03395 	mov	r3, #1409286146	; 0x54000002
30008688:	e2833841 	add	r3, r3, #4259840	; 0x410000
3000868c:	e5823004 	str	r3, [r2, #4]
30008690:	e59f3060 	ldr	r3, [pc, #96]	; 300086f8 <setup_mem_tag+0x84>
30008694:	e5932000 	ldr	r2, [r3]
30008698:	e3a03004 	mov	r3, #4
3000869c:	e5823000 	str	r3, [r2]
300086a0:	e59f3050 	ldr	r3, [pc, #80]	; 300086f8 <setup_mem_tag+0x84>
300086a4:	e5932000 	ldr	r2, [r3]
300086a8:	e3a03202 	mov	r3, #536870912	; 0x20000000
300086ac:	e582300c 	str	r3, [r2, #12]
300086b0:	e59f3040 	ldr	r3, [pc, #64]	; 300086f8 <setup_mem_tag+0x84>
300086b4:	e5932000 	ldr	r2, [r3]
300086b8:	e3a03202 	mov	r3, #536870912	; 0x20000000
300086bc:	e5823008 	str	r3, [r2, #8]
300086c0:	e59f3030 	ldr	r3, [pc, #48]	; 300086f8 <setup_mem_tag+0x84>
300086c4:	e5932000 	ldr	r2, [r3]
300086c8:	e59f3028 	ldr	r3, [pc, #40]	; 300086f8 <setup_mem_tag+0x84>
300086cc:	e5933000 	ldr	r3, [r3]
300086d0:	e5933000 	ldr	r3, [r3]
300086d4:	e1a03103 	lsl	r3, r3, #2
300086d8:	e0822003 	add	r2, r2, r3
300086dc:	e59f3014 	ldr	r3, [pc, #20]	; 300086f8 <setup_mem_tag+0x84>
300086e0:	e5832000 	str	r2, [r3]
300086e4:	e59f0010 	ldr	r0, [pc, #16]	; 300086fc <setup_mem_tag+0x88>
300086e8:	eb000961 	bl	3000ac74 <printf>
300086ec:	e24bd004 	sub	sp, fp, #4
300086f0:	e8bd4800 	pop	{fp, lr}
300086f4:	e12fff1e 	bx	lr
300086f8:	300103c8 	andcc	r0, r1, r8, asr #7
300086fc:	3000f164 	andcc	pc, r0, r4, ror #2

30008700 <setup_cmdline_tag>:
30008700:	e92d4800 	push	{fp, lr}
30008704:	e28db004 	add	fp, sp, #4
30008708:	e24dd008 	sub	sp, sp, #8
3000870c:	e59f3098 	ldr	r3, [pc, #152]	; 300087ac <setup_cmdline_tag+0xac>
30008710:	e5933000 	ldr	r3, [r3]
30008714:	e1a00003 	mov	r0, r3
30008718:	eb000b3c 	bl	3000b410 <strlen>
3000871c:	e1a03000 	mov	r3, r0
30008720:	e50b3008 	str	r3, [fp, #-8]
30008724:	e59f3084 	ldr	r3, [pc, #132]	; 300087b0 <setup_cmdline_tag+0xb0>
30008728:	e5932000 	ldr	r2, [r3]
3000872c:	e3a03315 	mov	r3, #1409286144	; 0x54000000
30008730:	e2833841 	add	r3, r3, #4259840	; 0x410000
30008734:	e2833009 	add	r3, r3, #9
30008738:	e5823004 	str	r3, [r2, #4]
3000873c:	e59f306c 	ldr	r3, [pc, #108]	; 300087b0 <setup_cmdline_tag+0xb0>
30008740:	e5932000 	ldr	r2, [r3]
30008744:	e51b3008 	ldr	r3, [fp, #-8]
30008748:	e283300d 	add	r3, r3, #13
3000874c:	e1a03123 	lsr	r3, r3, #2
30008750:	e5823000 	str	r3, [r2]
30008754:	e59f3054 	ldr	r3, [pc, #84]	; 300087b0 <setup_cmdline_tag+0xb0>
30008758:	e5933000 	ldr	r3, [r3]
3000875c:	e2832008 	add	r2, r3, #8
30008760:	e59f3044 	ldr	r3, [pc, #68]	; 300087ac <setup_cmdline_tag+0xac>
30008764:	e5933000 	ldr	r3, [r3]
30008768:	e1a00002 	mov	r0, r2
3000876c:	e1a01003 	mov	r1, r3
30008770:	eb0009e5 	bl	3000af0c <strcpy>
30008774:	e59f3034 	ldr	r3, [pc, #52]	; 300087b0 <setup_cmdline_tag+0xb0>
30008778:	e5932000 	ldr	r2, [r3]
3000877c:	e59f302c 	ldr	r3, [pc, #44]	; 300087b0 <setup_cmdline_tag+0xb0>
30008780:	e5933000 	ldr	r3, [r3]
30008784:	e5933000 	ldr	r3, [r3]
30008788:	e1a03103 	lsl	r3, r3, #2
3000878c:	e0822003 	add	r2, r2, r3
30008790:	e59f3018 	ldr	r3, [pc, #24]	; 300087b0 <setup_cmdline_tag+0xb0>
30008794:	e5832000 	str	r2, [r3]
30008798:	e59f0014 	ldr	r0, [pc, #20]	; 300087b4 <setup_cmdline_tag+0xb4>
3000879c:	eb000934 	bl	3000ac74 <printf>
300087a0:	e24bd004 	sub	sp, fp, #4
300087a4:	e8bd4800 	pop	{fp, lr}
300087a8:	e12fff1e 	bx	lr
300087ac:	3001028c 	andcc	r0, r1, ip, lsl #5
300087b0:	300103c8 	andcc	r0, r1, r8, asr #7
300087b4:	3000f178 	andcc	pc, r0, r8, ror r1	; <UNPREDICTABLE>

300087b8 <setup_end_tag>:
300087b8:	e92d4800 	push	{fp, lr}
300087bc:	e28db004 	add	fp, sp, #4
300087c0:	e59f302c 	ldr	r3, [pc, #44]	; 300087f4 <setup_end_tag+0x3c>
300087c4:	e5932000 	ldr	r2, [r3]
300087c8:	e3a03000 	mov	r3, #0
300087cc:	e5823004 	str	r3, [r2, #4]
300087d0:	e59f301c 	ldr	r3, [pc, #28]	; 300087f4 <setup_end_tag+0x3c>
300087d4:	e5932000 	ldr	r2, [r3]
300087d8:	e3a03000 	mov	r3, #0
300087dc:	e5823000 	str	r3, [r2]
300087e0:	e59f0010 	ldr	r0, [pc, #16]	; 300087f8 <setup_end_tag+0x40>
300087e4:	eb000922 	bl	3000ac74 <printf>
300087e8:	e24bd004 	sub	sp, fp, #4
300087ec:	e8bd4800 	pop	{fp, lr}
300087f0:	e12fff1e 	bx	lr
300087f4:	300103c8 	andcc	r0, r1, r8, asr #7
300087f8:	3000f18c 	andcc	pc, r0, ip, lsl #3

300087fc <boot_linux>:
300087fc:	e92d4800 	push	{fp, lr}
30008800:	e28db004 	add	fp, sp, #4
30008804:	e59f2050 	ldr	r2, [pc, #80]	; 3000885c <boot_linux+0x60>
30008808:	e3a03202 	mov	r3, #536870912	; 0x20000000
3000880c:	e2833902 	add	r3, r3, #32768	; 0x8000
30008810:	e5823000 	str	r3, [r2]
30008814:	ebffff6b 	bl	300085c8 <setup_core_tag>
30008818:	ebffff95 	bl	30008674 <setup_mem_tag>
3000881c:	ebffffb7 	bl	30008700 <setup_cmdline_tag>
30008820:	ebffffe4 	bl	300087b8 <setup_end_tag>
30008824:	e59f0034 	ldr	r0, [pc, #52]	; 30008860 <boot_linux+0x64>
30008828:	eb000911 	bl	3000ac74 <printf>
3000882c:	e59f3028 	ldr	r3, [pc, #40]	; 3000885c <boot_linux+0x60>
30008830:	e5933000 	ldr	r3, [r3]
30008834:	e3a00000 	mov	r0, #0
30008838:	e3a01d36 	mov	r1, #3456	; 0xd80
3000883c:	e281100a 	add	r1, r1, #10
30008840:	e3a02202 	mov	r2, #536870912	; 0x20000000
30008844:	e2822c01 	add	r2, r2, #256	; 0x100
30008848:	e1a0e00f 	mov	lr, pc
3000884c:	e12fff13 	bx	r3
30008850:	e24bd004 	sub	sp, fp, #4
30008854:	e8bd4800 	pop	{fp, lr}
30008858:	e12fff1e 	bx	lr
3000885c:	300103c4 	andcc	r0, r1, r4, asr #7
30008860:	3000f198 	mulcc	r0, r8, r1

30008864 <delay>:
30008864:	e52db004 	push	{fp}		; (str fp, [sp, #-4]!)
30008868:	e28db000 	add	fp, sp, #0
3000886c:	e24dd00c 	sub	sp, sp, #12
30008870:	e50b0008 	str	r0, [fp, #-8]
30008874:	e51b3008 	ldr	r3, [fp, #-8]
30008878:	e3530000 	cmp	r3, #0
3000887c:	03a03000 	moveq	r3, #0
30008880:	13a03001 	movne	r3, #1
30008884:	e20320ff 	and	r2, r3, #255	; 0xff
30008888:	e51b3008 	ldr	r3, [fp, #-8]
3000888c:	e2433001 	sub	r3, r3, #1
30008890:	e50b3008 	str	r3, [fp, #-8]
30008894:	e3520000 	cmp	r2, #0
30008898:	1afffff5 	bne	30008874 <delay+0x10>
3000889c:	e28bd000 	add	sp, fp, #0
300088a0:	e8bd0800 	ldmfd	sp!, {fp}
300088a4:	e12fff1e 	bx	lr

300088a8 <led_init>:
300088a8:	e52db004 	push	{fp}		; (str fp, [sp, #-4]!)
300088ac:	e28db000 	add	fp, sp, #0
300088b0:	e3a0220e 	mov	r2, #-536870912	; 0xe0000000
300088b4:	e2822602 	add	r2, r2, #2097152	; 0x200000
300088b8:	e2822d0a 	add	r2, r2, #640	; 0x280
300088bc:	e3a03c11 	mov	r3, #4352	; 0x1100
300088c0:	e2833011 	add	r3, r3, #17
300088c4:	e5823000 	str	r3, [r2]
300088c8:	e3a0320e 	mov	r3, #-536870912	; 0xe0000000
300088cc:	e2833602 	add	r3, r3, #2097152	; 0x200000
300088d0:	e2833fa1 	add	r3, r3, #644	; 0x284
300088d4:	e3a0200f 	mov	r2, #15
300088d8:	e5832000 	str	r2, [r3]
300088dc:	e28bd000 	add	sp, fp, #0
300088e0:	e8bd0800 	ldmfd	sp!, {fp}
300088e4:	e12fff1e 	bx	lr

300088e8 <led_on>:
300088e8:	e52db004 	push	{fp}		; (str fp, [sp, #-4]!)
300088ec:	e28db000 	add	fp, sp, #0
300088f0:	e3a0320e 	mov	r3, #-536870912	; 0xe0000000
300088f4:	e2833602 	add	r3, r3, #2097152	; 0x200000
300088f8:	e2833fa1 	add	r3, r3, #644	; 0x284
300088fc:	e3a0200a 	mov	r2, #10
30008900:	e5832000 	str	r2, [r3]
30008904:	e28bd000 	add	sp, fp, #0
30008908:	e8bd0800 	ldmfd	sp!, {fp}
3000890c:	e12fff1e 	bx	lr

30008910 <led_flow_water>:
30008910:	e92d4800 	push	{fp, lr}
30008914:	e28db004 	add	fp, sp, #4
30008918:	e24dd008 	sub	sp, sp, #8
3000891c:	e3a03000 	mov	r3, #0
30008920:	e50b300c 	str	r3, [fp, #-12]
30008924:	e3a03000 	mov	r3, #0
30008928:	e50b3008 	str	r3, [fp, #-8]
3000892c:	e3a03000 	mov	r3, #0
30008930:	e50b3008 	str	r3, [fp, #-8]
30008934:	ea000014 	b	3000898c <led_flow_water+0x7c>
30008938:	e3a0220e 	mov	r2, #-536870912	; 0xe0000000
3000893c:	e2822602 	add	r2, r2, #2097152	; 0x200000
30008940:	e2822fa1 	add	r2, r2, #644	; 0x284
30008944:	e51b100c 	ldr	r1, [fp, #-12]
30008948:	e3a03001 	mov	r3, #1
3000894c:	e1a03113 	lsl	r3, r3, r1
30008950:	e1e03003 	mvn	r3, r3
30008954:	e5823000 	str	r3, [r2]
30008958:	e51b300c 	ldr	r3, [fp, #-12]
3000895c:	e2833001 	add	r3, r3, #1
30008960:	e50b300c 	str	r3, [fp, #-12]
30008964:	e51b300c 	ldr	r3, [fp, #-12]
30008968:	e3530004 	cmp	r3, #4
3000896c:	1a000001 	bne	30008978 <led_flow_water+0x68>
30008970:	e3a03000 	mov	r3, #0
30008974:	e50b300c 	str	r3, [fp, #-12]
30008978:	e3a00601 	mov	r0, #1048576	; 0x100000
3000897c:	ebffffb8 	bl	30008864 <delay>
30008980:	e51b3008 	ldr	r3, [fp, #-8]
30008984:	e2833001 	add	r3, r3, #1
30008988:	e50b3008 	str	r3, [fp, #-8]
3000898c:	e51b3008 	ldr	r3, [fp, #-8]
30008990:	e3530007 	cmp	r3, #7
30008994:	9affffe7 	bls	30008938 <led_flow_water+0x28>
30008998:	e3a0320e 	mov	r3, #-536870912	; 0xe0000000
3000899c:	e2833602 	add	r3, r3, #2097152	; 0x200000
300089a0:	e2833fa1 	add	r3, r3, #644	; 0x284
300089a4:	e3a0200f 	mov	r2, #15
300089a8:	e5832000 	str	r2, [r3]
300089ac:	e24bd004 	sub	sp, fp, #4
300089b0:	e8bd4800 	pop	{fp, lr}
300089b4:	e12fff1e 	bx	lr

300089b8 <led_flash>:
300089b8:	e92d4800 	push	{fp, lr}
300089bc:	e28db004 	add	fp, sp, #4
300089c0:	e24dd008 	sub	sp, sp, #8
300089c4:	e3a03000 	mov	r3, #0
300089c8:	e50b3008 	str	r3, [fp, #-8]
300089cc:	ea000012 	b	30008a1c <led_flash+0x64>
300089d0:	e3a0320e 	mov	r3, #-536870912	; 0xe0000000
300089d4:	e2833602 	add	r3, r3, #2097152	; 0x200000
300089d8:	e2833fa1 	add	r3, r3, #644	; 0x284
300089dc:	e3a0200f 	mov	r2, #15
300089e0:	e5832000 	str	r2, [r3]
300089e4:	e3a0093d 	mov	r0, #999424	; 0xf4000
300089e8:	e2800d09 	add	r0, r0, #576	; 0x240
300089ec:	ebffff9c 	bl	30008864 <delay>
300089f0:	e3a0320e 	mov	r3, #-536870912	; 0xe0000000
300089f4:	e2833602 	add	r3, r3, #2097152	; 0x200000
300089f8:	e2833fa1 	add	r3, r3, #644	; 0x284
300089fc:	e3a02000 	mov	r2, #0
30008a00:	e5832000 	str	r2, [r3]
30008a04:	e3a0093d 	mov	r0, #999424	; 0xf4000
30008a08:	e2800d09 	add	r0, r0, #576	; 0x240
30008a0c:	ebffff94 	bl	30008864 <delay>
30008a10:	e51b3008 	ldr	r3, [fp, #-8]
30008a14:	e2833001 	add	r3, r3, #1
30008a18:	e50b3008 	str	r3, [fp, #-8]
30008a1c:	e51b3008 	ldr	r3, [fp, #-8]
30008a20:	e3530003 	cmp	r3, #3
30008a24:	9affffe9 	bls	300089d0 <led_flash+0x18>
30008a28:	e3a0320e 	mov	r3, #-536870912	; 0xe0000000
30008a2c:	e2833602 	add	r3, r3, #2097152	; 0x200000
30008a30:	e2833fa1 	add	r3, r3, #644	; 0x284
30008a34:	e3a0200f 	mov	r2, #15
30008a38:	e5832000 	str	r2, [r3]
30008a3c:	e24bd004 	sub	sp, fp, #4
30008a40:	e8bd4800 	pop	{fp, lr}
30008a44:	e12fff1e 	bx	lr

30008a48 <key_init>:
30008a48:	e52db004 	push	{fp}		; (str fp, [sp, #-4]!)
30008a4c:	e28db000 	add	fp, sp, #0
30008a50:	e3a0320e 	mov	r3, #-536870912	; 0xe0000000
30008a54:	e2833602 	add	r3, r3, #2097152	; 0x200000
30008a58:	e2833d31 	add	r3, r3, #3136	; 0xc40
30008a5c:	e3a020ff 	mov	r2, #255	; 0xff
30008a60:	e5832000 	str	r2, [r3]
30008a64:	e3a03d31 	mov	r3, #3136	; 0xc40
30008a68:	e283324e 	add	r3, r3, #-536870908	; 0xe0000004
30008a6c:	e2833602 	add	r3, r3, #2097152	; 0x200000
30008a70:	e3a02003 	mov	r2, #3
30008a74:	e5832000 	str	r2, [r3]
30008a78:	e28bd000 	add	sp, fp, #0
30008a7c:	e8bd0800 	ldmfd	sp!, {fp}
30008a80:	e12fff1e 	bx	lr

30008a84 <key_isr>:
30008a84:	e92d4800 	push	{fp, lr}
30008a88:	e28db004 	add	fp, sp, #4
30008a8c:	e24dd010 	sub	sp, sp, #16
30008a90:	e3a03d3d 	mov	r3, #3904	; 0xf40
30008a94:	e283328e 	add	r3, r3, #-536870904	; 0xe0000008
30008a98:	e2833602 	add	r3, r3, #2097152	; 0x200000
30008a9c:	e5933000 	ldr	r3, [r3]
30008aa0:	e2033003 	and	r3, r3, #3
30008aa4:	e50b3008 	str	r3, [fp, #-8]
30008aa8:	e51b3008 	ldr	r3, [fp, #-8]
30008aac:	e50b3010 	str	r3, [fp, #-16]
30008ab0:	e51b3010 	ldr	r3, [fp, #-16]
30008ab4:	e3530001 	cmp	r3, #1
30008ab8:	0a000003 	beq	30008acc <key_isr+0x48>
30008abc:	e51b3010 	ldr	r3, [fp, #-16]
30008ac0:	e3530002 	cmp	r3, #2
30008ac4:	0a000002 	beq	30008ad4 <key_isr+0x50>
30008ac8:	ea000002 	b	30008ad8 <key_isr+0x54>
30008acc:	ebffff8f 	bl	30008910 <led_flow_water>
30008ad0:	ea000000 	b	30008ad8 <key_isr+0x54>
30008ad4:	ebffffb7 	bl	300089b8 <led_flash>
30008ad8:	e3a03d3d 	mov	r3, #3904	; 0xf40
30008adc:	e283328e 	add	r3, r3, #-536870904	; 0xe0000008
30008ae0:	e2833602 	add	r3, r3, #2097152	; 0x200000
30008ae4:	e3e02000 	mvn	r2, #0
30008ae8:	e5832000 	str	r2, [r3]
30008aec:	e3a034f2 	mov	r3, #-234881024	; 0xf2000000
30008af0:	e2833c0f 	add	r3, r3, #3840	; 0xf00
30008af4:	e3a02000 	mov	r2, #0
30008af8:	e5832000 	str	r2, [r3]
30008afc:	e3a034f2 	mov	r3, #-234881024	; 0xf2000000
30008b00:	e2833601 	add	r3, r3, #1048576	; 0x100000
30008b04:	e2833c0f 	add	r3, r3, #3840	; 0xf00
30008b08:	e3a02000 	mov	r2, #0
30008b0c:	e5832000 	str	r2, [r3]
30008b10:	e3a034f2 	mov	r3, #-234881024	; 0xf2000000
30008b14:	e2833602 	add	r3, r3, #2097152	; 0x200000
30008b18:	e2833c0f 	add	r3, r3, #3840	; 0xf00
30008b1c:	e3a02000 	mov	r2, #0
30008b20:	e5832000 	str	r2, [r3]
30008b24:	e3a034f2 	mov	r3, #-234881024	; 0xf2000000
30008b28:	e2833603 	add	r3, r3, #3145728	; 0x300000
30008b2c:	e2833c0f 	add	r3, r3, #3840	; 0xf00
30008b30:	e3a02000 	mov	r2, #0
30008b34:	e5832000 	str	r2, [r3]
30008b38:	e24bd004 	sub	sp, fp, #4
30008b3c:	e8bd4800 	pop	{fp, lr}
30008b40:	e12fff1e 	bx	lr

30008b44 <irq_handler>:
30008b44:	e92d4800 	push	{fp, lr}
30008b48:	e28db004 	add	fp, sp, #4
30008b4c:	e24dd010 	sub	sp, sp, #16
30008b50:	e3a034f2 	mov	r3, #-234881024	; 0xf2000000
30008b54:	e5933000 	ldr	r3, [r3]
30008b58:	e3530000 	cmp	r3, #0
30008b5c:	0a00001d 	beq	30008bd8 <irq_handler+0x94>
30008b60:	e3a034f2 	mov	r3, #-234881024	; 0xf2000000
30008b64:	e5933000 	ldr	r3, [r3]
30008b68:	e2033801 	and	r3, r3, #65536	; 0x10000
30008b6c:	e3530000 	cmp	r3, #0
30008b70:	1a000004 	bne	30008b88 <irq_handler+0x44>
30008b74:	e3a034f2 	mov	r3, #-234881024	; 0xf2000000
30008b78:	e5933000 	ldr	r3, [r3]
30008b7c:	e2033802 	and	r3, r3, #131072	; 0x20000
30008b80:	e3530000 	cmp	r3, #0
30008b84:	0a000006 	beq	30008ba4 <irq_handler+0x60>
30008b88:	e3a034f2 	mov	r3, #-234881024	; 0xf2000000
30008b8c:	e2833c0f 	add	r3, r3, #3840	; 0xf00
30008b90:	e5933000 	ldr	r3, [r3]
30008b94:	e50b3010 	str	r3, [fp, #-16]
30008b98:	e51b3010 	ldr	r3, [fp, #-16]
30008b9c:	e1a0e00f 	mov	lr, pc
30008ba0:	e12fff13 	bx	r3
30008ba4:	e3a034f2 	mov	r3, #-234881024	; 0xf2000000
30008ba8:	e5933000 	ldr	r3, [r3]
30008bac:	e2033080 	and	r3, r3, #128	; 0x80
30008bb0:	e3530000 	cmp	r3, #0
30008bb4:	0a000014 	beq	30008c0c <irq_handler+0xc8>
30008bb8:	e3a034f2 	mov	r3, #-234881024	; 0xf2000000
30008bbc:	e2833c0f 	add	r3, r3, #3840	; 0xf00
30008bc0:	e5933000 	ldr	r3, [r3]
30008bc4:	e50b3008 	str	r3, [fp, #-8]
30008bc8:	e51b3008 	ldr	r3, [fp, #-8]
30008bcc:	e1a0e00f 	mov	lr, pc
30008bd0:	e12fff13 	bx	r3
30008bd4:	ea00000c 	b	30008c0c <irq_handler+0xc8>
30008bd8:	e3a034f2 	mov	r3, #-234881024	; 0xf2000000
30008bdc:	e2833601 	add	r3, r3, #1048576	; 0x100000
30008be0:	e5933000 	ldr	r3, [r3]
30008be4:	e3530000 	cmp	r3, #0
30008be8:	0a000007 	beq	30008c0c <irq_handler+0xc8>
30008bec:	e3a034f2 	mov	r3, #-234881024	; 0xf2000000
30008bf0:	e2833601 	add	r3, r3, #1048576	; 0x100000
30008bf4:	e2833c0f 	add	r3, r3, #3840	; 0xf00
30008bf8:	e5933000 	ldr	r3, [r3]
30008bfc:	e50b300c 	str	r3, [fp, #-12]
30008c00:	e51b300c 	ldr	r3, [fp, #-12]
30008c04:	e1a0e00f 	mov	lr, pc
30008c08:	e12fff13 	bx	r3
30008c0c:	e24bd004 	sub	sp, fp, #4
30008c10:	e8bd4800 	pop	{fp, lr}
30008c14:	e12fff1e 	bx	lr

30008c18 <irq_init>:
30008c18:	e52db004 	push	{fp}		; (str fp, [sp, #-4]!)
30008c1c:	e28db000 	add	fp, sp, #0
30008c20:	e3a0320d 	mov	r3, #-805306368	; 0xd0000000
30008c24:	e2833bdd 	add	r3, r3, #226304	; 0x37400
30008c28:	e2833018 	add	r3, r3, #24
30008c2c:	e59f214c 	ldr	r2, [pc, #332]	; 30008d80 <irq_init+0x168>
30008c30:	e5832000 	str	r2, [r3]
30008c34:	e3a03c0e 	mov	r3, #3584	; 0xe00
30008c38:	e283328e 	add	r3, r3, #-536870904	; 0xe0000008
30008c3c:	e2833602 	add	r3, r3, #2097152	; 0x200000
30008c40:	e3a02022 	mov	r2, #34	; 0x22
30008c44:	e5832000 	str	r2, [r3]
30008c48:	e3a0220e 	mov	r2, #-536870912	; 0xe0000000
30008c4c:	e2822602 	add	r2, r2, #2097152	; 0x200000
30008c50:	e2822c0e 	add	r2, r2, #3584	; 0xe00
30008c54:	e3a0320e 	mov	r3, #-536870912	; 0xe0000000
30008c58:	e2833602 	add	r3, r3, #2097152	; 0x200000
30008c5c:	e2833c0e 	add	r3, r3, #3584	; 0xe00
30008c60:	e5933000 	ldr	r3, [r3]
30008c64:	e3c33207 	bic	r3, r3, #1879048192	; 0x70000000
30008c68:	e5823000 	str	r3, [r2]
30008c6c:	e3a0220e 	mov	r2, #-536870912	; 0xe0000000
30008c70:	e2822602 	add	r2, r2, #2097152	; 0x200000
30008c74:	e2822c0e 	add	r2, r2, #3584	; 0xe00
30008c78:	e3a0320e 	mov	r3, #-536870912	; 0xe0000000
30008c7c:	e2833602 	add	r3, r3, #2097152	; 0x200000
30008c80:	e2833c0e 	add	r3, r3, #3584	; 0xe00
30008c84:	e5933000 	ldr	r3, [r3]
30008c88:	e3833201 	orr	r3, r3, #268435456	; 0x10000000
30008c8c:	e5823000 	str	r3, [r2]
30008c90:	e3a0320e 	mov	r3, #-536870912	; 0xe0000000
30008c94:	e2833602 	add	r3, r3, #2097152	; 0x200000
30008c98:	e2833c0f 	add	r3, r3, #3840	; 0xf00
30008c9c:	e3a02000 	mov	r2, #0
30008ca0:	e5832000 	str	r2, [r3]
30008ca4:	e3a03c0f 	mov	r3, #3840	; 0xf00
30008ca8:	e283328e 	add	r3, r3, #-536870904	; 0xe0000008
30008cac:	e2833602 	add	r3, r3, #2097152	; 0x200000
30008cb0:	e3a02000 	mov	r2, #0
30008cb4:	e5832000 	str	r2, [r3]
30008cb8:	e3a024f2 	mov	r2, #-234881024	; 0xf2000000
30008cbc:	e282200c 	add	r2, r2, #12
30008cc0:	e3a034f2 	mov	r3, #-234881024	; 0xf2000000
30008cc4:	e283300c 	add	r3, r3, #12
30008cc8:	e5933000 	ldr	r3, [r3]
30008ccc:	e3c33080 	bic	r3, r3, #128	; 0x80
30008cd0:	e5823000 	str	r3, [r2]
30008cd4:	e3a024f2 	mov	r2, #-234881024	; 0xf2000000
30008cd8:	e282200c 	add	r2, r2, #12
30008cdc:	e3a034f2 	mov	r3, #-234881024	; 0xf2000000
30008ce0:	e283300c 	add	r3, r3, #12
30008ce4:	e5933000 	ldr	r3, [r3]
30008ce8:	e3c33801 	bic	r3, r3, #65536	; 0x10000
30008cec:	e5823000 	str	r3, [r2]
30008cf0:	e3a022cf 	mov	r2, #-268435444	; 0xf000000c
30008cf4:	e2822621 	add	r2, r2, #34603008	; 0x2100000
30008cf8:	e3a032cf 	mov	r3, #-268435444	; 0xf000000c
30008cfc:	e2833621 	add	r3, r3, #34603008	; 0x2100000
30008d00:	e5933000 	ldr	r3, [r3]
30008d04:	e3c33901 	bic	r3, r3, #16384	; 0x4000
30008d08:	e5823000 	str	r3, [r2]
30008d0c:	e3a024f2 	mov	r2, #-234881024	; 0xf2000000
30008d10:	e2822010 	add	r2, r2, #16
30008d14:	e3a03801 	mov	r3, #65536	; 0x10000
30008d18:	e2833080 	add	r3, r3, #128	; 0x80
30008d1c:	e5823000 	str	r3, [r2]
30008d20:	e3a034f2 	mov	r3, #-234881024	; 0xf2000000
30008d24:	e2833601 	add	r3, r3, #1048576	; 0x100000
30008d28:	e2833010 	add	r3, r3, #16
30008d2c:	e3a02901 	mov	r2, #16384	; 0x4000
30008d30:	e5832000 	str	r2, [r3]
30008d34:	e3a034f2 	mov	r3, #-234881024	; 0xf2000000
30008d38:	e2833d05 	add	r3, r3, #320	; 0x140
30008d3c:	e59f2040 	ldr	r2, [pc, #64]	; 30008d84 <irq_init+0x16c>
30008d40:	e5832000 	str	r2, [r3]
30008d44:	e3a034f2 	mov	r3, #-234881024	; 0xf2000000
30008d48:	e2833601 	add	r3, r3, #1048576	; 0x100000
30008d4c:	e2833f4e 	add	r3, r3, #312	; 0x138
30008d50:	e59f2030 	ldr	r2, [pc, #48]	; 30008d88 <irq_init+0x170>
30008d54:	e5832000 	str	r2, [r3]
30008d58:	e3a034f2 	mov	r3, #-234881024	; 0xf2000000
30008d5c:	e2833f47 	add	r3, r3, #284	; 0x11c
30008d60:	e59f2024 	ldr	r2, [pc, #36]	; 30008d8c <irq_init+0x174>
30008d64:	e5832000 	str	r2, [r3]
30008d68:	e10f0000 	mrs	r0, CPSR
30008d6c:	e3c00080 	bic	r0, r0, #128	; 0x80
30008d70:	e121f000 	msr	CPSR_c, r0
30008d74:	e28bd000 	add	sp, fp, #0
30008d78:	e8bd0800 	ldmfd	sp!, {fp}
30008d7c:	e12fff1e 	bx	lr
30008d80:	30008050 	andcc	r8, r0, r0, asr r0
30008d84:	30008a84 	andcc	r8, r0, r4, lsl #21
30008d88:	30009648 	andcc	r9, r0, r8, asr #12
30008d8c:	3000a5f0 	strdcc	sl, [r0], -r0

30008d90 <create_page_table>:
30008d90:	e52db004 	push	{fp}		; (str fp, [sp, #-4]!)
30008d94:	e28db000 	add	fp, sp, #0
30008d98:	e24dd014 	sub	sp, sp, #20
30008d9c:	e3a03202 	mov	r3, #536870912	; 0x20000000
30008da0:	e50b3010 	str	r3, [fp, #-16]
30008da4:	e3a0320a 	mov	r3, #-1610612736	; 0xa0000000
30008da8:	e50b300c 	str	r3, [fp, #-12]
30008dac:	e3a0320e 	mov	r3, #-536870912	; 0xe0000000
30008db0:	e2833602 	add	r3, r3, #2097152	; 0x200000
30008db4:	e50b3008 	str	r3, [fp, #-8]
30008db8:	e51b300c 	ldr	r3, [fp, #-12]
30008dbc:	e1a03a23 	lsr	r3, r3, #20
30008dc0:	e1a02103 	lsl	r2, r3, #2
30008dc4:	e51b3010 	ldr	r3, [fp, #-16]
30008dc8:	e0832002 	add	r2, r3, r2
30008dcc:	e51b3008 	ldr	r3, [fp, #-8]
30008dd0:	e1a03a23 	lsr	r3, r3, #20
30008dd4:	e1a03a03 	lsl	r3, r3, #20
30008dd8:	e3833ec1 	orr	r3, r3, #3088	; 0xc10
30008ddc:	e3833002 	orr	r3, r3, #2
30008de0:	e5823000 	str	r3, [r2]
30008de4:	e3a03202 	mov	r3, #536870912	; 0x20000000
30008de8:	e50b300c 	str	r3, [fp, #-12]
30008dec:	e3a03202 	mov	r3, #536870912	; 0x20000000
30008df0:	e50b3008 	str	r3, [fp, #-8]
30008df4:	ea000010 	b	30008e3c <create_page_table+0xac>
30008df8:	e51b300c 	ldr	r3, [fp, #-12]
30008dfc:	e1a03a23 	lsr	r3, r3, #20
30008e00:	e1a02103 	lsl	r2, r3, #2
30008e04:	e51b3010 	ldr	r3, [fp, #-16]
30008e08:	e0832002 	add	r2, r3, r2
30008e0c:	e51b3008 	ldr	r3, [fp, #-8]
30008e10:	e1a03a23 	lsr	r3, r3, #20
30008e14:	e1a03a03 	lsl	r3, r3, #20
30008e18:	e3833ec1 	orr	r3, r3, #3088	; 0xc10
30008e1c:	e383300e 	orr	r3, r3, #14
30008e20:	e5823000 	str	r3, [r2]
30008e24:	e51b300c 	ldr	r3, [fp, #-12]
30008e28:	e2833601 	add	r3, r3, #1048576	; 0x100000
30008e2c:	e50b300c 	str	r3, [fp, #-12]
30008e30:	e51b3008 	ldr	r3, [fp, #-8]
30008e34:	e2833601 	add	r3, r3, #1048576	; 0x100000
30008e38:	e50b3008 	str	r3, [fp, #-8]
30008e3c:	e51b300c 	ldr	r3, [fp, #-12]
30008e40:	e3730377 	cmn	r3, #-603979775	; 0xdc000001
30008e44:	9affffeb 	bls	30008df8 <create_page_table+0x68>
30008e48:	e28bd000 	add	sp, fp, #0
30008e4c:	e8bd0800 	ldmfd	sp!, {fp}
30008e50:	e12fff1e 	bx	lr

30008e54 <mmu_enable>:
30008e54:	e52db004 	push	{fp}		; (str fp, [sp, #-4]!)
30008e58:	e28db000 	add	fp, sp, #0
30008e5c:	e3a00202 	mov	r0, #536870912	; 0x20000000
30008e60:	ee020f10 	mcr	15, 0, r0, cr2, cr0, {0}
30008e64:	e3e00000 	mvn	r0, #0
30008e68:	ee030f10 	mcr	15, 0, r0, cr3, cr0, {0}
30008e6c:	ee110f10 	mrc	15, 0, r0, cr1, cr0, {0}
30008e70:	e3800001 	orr	r0, r0, #1
30008e74:	ee010f10 	mcr	15, 0, r0, cr1, cr0, {0}
30008e78:	e28bd000 	add	sp, fp, #0
30008e7c:	e8bd0800 	ldmfd	sp!, {fp}
30008e80:	e12fff1e 	bx	lr

30008e84 <mmu_init>:
30008e84:	e92d4800 	push	{fp, lr}
30008e88:	e28db004 	add	fp, sp, #4
30008e8c:	ebffffbf 	bl	30008d90 <create_page_table>
30008e90:	ebffffef 	bl	30008e54 <mmu_enable>
30008e94:	e24bd004 	sub	sp, fp, #4
30008e98:	e8bd4800 	pop	{fp, lr}
30008e9c:	e12fff1e 	bx	lr

30008ea0 <mmu_demo>:
30008ea0:	e92d4800 	push	{fp, lr}
30008ea4:	e28db004 	add	fp, sp, #4
30008ea8:	ebfffff5 	bl	30008e84 <mmu_init>
30008eac:	e3a0220a 	mov	r2, #-1610612736	; 0xa0000000
30008eb0:	e2822d0a 	add	r2, r2, #640	; 0x280
30008eb4:	e3a03c11 	mov	r3, #4352	; 0x1100
30008eb8:	e2833011 	add	r3, r3, #17
30008ebc:	e5823000 	str	r3, [r2]
30008ec0:	e3a0320a 	mov	r3, #-1610612736	; 0xa0000000
30008ec4:	e2833fa1 	add	r3, r3, #644	; 0x284
30008ec8:	e3a0200a 	mov	r2, #10
30008ecc:	e5832000 	str	r2, [r3]
30008ed0:	e3a03000 	mov	r3, #0
30008ed4:	e1a00003 	mov	r0, r3
30008ed8:	e24bd004 	sub	sp, fp, #4
30008edc:	e8bd4800 	pop	{fp, lr}
30008ee0:	e12fff1e 	bx	lr

30008ee4 <uart0_init>:
30008ee4:	e52db004 	push	{fp}		; (str fp, [sp, #-4]!)
30008ee8:	e28db000 	add	fp, sp, #0
30008eec:	e3a0220e 	mov	r2, #-536870912	; 0xe0000000
30008ef0:	e2822602 	add	r2, r2, #2097152	; 0x200000
30008ef4:	e3a0320e 	mov	r3, #-536870912	; 0xe0000000
30008ef8:	e2833602 	add	r3, r3, #2097152	; 0x200000
30008efc:	e5933000 	ldr	r3, [r3]
30008f00:	e3833022 	orr	r3, r3, #34	; 0x22
30008f04:	e5823000 	str	r3, [r2]
30008f08:	e3a024e2 	mov	r2, #-503316480	; 0xe2000000
30008f0c:	e2822609 	add	r2, r2, #9437184	; 0x900000
30008f10:	e3a034e2 	mov	r3, #-503316480	; 0xe2000000
30008f14:	e2833609 	add	r3, r3, #9437184	; 0x900000
30008f18:	e5933000 	ldr	r3, [r3]
30008f1c:	e3833003 	orr	r3, r3, #3
30008f20:	e5823000 	str	r3, [r2]
30008f24:	e3a0224e 	mov	r2, #-536870908	; 0xe0000004
30008f28:	e2822629 	add	r2, r2, #42991616	; 0x2900000
30008f2c:	e3a0324e 	mov	r3, #-536870908	; 0xe0000004
30008f30:	e2833629 	add	r3, r3, #42991616	; 0x2900000
30008f34:	e5933000 	ldr	r3, [r3]
30008f38:	e3833005 	orr	r3, r3, #5
30008f3c:	e5823000 	str	r3, [r2]
30008f40:	e3a0228e 	mov	r2, #-536870904	; 0xe0000008
30008f44:	e2822629 	add	r2, r2, #42991616	; 0x2900000
30008f48:	e3a0328e 	mov	r3, #-536870904	; 0xe0000008
30008f4c:	e2833629 	add	r3, r3, #42991616	; 0x2900000
30008f50:	e5933000 	ldr	r3, [r3]
30008f54:	e5823000 	str	r3, [r2]
30008f58:	e3a022ce 	mov	r2, #-536870900	; 0xe000000c
30008f5c:	e2822629 	add	r2, r2, #42991616	; 0x2900000
30008f60:	e3a032ce 	mov	r3, #-536870900	; 0xe000000c
30008f64:	e2833629 	add	r3, r3, #42991616	; 0x2900000
30008f68:	e5933000 	ldr	r3, [r3]
30008f6c:	e5823000 	str	r3, [r2]
30008f70:	e3a034e2 	mov	r3, #-503316480	; 0xe2000000
30008f74:	e2833609 	add	r3, r3, #9437184	; 0x900000
30008f78:	e2833028 	add	r3, r3, #40	; 0x28
30008f7c:	e3a02023 	mov	r2, #35	; 0x23
30008f80:	e5832000 	str	r2, [r3]
30008f84:	e3a024e2 	mov	r2, #-503316480	; 0xe2000000
30008f88:	e2822609 	add	r2, r2, #9437184	; 0x900000
30008f8c:	e282202c 	add	r2, r2, #44	; 0x2c
30008f90:	e3a03d22 	mov	r3, #2176	; 0x880
30008f94:	e2833008 	add	r3, r3, #8
30008f98:	e5823000 	str	r3, [r2]
30008f9c:	e28bd000 	add	sp, fp, #0
30008fa0:	e8bd0800 	ldmfd	sp!, {fp}
30008fa4:	e12fff1e 	bx	lr

30008fa8 <uart0_sendbyte>:
30008fa8:	e52db004 	push	{fp}		; (str fp, [sp, #-4]!)
30008fac:	e28db000 	add	fp, sp, #0
30008fb0:	e24dd00c 	sub	sp, sp, #12
30008fb4:	e1a03000 	mov	r3, r0
30008fb8:	e54b3005 	strb	r3, [fp, #-5]
30008fbc:	e3a034e2 	mov	r3, #-503316480	; 0xe2000000
30008fc0:	e2833609 	add	r3, r3, #9437184	; 0x900000
30008fc4:	e2833010 	add	r3, r3, #16
30008fc8:	e5933000 	ldr	r3, [r3]
30008fcc:	e2033004 	and	r3, r3, #4
30008fd0:	e3530000 	cmp	r3, #0
30008fd4:	0afffff8 	beq	30008fbc <uart0_sendbyte+0x14>
30008fd8:	e3a034e2 	mov	r3, #-503316480	; 0xe2000000
30008fdc:	e2833609 	add	r3, r3, #9437184	; 0x900000
30008fe0:	e2833020 	add	r3, r3, #32
30008fe4:	e55b2005 	ldrb	r2, [fp, #-5]
30008fe8:	e5832000 	str	r2, [r3]
30008fec:	e28bd000 	add	sp, fp, #0
30008ff0:	e8bd0800 	ldmfd	sp!, {fp}
30008ff4:	e12fff1e 	bx	lr

30008ff8 <uart0_getbyte>:
30008ff8:	e52db004 	push	{fp}		; (str fp, [sp, #-4]!)
30008ffc:	e28db000 	add	fp, sp, #0
30009000:	e3a034e2 	mov	r3, #-503316480	; 0xe2000000
30009004:	e2833609 	add	r3, r3, #9437184	; 0x900000
30009008:	e2833010 	add	r3, r3, #16
3000900c:	e5933000 	ldr	r3, [r3]
30009010:	e2033001 	and	r3, r3, #1
30009014:	e3530000 	cmp	r3, #0
30009018:	0afffff8 	beq	30009000 <uart0_getbyte+0x8>
3000901c:	e3a034e2 	mov	r3, #-503316480	; 0xe2000000
30009020:	e2833609 	add	r3, r3, #9437184	; 0x900000
30009024:	e2833024 	add	r3, r3, #36	; 0x24
30009028:	e5933000 	ldr	r3, [r3]
3000902c:	e1a00003 	mov	r0, r3
30009030:	e28bd000 	add	sp, fp, #0
30009034:	e8bd0800 	ldmfd	sp!, {fp}
30009038:	e12fff1e 	bx	lr

3000903c <select_NFchip>:
3000903c:	e52db004 	push	{fp}		; (str fp, [sp, #-4]!)
30009040:	e28db000 	add	fp, sp, #0
30009044:	e3a0224b 	mov	r2, #-1342177276	; 0xb0000004
30009048:	e282260e 	add	r2, r2, #14680064	; 0xe00000
3000904c:	e3a0324b 	mov	r3, #-1342177276	; 0xb0000004
30009050:	e283360e 	add	r3, r3, #14680064	; 0xe00000
30009054:	e5933000 	ldr	r3, [r3]
30009058:	e3c33002 	bic	r3, r3, #2
3000905c:	e5823000 	str	r3, [r2]
30009060:	e28bd000 	add	sp, fp, #0
30009064:	e8bd0800 	ldmfd	sp!, {fp}
30009068:	e12fff1e 	bx	lr

3000906c <deselect_NFchip>:
3000906c:	e52db004 	push	{fp}		; (str fp, [sp, #-4]!)
30009070:	e28db000 	add	fp, sp, #0
30009074:	e3a0224b 	mov	r2, #-1342177276	; 0xb0000004
30009078:	e282260e 	add	r2, r2, #14680064	; 0xe00000
3000907c:	e3a0324b 	mov	r3, #-1342177276	; 0xb0000004
30009080:	e283360e 	add	r3, r3, #14680064	; 0xe00000
30009084:	e5933000 	ldr	r3, [r3]
30009088:	e3833002 	orr	r3, r3, #2
3000908c:	e5823000 	str	r3, [r2]
30009090:	e28bd000 	add	sp, fp, #0
30009094:	e8bd0800 	ldmfd	sp!, {fp}
30009098:	e12fff1e 	bx	lr

3000909c <clear_detect_RnB>:
3000909c:	e52db004 	push	{fp}		; (str fp, [sp, #-4]!)
300090a0:	e28db000 	add	fp, sp, #0
300090a4:	e3a0220b 	mov	r2, #-1342177280	; 0xb0000000
300090a8:	e282260e 	add	r2, r2, #14680064	; 0xe00000
300090ac:	e2822028 	add	r2, r2, #40	; 0x28
300090b0:	e3a0320b 	mov	r3, #-1342177280	; 0xb0000000
300090b4:	e283360e 	add	r3, r3, #14680064	; 0xe00000
300090b8:	e2833028 	add	r3, r3, #40	; 0x28
300090bc:	e5933000 	ldr	r3, [r3]
300090c0:	e3833010 	orr	r3, r3, #16
300090c4:	e5823000 	str	r3, [r2]
300090c8:	e28bd000 	add	sp, fp, #0
300090cc:	e8bd0800 	ldmfd	sp!, {fp}
300090d0:	e12fff1e 	bx	lr

300090d4 <NF_send_cmd>:
300090d4:	e52db004 	push	{fp}		; (str fp, [sp, #-4]!)
300090d8:	e28db000 	add	fp, sp, #0
300090dc:	e24dd00c 	sub	sp, sp, #12
300090e0:	e1a03000 	mov	r3, r0
300090e4:	e54b3005 	strb	r3, [fp, #-5]
300090e8:	e3a0328b 	mov	r3, #-1342177272	; 0xb0000008
300090ec:	e283360e 	add	r3, r3, #14680064	; 0xe00000
300090f0:	e55b2005 	ldrb	r2, [fp, #-5]
300090f4:	e5c32000 	strb	r2, [r3]
300090f8:	e28bd000 	add	sp, fp, #0
300090fc:	e8bd0800 	ldmfd	sp!, {fp}
30009100:	e12fff1e 	bx	lr

30009104 <NF_send_addr>:
30009104:	e52db004 	push	{fp}		; (str fp, [sp, #-4]!)
30009108:	e28db000 	add	fp, sp, #0
3000910c:	e24dd00c 	sub	sp, sp, #12
30009110:	e50b0008 	str	r0, [fp, #-8]
30009114:	e3a032cb 	mov	r3, #-1342177268	; 0xb000000c
30009118:	e283360e 	add	r3, r3, #14680064	; 0xe00000
3000911c:	e3a02000 	mov	r2, #0
30009120:	e5c32000 	strb	r2, [r3]
30009124:	e3a032cb 	mov	r3, #-1342177268	; 0xb000000c
30009128:	e283360e 	add	r3, r3, #14680064	; 0xe00000
3000912c:	e3a02000 	mov	r2, #0
30009130:	e5c32000 	strb	r2, [r3]
30009134:	e3a022cb 	mov	r2, #-1342177268	; 0xb000000c
30009138:	e282260e 	add	r2, r2, #14680064	; 0xe00000
3000913c:	e51b3008 	ldr	r3, [fp, #-8]
30009140:	e20330ff 	and	r3, r3, #255	; 0xff
30009144:	e5c23000 	strb	r3, [r2]
30009148:	e3a022cb 	mov	r2, #-1342177268	; 0xb000000c
3000914c:	e282260e 	add	r2, r2, #14680064	; 0xe00000
30009150:	e51b3008 	ldr	r3, [fp, #-8]
30009154:	e1a03423 	lsr	r3, r3, #8
30009158:	e20330ff 	and	r3, r3, #255	; 0xff
3000915c:	e5c23000 	strb	r3, [r2]
30009160:	e3a022cb 	mov	r2, #-1342177268	; 0xb000000c
30009164:	e282260e 	add	r2, r2, #14680064	; 0xe00000
30009168:	e51b3008 	ldr	r3, [fp, #-8]
3000916c:	e1a03823 	lsr	r3, r3, #16
30009170:	e20330ff 	and	r3, r3, #255	; 0xff
30009174:	e5c23000 	strb	r3, [r2]
30009178:	e28bd000 	add	sp, fp, #0
3000917c:	e8bd0800 	ldmfd	sp!, {fp}
30009180:	e12fff1e 	bx	lr

30009184 <wait_RnB>:
30009184:	e52db004 	push	{fp}		; (str fp, [sp, #-4]!)
30009188:	e28db000 	add	fp, sp, #0
3000918c:	e3a0320b 	mov	r3, #-1342177280	; 0xb0000000
30009190:	e283360e 	add	r3, r3, #14680064	; 0xe00000
30009194:	e2833028 	add	r3, r3, #40	; 0x28
30009198:	e5933000 	ldr	r3, [r3]
3000919c:	e2033010 	and	r3, r3, #16
300091a0:	e3530000 	cmp	r3, #0
300091a4:	0afffff8 	beq	3000918c <wait_RnB+0x8>
300091a8:	e28bd000 	add	sp, fp, #0
300091ac:	e8bd0800 	ldmfd	sp!, {fp}
300091b0:	e12fff1e 	bx	lr

300091b4 <NF_reset>:
300091b4:	e92d4800 	push	{fp, lr}
300091b8:	e28db004 	add	fp, sp, #4
300091bc:	ebffff9e 	bl	3000903c <select_NFchip>
300091c0:	ebffffb5 	bl	3000909c <clear_detect_RnB>
300091c4:	e3a000ff 	mov	r0, #255	; 0xff
300091c8:	ebffffc1 	bl	300090d4 <NF_send_cmd>
300091cc:	ebffffec 	bl	30009184 <wait_RnB>
300091d0:	ebffffa5 	bl	3000906c <deselect_NFchip>
300091d4:	e24bd004 	sub	sp, fp, #4
300091d8:	e8bd4800 	pop	{fp, lr}
300091dc:	e12fff1e 	bx	lr

300091e0 <nand_init>:
300091e0:	e92d4800 	push	{fp, lr}
300091e4:	e28db004 	add	fp, sp, #4
300091e8:	e3a0220b 	mov	r2, #-1342177280	; 0xb0000000
300091ec:	e282260e 	add	r2, r2, #14680064	; 0xe00000
300091f0:	e3a0320b 	mov	r3, #-1342177280	; 0xb0000000
300091f4:	e283360e 	add	r3, r3, #14680064	; 0xe00000
300091f8:	e5933000 	ldr	r3, [r3]
300091fc:	e3833c77 	orr	r3, r3, #30464	; 0x7700
30009200:	e3833072 	orr	r3, r3, #114	; 0x72
30009204:	e5823000 	str	r3, [r2]
30009208:	e3a0224b 	mov	r2, #-1342177276	; 0xb0000004
3000920c:	e282260e 	add	r2, r2, #14680064	; 0xe00000
30009210:	e3a0324b 	mov	r3, #-1342177276	; 0xb0000004
30009214:	e283360e 	add	r3, r3, #14680064	; 0xe00000
30009218:	e5933000 	ldr	r3, [r3]
3000921c:	e3833001 	orr	r3, r3, #1
30009220:	e5823000 	str	r3, [r2]
30009224:	ebffffe2 	bl	300091b4 <NF_reset>
30009228:	e24bd004 	sub	sp, fp, #4
3000922c:	e8bd4800 	pop	{fp, lr}
30009230:	e12fff1e 	bx	lr

30009234 <NF_page_read>:
30009234:	e92d4800 	push	{fp, lr}
30009238:	e28db004 	add	fp, sp, #4
3000923c:	e24dd010 	sub	sp, sp, #16
30009240:	e50b0010 	str	r0, [fp, #-16]
30009244:	e50b1014 	str	r1, [fp, #-20]	; 0xffffffec
30009248:	ebffff7b 	bl	3000903c <select_NFchip>
3000924c:	ebffff92 	bl	3000909c <clear_detect_RnB>
30009250:	e3a00000 	mov	r0, #0
30009254:	ebffff9e 	bl	300090d4 <NF_send_cmd>
30009258:	e51b0010 	ldr	r0, [fp, #-16]
3000925c:	ebffffa8 	bl	30009104 <NF_send_addr>
30009260:	e3a00030 	mov	r0, #48	; 0x30
30009264:	ebffff9a 	bl	300090d4 <NF_send_cmd>
30009268:	ebffffc5 	bl	30009184 <wait_RnB>
3000926c:	e3a03000 	mov	r3, #0
30009270:	e50b3008 	str	r3, [fp, #-8]
30009274:	ea00000c 	b	300092ac <NF_page_read+0x78>
30009278:	e3a0320b 	mov	r3, #-1342177280	; 0xb0000000
3000927c:	e283360e 	add	r3, r3, #14680064	; 0xe00000
30009280:	e2833010 	add	r3, r3, #16
30009284:	e5d33000 	ldrb	r3, [r3]
30009288:	e20330ff 	and	r3, r3, #255	; 0xff
3000928c:	e51b2014 	ldr	r2, [fp, #-20]	; 0xffffffec
30009290:	e5c23000 	strb	r3, [r2]
30009294:	e51b3014 	ldr	r3, [fp, #-20]	; 0xffffffec
30009298:	e2833001 	add	r3, r3, #1
3000929c:	e50b3014 	str	r3, [fp, #-20]	; 0xffffffec
300092a0:	e51b3008 	ldr	r3, [fp, #-8]
300092a4:	e2833001 	add	r3, r3, #1
300092a8:	e50b3008 	str	r3, [fp, #-8]
300092ac:	e51b2008 	ldr	r2, [fp, #-8]
300092b0:	e3a03e7f 	mov	r3, #2032	; 0x7f0
300092b4:	e283300f 	add	r3, r3, #15
300092b8:	e1520003 	cmp	r2, r3
300092bc:	daffffed 	ble	30009278 <NF_page_read+0x44>
300092c0:	ebffff69 	bl	3000906c <deselect_NFchip>
300092c4:	e24bd004 	sub	sp, fp, #4
300092c8:	e8bd4800 	pop	{fp, lr}
300092cc:	e12fff1e 	bx	lr

300092d0 <nand_to_ram>:
300092d0:	e92d4800 	push	{fp, lr}
300092d4:	e28db004 	add	fp, sp, #4
300092d8:	e24dd018 	sub	sp, sp, #24
300092dc:	e50b0010 	str	r0, [fp, #-16]
300092e0:	e50b1014 	str	r1, [fp, #-20]	; 0xffffffec
300092e4:	e50b2018 	str	r2, [fp, #-24]	; 0xffffffe8
300092e8:	e3a0300b 	mov	r3, #11
300092ec:	e50b3008 	str	r3, [fp, #-8]
300092f0:	e51b2008 	ldr	r2, [fp, #-8]
300092f4:	e51b3010 	ldr	r3, [fp, #-16]
300092f8:	e1a03233 	lsr	r3, r3, r2
300092fc:	e50b300c 	str	r3, [fp, #-12]
30009300:	ea00000c 	b	30009338 <nand_to_ram+0x68>
30009304:	e51b300c 	ldr	r3, [fp, #-12]
30009308:	e1a00003 	mov	r0, r3
3000930c:	e51b1014 	ldr	r1, [fp, #-20]	; 0xffffffec
30009310:	ebffffc7 	bl	30009234 <NF_page_read>
30009314:	e51b3018 	ldr	r3, [fp, #-24]	; 0xffffffe8
30009318:	e2433b02 	sub	r3, r3, #2048	; 0x800
3000931c:	e50b3018 	str	r3, [fp, #-24]	; 0xffffffe8
30009320:	e51b3014 	ldr	r3, [fp, #-20]	; 0xffffffec
30009324:	e2833b02 	add	r3, r3, #2048	; 0x800
30009328:	e50b3014 	str	r3, [fp, #-20]	; 0xffffffec
3000932c:	e51b300c 	ldr	r3, [fp, #-12]
30009330:	e2833001 	add	r3, r3, #1
30009334:	e50b300c 	str	r3, [fp, #-12]
30009338:	e51b3018 	ldr	r3, [fp, #-24]	; 0xffffffe8
3000933c:	e3530000 	cmp	r3, #0
30009340:	caffffef 	bgt	30009304 <nand_to_ram+0x34>
30009344:	e24bd004 	sub	sp, fp, #4
30009348:	e8bd4800 	pop	{fp, lr}
3000934c:	e12fff1e 	bx	lr

30009350 <NF_block_erase>:
30009350:	e92d4800 	push	{fp, lr}
30009354:	e28db004 	add	fp, sp, #4
30009358:	e24dd010 	sub	sp, sp, #16
3000935c:	e50b0010 	str	r0, [fp, #-16]
30009360:	ebffff35 	bl	3000903c <select_NFchip>
30009364:	ebffff4c 	bl	3000909c <clear_detect_RnB>
30009368:	e3a00060 	mov	r0, #96	; 0x60
3000936c:	ebffff58 	bl	300090d4 <NF_send_cmd>
30009370:	e3a022cb 	mov	r2, #-1342177268	; 0xb000000c
30009374:	e282260e 	add	r2, r2, #14680064	; 0xe00000
30009378:	e51b3010 	ldr	r3, [fp, #-16]
3000937c:	e20330ff 	and	r3, r3, #255	; 0xff
30009380:	e5c23000 	strb	r3, [r2]
30009384:	e3a022cb 	mov	r2, #-1342177268	; 0xb000000c
30009388:	e282260e 	add	r2, r2, #14680064	; 0xe00000
3000938c:	e51b3010 	ldr	r3, [fp, #-16]
30009390:	e1a03423 	lsr	r3, r3, #8
30009394:	e20330ff 	and	r3, r3, #255	; 0xff
30009398:	e5c23000 	strb	r3, [r2]
3000939c:	e3a022cb 	mov	r2, #-1342177268	; 0xb000000c
300093a0:	e282260e 	add	r2, r2, #14680064	; 0xe00000
300093a4:	e51b3010 	ldr	r3, [fp, #-16]
300093a8:	e1a03823 	lsr	r3, r3, #16
300093ac:	e20330ff 	and	r3, r3, #255	; 0xff
300093b0:	e5c23000 	strb	r3, [r2]
300093b4:	e3a000d0 	mov	r0, #208	; 0xd0
300093b8:	ebffff45 	bl	300090d4 <NF_send_cmd>
300093bc:	ebffff70 	bl	30009184 <wait_RnB>
300093c0:	e3a00070 	mov	r0, #112	; 0x70
300093c4:	ebffff42 	bl	300090d4 <NF_send_cmd>
300093c8:	e3a0320b 	mov	r3, #-1342177280	; 0xb0000000
300093cc:	e283360e 	add	r3, r3, #14680064	; 0xe00000
300093d0:	e2833010 	add	r3, r3, #16
300093d4:	e5d33000 	ldrb	r3, [r3]
300093d8:	e20330ff 	and	r3, r3, #255	; 0xff
300093dc:	e50b3008 	str	r3, [fp, #-8]
300093e0:	ebffff21 	bl	3000906c <deselect_NFchip>
300093e4:	e51b3008 	ldr	r3, [fp, #-8]
300093e8:	e1a00003 	mov	r0, r3
300093ec:	e24bd004 	sub	sp, fp, #4
300093f0:	e8bd4800 	pop	{fp, lr}
300093f4:	e12fff1e 	bx	lr

300093f8 <NF_page_program>:
300093f8:	e92d4800 	push	{fp, lr}
300093fc:	e28db004 	add	fp, sp, #4
30009400:	e24dd010 	sub	sp, sp, #16
30009404:	e50b0010 	str	r0, [fp, #-16]
30009408:	e50b1014 	str	r1, [fp, #-20]	; 0xffffffec
3000940c:	ebffff0a 	bl	3000903c <select_NFchip>
30009410:	ebffff21 	bl	3000909c <clear_detect_RnB>
30009414:	e3a00080 	mov	r0, #128	; 0x80
30009418:	ebffff2d 	bl	300090d4 <NF_send_cmd>
3000941c:	e51b0010 	ldr	r0, [fp, #-16]
30009420:	ebffff37 	bl	30009104 <NF_send_addr>
30009424:	e3a03000 	mov	r3, #0
30009428:	e50b3008 	str	r3, [fp, #-8]
3000942c:	ea00000a 	b	3000945c <NF_page_program+0x64>
30009430:	e3a0220b 	mov	r2, #-1342177280	; 0xb0000000
30009434:	e282260e 	add	r2, r2, #14680064	; 0xe00000
30009438:	e2822010 	add	r2, r2, #16
3000943c:	e51b1008 	ldr	r1, [fp, #-8]
30009440:	e51b3014 	ldr	r3, [fp, #-20]	; 0xffffffec
30009444:	e0833001 	add	r3, r3, r1
30009448:	e5d33000 	ldrb	r3, [r3]
3000944c:	e5c23000 	strb	r3, [r2]
30009450:	e51b3008 	ldr	r3, [fp, #-8]
30009454:	e2833001 	add	r3, r3, #1
30009458:	e50b3008 	str	r3, [fp, #-8]
3000945c:	e51b2008 	ldr	r2, [fp, #-8]
30009460:	e3a03e7f 	mov	r3, #2032	; 0x7f0
30009464:	e283300f 	add	r3, r3, #15
30009468:	e1520003 	cmp	r2, r3
3000946c:	daffffef 	ble	30009430 <NF_page_program+0x38>
30009470:	e3a00010 	mov	r0, #16
30009474:	ebffff16 	bl	300090d4 <NF_send_cmd>
30009478:	ebffff41 	bl	30009184 <wait_RnB>
3000947c:	e3a00070 	mov	r0, #112	; 0x70
30009480:	ebffff13 	bl	300090d4 <NF_send_cmd>
30009484:	e3a0320b 	mov	r3, #-1342177280	; 0xb0000000
30009488:	e283360e 	add	r3, r3, #14680064	; 0xe00000
3000948c:	e2833010 	add	r3, r3, #16
30009490:	e5d33000 	ldrb	r3, [r3]
30009494:	e20330ff 	and	r3, r3, #255	; 0xff
30009498:	e50b300c 	str	r3, [fp, #-12]
3000949c:	ebfffef2 	bl	3000906c <deselect_NFchip>
300094a0:	e51b300c 	ldr	r3, [fp, #-12]
300094a4:	e1a00003 	mov	r0, r3
300094a8:	e24bd004 	sub	sp, fp, #4
300094ac:	e8bd4800 	pop	{fp, lr}
300094b0:	e12fff1e 	bx	lr

300094b4 <i2c0_init>:
300094b4:	e52db004 	push	{fp}		; (str fp, [sp, #-4]!)
300094b8:	e28db000 	add	fp, sp, #0
300094bc:	e3a0220e 	mov	r2, #-536870912	; 0xe0000000
300094c0:	e2822602 	add	r2, r2, #2097152	; 0x200000
300094c4:	e28220c0 	add	r2, r2, #192	; 0xc0
300094c8:	e3a0320e 	mov	r3, #-536870912	; 0xe0000000
300094cc:	e2833602 	add	r3, r3, #2097152	; 0x200000
300094d0:	e28330c0 	add	r3, r3, #192	; 0xc0
300094d4:	e5933000 	ldr	r3, [r3]
300094d8:	e3833022 	orr	r3, r3, #34	; 0x22
300094dc:	e5823000 	str	r3, [r2]
300094e0:	e3a0220e 	mov	r2, #-536870912	; 0xe0000000
300094e4:	e2822602 	add	r2, r2, #2097152	; 0x200000
300094e8:	e28220c8 	add	r2, r2, #200	; 0xc8
300094ec:	e3a0320e 	mov	r3, #-536870912	; 0xe0000000
300094f0:	e2833602 	add	r3, r3, #2097152	; 0x200000
300094f4:	e28330c8 	add	r3, r3, #200	; 0xc8
300094f8:	e5933000 	ldr	r3, [r3]
300094fc:	e3833005 	orr	r3, r3, #5
30009500:	e5823000 	str	r3, [r2]
30009504:	e3a03486 	mov	r3, #-2046820352	; 0x86000000
30009508:	e1a03143 	asr	r3, r3, #2
3000950c:	e3a020af 	mov	r2, #175	; 0xaf
30009510:	e5832000 	str	r2, [r3]
30009514:	e3a0324e 	mov	r3, #-536870908	; 0xe0000004
30009518:	e2833506 	add	r3, r3, #25165824	; 0x1800000
3000951c:	e3a02010 	mov	r2, #16
30009520:	e5832000 	str	r2, [r3]
30009524:	e28bd000 	add	sp, fp, #0
30009528:	e8bd0800 	ldmfd	sp!, {fp}
3000952c:	e12fff1e 	bx	lr

30009530 <i2c0_write>:
30009530:	e52db004 	push	{fp}		; (str fp, [sp, #-4]!)
30009534:	e28db000 	add	fp, sp, #0
30009538:	e24dd014 	sub	sp, sp, #20
3000953c:	e1a03000 	mov	r3, r0
30009540:	e50b100c 	str	r1, [fp, #-12]
30009544:	e50b2010 	str	r2, [fp, #-16]
30009548:	e54b3005 	strb	r3, [fp, #-5]
3000954c:	e59f2064 	ldr	r2, [pc, #100]	; 300095b8 <i2c0_write+0x88>
30009550:	e51b300c 	ldr	r3, [fp, #-12]
30009554:	e5823000 	str	r3, [r2]
30009558:	e59f2058 	ldr	r2, [pc, #88]	; 300095b8 <i2c0_write+0x88>
3000955c:	e51b3010 	ldr	r3, [fp, #-16]
30009560:	e5823004 	str	r3, [r2, #4]
30009564:	e59f204c 	ldr	r2, [pc, #76]	; 300095b8 <i2c0_write+0x88>
30009568:	e3a03001 	mov	r3, #1
3000956c:	e5823008 	str	r3, [r2, #8]
30009570:	e59f2040 	ldr	r2, [pc, #64]	; 300095b8 <i2c0_write+0x88>
30009574:	e3a03000 	mov	r3, #0
30009578:	e582300c 	str	r3, [r2, #12]
3000957c:	e3a032ce 	mov	r3, #-536870900	; 0xe000000c
30009580:	e2833506 	add	r3, r3, #25165824	; 0x1800000
30009584:	e55b2005 	ldrb	r2, [fp, #-5]
30009588:	e5c32000 	strb	r2, [r3]
3000958c:	e3a0324e 	mov	r3, #-536870908	; 0xe0000004
30009590:	e2833506 	add	r3, r3, #25165824	; 0x1800000
30009594:	e3a020f0 	mov	r2, #240	; 0xf0
30009598:	e5832000 	str	r2, [r3]
3000959c:	e59f3014 	ldr	r3, [pc, #20]	; 300095b8 <i2c0_write+0x88>
300095a0:	e5933004 	ldr	r3, [r3, #4]
300095a4:	e3730001 	cmn	r3, #1
300095a8:	1afffffb 	bne	3000959c <i2c0_write+0x6c>
300095ac:	e28bd000 	add	sp, fp, #0
300095b0:	e8bd0800 	ldmfd	sp!, {fp}
300095b4:	e12fff1e 	bx	lr
300095b8:	300103ac 	andcc	r0, r1, ip, lsr #7

300095bc <i2c0_read>:
300095bc:	e52db004 	push	{fp}		; (str fp, [sp, #-4]!)
300095c0:	e28db000 	add	fp, sp, #0
300095c4:	e24dd014 	sub	sp, sp, #20
300095c8:	e1a03000 	mov	r3, r0
300095cc:	e50b100c 	str	r1, [fp, #-12]
300095d0:	e50b2010 	str	r2, [fp, #-16]
300095d4:	e54b3005 	strb	r3, [fp, #-5]
300095d8:	e59f2064 	ldr	r2, [pc, #100]	; 30009644 <i2c0_read+0x88>
300095dc:	e51b300c 	ldr	r3, [fp, #-12]
300095e0:	e5823000 	str	r3, [r2]
300095e4:	e59f2058 	ldr	r2, [pc, #88]	; 30009644 <i2c0_read+0x88>
300095e8:	e51b3010 	ldr	r3, [fp, #-16]
300095ec:	e5823004 	str	r3, [r2, #4]
300095f0:	e59f204c 	ldr	r2, [pc, #76]	; 30009644 <i2c0_read+0x88>
300095f4:	e3a03002 	mov	r3, #2
300095f8:	e5823008 	str	r3, [r2, #8]
300095fc:	e59f2040 	ldr	r2, [pc, #64]	; 30009644 <i2c0_read+0x88>
30009600:	e3e03000 	mvn	r3, #0
30009604:	e582300c 	str	r3, [r2, #12]
30009608:	e3a032ce 	mov	r3, #-536870900	; 0xe000000c
3000960c:	e2833506 	add	r3, r3, #25165824	; 0x1800000
30009610:	e55b2005 	ldrb	r2, [fp, #-5]
30009614:	e5c32000 	strb	r2, [r3]
30009618:	e3a0324e 	mov	r3, #-536870908	; 0xe0000004
3000961c:	e2833506 	add	r3, r3, #25165824	; 0x1800000
30009620:	e3a020b0 	mov	r2, #176	; 0xb0
30009624:	e5832000 	str	r2, [r3]
30009628:	e59f3014 	ldr	r3, [pc, #20]	; 30009644 <i2c0_read+0x88>
3000962c:	e5933004 	ldr	r3, [r3, #4]
30009630:	e3530000 	cmp	r3, #0
30009634:	1afffffb 	bne	30009628 <i2c0_read+0x6c>
30009638:	e28bd000 	add	sp, fp, #0
3000963c:	e8bd0800 	ldmfd	sp!, {fp}
30009640:	e12fff1e 	bx	lr
30009644:	300103ac 	andcc	r0, r1, ip, lsr #7

30009648 <i2c0_isr>:
30009648:	e92d4800 	push	{fp, lr}
3000964c:	e28db004 	add	fp, sp, #4
30009650:	e24dd010 	sub	sp, sp, #16
30009654:	e59f3270 	ldr	r3, [pc, #624]	; 300098cc <i2c0_isr+0x284>
30009658:	e5933008 	ldr	r3, [r3, #8]
3000965c:	e50b3010 	str	r3, [fp, #-16]
30009660:	e51b3010 	ldr	r3, [fp, #-16]
30009664:	e3530001 	cmp	r3, #1
30009668:	0a000003 	beq	3000967c <i2c0_isr+0x34>
3000966c:	e51b3010 	ldr	r3, [fp, #-16]
30009670:	e3530002 	cmp	r3, #2
30009674:	0a000032 	beq	30009744 <i2c0_isr+0xfc>
30009678:	ea000076 	b	30009858 <i2c0_isr+0x210>
3000967c:	e59f3248 	ldr	r3, [pc, #584]	; 300098cc <i2c0_isr+0x284>
30009680:	e5932004 	ldr	r2, [r3, #4]
30009684:	e3520000 	cmp	r2, #0
30009688:	13a03000 	movne	r3, #0
3000968c:	03a03001 	moveq	r3, #1
30009690:	e20310ff 	and	r1, r3, #255	; 0xff
30009694:	e2422001 	sub	r2, r2, #1
30009698:	e59f322c 	ldr	r3, [pc, #556]	; 300098cc <i2c0_isr+0x284>
3000969c:	e5832004 	str	r2, [r3, #4]
300096a0:	e3510000 	cmp	r1, #0
300096a4:	0a00000b 	beq	300096d8 <i2c0_isr+0x90>
300096a8:	e3a0324e 	mov	r3, #-536870908	; 0xe0000004
300096ac:	e2833506 	add	r3, r3, #25165824	; 0x1800000
300096b0:	e3a020d0 	mov	r2, #208	; 0xd0
300096b4:	e5832000 	str	r2, [r3]
300096b8:	e3a03486 	mov	r3, #-2046820352	; 0x86000000
300096bc:	e1a03143 	asr	r3, r3, #2
300096c0:	e3a020af 	mov	r2, #175	; 0xaf
300096c4:	e5832000 	str	r2, [r3]
300096c8:	e3a00c27 	mov	r0, #9984	; 0x2700
300096cc:	e2800010 	add	r0, r0, #16
300096d0:	ebfffc63 	bl	30008864 <delay>
300096d4:	ea00005f 	b	30009858 <i2c0_isr+0x210>
300096d8:	e3a022ce 	mov	r2, #-536870900	; 0xe000000c
300096dc:	e2822506 	add	r2, r2, #25165824	; 0x1800000
300096e0:	e59f31e4 	ldr	r3, [pc, #484]	; 300098cc <i2c0_isr+0x284>
300096e4:	e5931000 	ldr	r1, [r3]
300096e8:	e59f31dc 	ldr	r3, [pc, #476]	; 300098cc <i2c0_isr+0x284>
300096ec:	e593000c 	ldr	r0, [r3, #12]
300096f0:	e1a03000 	mov	r3, r0
300096f4:	e0813003 	add	r3, r1, r3
300096f8:	e5d33000 	ldrb	r3, [r3]
300096fc:	e5c23000 	strb	r3, [r2]
30009700:	e2802001 	add	r2, r0, #1
30009704:	e59f31c0 	ldr	r3, [pc, #448]	; 300098cc <i2c0_isr+0x284>
30009708:	e583200c 	str	r2, [r3, #12]
3000970c:	e3a03000 	mov	r3, #0
30009710:	e50b3008 	str	r3, [fp, #-8]
30009714:	ea000002 	b	30009724 <i2c0_isr+0xdc>
30009718:	e51b3008 	ldr	r3, [fp, #-8]
3000971c:	e2833001 	add	r3, r3, #1
30009720:	e50b3008 	str	r3, [fp, #-8]
30009724:	e51b3008 	ldr	r3, [fp, #-8]
30009728:	e3530009 	cmp	r3, #9
3000972c:	9afffff9 	bls	30009718 <i2c0_isr+0xd0>
30009730:	e3a03486 	mov	r3, #-2046820352	; 0x86000000
30009734:	e1a03143 	asr	r3, r3, #2
30009738:	e3a020af 	mov	r2, #175	; 0xaf
3000973c:	e5832000 	str	r2, [r3]
30009740:	ea000044 	b	30009858 <i2c0_isr+0x210>
30009744:	e59f3180 	ldr	r3, [pc, #384]	; 300098cc <i2c0_isr+0x284>
30009748:	e593300c 	ldr	r3, [r3, #12]
3000974c:	e3730001 	cmn	r3, #1
30009750:	1a000010 	bne	30009798 <i2c0_isr+0x150>
30009754:	e59f2170 	ldr	r2, [pc, #368]	; 300098cc <i2c0_isr+0x284>
30009758:	e3a03000 	mov	r3, #0
3000975c:	e582300c 	str	r3, [r2, #12]
30009760:	e59f3164 	ldr	r3, [pc, #356]	; 300098cc <i2c0_isr+0x284>
30009764:	e5933004 	ldr	r3, [r3, #4]
30009768:	e3530001 	cmp	r3, #1
3000976c:	1a000004 	bne	30009784 <i2c0_isr+0x13c>
30009770:	e3a03486 	mov	r3, #-2046820352	; 0x86000000
30009774:	e1a03143 	asr	r3, r3, #2
30009778:	e3a0202f 	mov	r2, #47	; 0x2f
3000977c:	e5832000 	str	r2, [r3]
30009780:	ea000034 	b	30009858 <i2c0_isr+0x210>
30009784:	e3a03486 	mov	r3, #-2046820352	; 0x86000000
30009788:	e1a03143 	asr	r3, r3, #2
3000978c:	e3a020af 	mov	r2, #175	; 0xaf
30009790:	e5832000 	str	r2, [r3]
30009794:	ea00002f 	b	30009858 <i2c0_isr+0x210>
30009798:	e59f312c 	ldr	r3, [pc, #300]	; 300098cc <i2c0_isr+0x284>
3000979c:	e5932000 	ldr	r2, [r3]
300097a0:	e59f3124 	ldr	r3, [pc, #292]	; 300098cc <i2c0_isr+0x284>
300097a4:	e593100c 	ldr	r1, [r3, #12]
300097a8:	e1a03001 	mov	r3, r1
300097ac:	e0822003 	add	r2, r2, r3
300097b0:	e3a032ce 	mov	r3, #-536870900	; 0xe000000c
300097b4:	e2833506 	add	r3, r3, #25165824	; 0x1800000
300097b8:	e5d33000 	ldrb	r3, [r3]
300097bc:	e20330ff 	and	r3, r3, #255	; 0xff
300097c0:	e5c23000 	strb	r3, [r2]
300097c4:	e2812001 	add	r2, r1, #1
300097c8:	e59f30fc 	ldr	r3, [pc, #252]	; 300098cc <i2c0_isr+0x284>
300097cc:	e583200c 	str	r2, [r3, #12]
300097d0:	e59f30f4 	ldr	r3, [pc, #244]	; 300098cc <i2c0_isr+0x284>
300097d4:	e5933004 	ldr	r3, [r3, #4]
300097d8:	e2432001 	sub	r2, r3, #1
300097dc:	e59f30e8 	ldr	r3, [pc, #232]	; 300098cc <i2c0_isr+0x284>
300097e0:	e5832004 	str	r2, [r3, #4]
300097e4:	e59f30e0 	ldr	r3, [pc, #224]	; 300098cc <i2c0_isr+0x284>
300097e8:	e5933004 	ldr	r3, [r3, #4]
300097ec:	e3530000 	cmp	r3, #0
300097f0:	1a00000b 	bne	30009824 <i2c0_isr+0x1dc>
300097f4:	e3a0324e 	mov	r3, #-536870908	; 0xe0000004
300097f8:	e2833506 	add	r3, r3, #25165824	; 0x1800000
300097fc:	e3a02090 	mov	r2, #144	; 0x90
30009800:	e5832000 	str	r2, [r3]
30009804:	e3a03486 	mov	r3, #-2046820352	; 0x86000000
30009808:	e1a03143 	asr	r3, r3, #2
3000980c:	e3a020af 	mov	r2, #175	; 0xaf
30009810:	e5832000 	str	r2, [r3]
30009814:	e3a00c27 	mov	r0, #9984	; 0x2700
30009818:	e2800010 	add	r0, r0, #16
3000981c:	ebfffc10 	bl	30008864 <delay>
30009820:	ea00000c 	b	30009858 <i2c0_isr+0x210>
30009824:	e59f30a0 	ldr	r3, [pc, #160]	; 300098cc <i2c0_isr+0x284>
30009828:	e5933004 	ldr	r3, [r3, #4]
3000982c:	e3530001 	cmp	r3, #1
30009830:	1a000004 	bne	30009848 <i2c0_isr+0x200>
30009834:	e3a03486 	mov	r3, #-2046820352	; 0x86000000
30009838:	e1a03143 	asr	r3, r3, #2
3000983c:	e3a0202f 	mov	r2, #47	; 0x2f
30009840:	e5832000 	str	r2, [r3]
30009844:	ea000003 	b	30009858 <i2c0_isr+0x210>
30009848:	e3a03486 	mov	r3, #-2046820352	; 0x86000000
3000984c:	e1a03143 	asr	r3, r3, #2
30009850:	e3a020af 	mov	r2, #175	; 0xaf
30009854:	e5832000 	str	r2, [r3]
30009858:	e3a02486 	mov	r2, #-2046820352	; 0x86000000
3000985c:	e1a02142 	asr	r2, r2, #2
30009860:	e3a03486 	mov	r3, #-2046820352	; 0x86000000
30009864:	e1a03143 	asr	r3, r3, #2
30009868:	e5933000 	ldr	r3, [r3]
3000986c:	e3c33010 	bic	r3, r3, #16
30009870:	e5823000 	str	r3, [r2]
30009874:	e3a034f2 	mov	r3, #-234881024	; 0xf2000000
30009878:	e2833c0f 	add	r3, r3, #3840	; 0xf00
3000987c:	e3a02000 	mov	r2, #0
30009880:	e5832000 	str	r2, [r3]
30009884:	e3a034f2 	mov	r3, #-234881024	; 0xf2000000
30009888:	e2833601 	add	r3, r3, #1048576	; 0x100000
3000988c:	e2833c0f 	add	r3, r3, #3840	; 0xf00
30009890:	e3a02000 	mov	r2, #0
30009894:	e5832000 	str	r2, [r3]
30009898:	e3a034f2 	mov	r3, #-234881024	; 0xf2000000
3000989c:	e2833602 	add	r3, r3, #2097152	; 0x200000
300098a0:	e2833c0f 	add	r3, r3, #3840	; 0xf00
300098a4:	e3a02000 	mov	r2, #0
300098a8:	e5832000 	str	r2, [r3]
300098ac:	e3a034f2 	mov	r3, #-234881024	; 0xf2000000
300098b0:	e2833603 	add	r3, r3, #3145728	; 0x300000
300098b4:	e2833c0f 	add	r3, r3, #3840	; 0xf00
300098b8:	e3a02000 	mov	r2, #0
300098bc:	e5832000 	str	r2, [r3]
300098c0:	e24bd004 	sub	sp, fp, #4
300098c4:	e8bd4800 	pop	{fp, lr}
300098c8:	e12fff1e 	bx	lr
300098cc:	300103ac 	andcc	r0, r1, ip, lsr #7

300098d0 <at24cxx_read>:
300098d0:	e92d4800 	push	{fp, lr}
300098d4:	e28db004 	add	fp, sp, #4
300098d8:	e24dd010 	sub	sp, sp, #16
300098dc:	e1a03000 	mov	r3, r0
300098e0:	e54b300d 	strb	r3, [fp, #-13]
300098e4:	e24b300d 	sub	r3, fp, #13
300098e8:	e3a000a0 	mov	r0, #160	; 0xa0
300098ec:	e1a01003 	mov	r1, r3
300098f0:	e3a02001 	mov	r2, #1
300098f4:	ebffff0d 	bl	30009530 <i2c0_write>
300098f8:	e24b3005 	sub	r3, fp, #5
300098fc:	e3a000a0 	mov	r0, #160	; 0xa0
30009900:	e1a01003 	mov	r1, r3
30009904:	e3a02001 	mov	r2, #1
30009908:	ebffff2b 	bl	300095bc <i2c0_read>
3000990c:	e55b3005 	ldrb	r3, [fp, #-5]
30009910:	e1a00003 	mov	r0, r3
30009914:	e24bd004 	sub	sp, fp, #4
30009918:	e8bd4800 	pop	{fp, lr}
3000991c:	e12fff1e 	bx	lr

30009920 <at24cxx_write>:
30009920:	e92d4800 	push	{fp, lr}
30009924:	e28db004 	add	fp, sp, #4
30009928:	e24dd010 	sub	sp, sp, #16
3000992c:	e1a03000 	mov	r3, r0
30009930:	e1a02001 	mov	r2, r1
30009934:	e54b300d 	strb	r3, [fp, #-13]
30009938:	e1a03002 	mov	r3, r2
3000993c:	e54b300e 	strb	r3, [fp, #-14]
30009940:	e55b300d 	ldrb	r3, [fp, #-13]
30009944:	e54b3006 	strb	r3, [fp, #-6]
30009948:	e55b300e 	ldrb	r3, [fp, #-14]
3000994c:	e54b3005 	strb	r3, [fp, #-5]
30009950:	e24b3006 	sub	r3, fp, #6
30009954:	e3a000a0 	mov	r0, #160	; 0xa0
30009958:	e1a01003 	mov	r1, r3
3000995c:	e3a02002 	mov	r2, #2
30009960:	ebfffef2 	bl	30009530 <i2c0_write>
30009964:	e24bd004 	sub	sp, fp, #4
30009968:	e8bd4800 	pop	{fp, lr}
3000996c:	e12fff1e 	bx	lr

30009970 <lcd_init>:
30009970:	e52db004 	push	{fp}		; (str fp, [sp, #-4]!)
30009974:	e28db000 	add	fp, sp, #0
30009978:	e3a0220e 	mov	r2, #-536870912	; 0xe0000000
3000997c:	e2822602 	add	r2, r2, #2097152	; 0x200000
30009980:	e2822e12 	add	r2, r2, #288	; 0x120
30009984:	e3a03c22 	mov	r3, #8704	; 0x2200
30009988:	e2833022 	add	r3, r3, #34	; 0x22
3000998c:	e1833803 	orr	r3, r3, r3, lsl #16
30009990:	e5823000 	str	r3, [r2]
30009994:	e3a0220e 	mov	r2, #-536870912	; 0xe0000000
30009998:	e2822602 	add	r2, r2, #2097152	; 0x200000
3000999c:	e2822d05 	add	r2, r2, #320	; 0x140
300099a0:	e3a03c22 	mov	r3, #8704	; 0x2200
300099a4:	e2833022 	add	r3, r3, #34	; 0x22
300099a8:	e1833803 	orr	r3, r3, r3, lsl #16
300099ac:	e5823000 	str	r3, [r2]
300099b0:	e3a0220e 	mov	r2, #-536870912	; 0xe0000000
300099b4:	e2822602 	add	r2, r2, #2097152	; 0x200000
300099b8:	e2822e16 	add	r2, r2, #352	; 0x160
300099bc:	e3a03c22 	mov	r3, #8704	; 0x2200
300099c0:	e2833022 	add	r3, r3, #34	; 0x22
300099c4:	e1833803 	orr	r3, r3, r3, lsl #16
300099c8:	e5823000 	str	r3, [r2]
300099cc:	e3a0220e 	mov	r2, #-536870912	; 0xe0000000
300099d0:	e2822602 	add	r2, r2, #2097152	; 0x200000
300099d4:	e2822d06 	add	r2, r2, #384	; 0x180
300099d8:	e3a03c22 	mov	r3, #8704	; 0x2200
300099dc:	e2833022 	add	r3, r3, #34	; 0x22
300099e0:	e1833803 	orr	r3, r3, r3, lsl #16
300099e4:	e5823000 	str	r3, [r2]
300099e8:	e3a0220e 	mov	r2, #-536870912	; 0xe0000000
300099ec:	e2822602 	add	r2, r2, #2097152	; 0x200000
300099f0:	e28220a0 	add	r2, r2, #160	; 0xa0
300099f4:	e3a0320e 	mov	r3, #-536870912	; 0xe0000000
300099f8:	e2833602 	add	r3, r3, #2097152	; 0x200000
300099fc:	e28330a0 	add	r3, r3, #160	; 0xa0
30009a00:	e5933000 	ldr	r3, [r3]
30009a04:	e3c330f0 	bic	r3, r3, #240	; 0xf0
30009a08:	e5823000 	str	r3, [r2]
30009a0c:	e3a0220e 	mov	r2, #-536870912	; 0xe0000000
30009a10:	e2822602 	add	r2, r2, #2097152	; 0x200000
30009a14:	e28220a0 	add	r2, r2, #160	; 0xa0
30009a18:	e3a0320e 	mov	r3, #-536870912	; 0xe0000000
30009a1c:	e2833602 	add	r3, r3, #2097152	; 0x200000
30009a20:	e28330a0 	add	r3, r3, #160	; 0xa0
30009a24:	e5933000 	ldr	r3, [r3]
30009a28:	e3833010 	orr	r3, r3, #16
30009a2c:	e5823000 	str	r3, [r2]
30009a30:	e3a0220e 	mov	r2, #-536870912	; 0xe0000000
30009a34:	e2822602 	add	r2, r2, #2097152	; 0x200000
30009a38:	e28220a4 	add	r2, r2, #164	; 0xa4
30009a3c:	e3a0320e 	mov	r3, #-536870912	; 0xe0000000
30009a40:	e2833602 	add	r3, r3, #2097152	; 0x200000
30009a44:	e28330a4 	add	r3, r3, #164	; 0xa4
30009a48:	e5933000 	ldr	r3, [r3]
30009a4c:	e3833002 	orr	r3, r3, #2
30009a50:	e5823000 	str	r3, [r2]
30009a54:	e3a03a07 	mov	r3, #28672	; 0x7000
30009a58:	e2833008 	add	r3, r3, #8
30009a5c:	e1833883 	orr	r3, r3, r3, lsl #17
30009a60:	e3a02002 	mov	r2, #2
30009a64:	e5832000 	str	r2, [r3]
30009a68:	e3a0233e 	mov	r2, #-134217728	; 0xf8000000
30009a6c:	e3a0333e 	mov	r3, #-134217728	; 0xf8000000
30009a70:	e5933000 	ldr	r3, [r3]
30009a74:	e3c33303 	bic	r3, r3, #201326592	; 0xc000000
30009a78:	e3c33701 	bic	r3, r3, #262144	; 0x40000
30009a7c:	e3c33004 	bic	r3, r3, #4
30009a80:	e5823000 	str	r3, [r2]
30009a84:	e3a0233e 	mov	r2, #-134217728	; 0xf8000000
30009a88:	e3a0333e 	mov	r3, #-134217728	; 0xf8000000
30009a8c:	e5933000 	ldr	r3, [r3]
30009a90:	e3833003 	orr	r3, r3, #3
30009a94:	e5823000 	str	r3, [r2]
30009a98:	e3a0233e 	mov	r2, #-134217728	; 0xf8000000
30009a9c:	e3a0333e 	mov	r3, #-134217728	; 0xf8000000
30009aa0:	e5933000 	ldr	r3, [r3]
30009aa4:	e3833e11 	orr	r3, r3, #272	; 0x110
30009aa8:	e5823000 	str	r3, [r2]
30009aac:	e3a0233e 	mov	r2, #-134217728	; 0xf8000000
30009ab0:	e2822004 	add	r2, r2, #4
30009ab4:	e3a0333e 	mov	r3, #-134217728	; 0xf8000000
30009ab8:	e2833004 	add	r3, r3, #4
30009abc:	e5933000 	ldr	r3, [r3]
30009ac0:	e3833060 	orr	r3, r3, #96	; 0x60
30009ac4:	e5823000 	str	r3, [r2]
30009ac8:	e3a0233e 	mov	r2, #-134217728	; 0xf8000000
30009acc:	e2822010 	add	r2, r2, #16
30009ad0:	e3a03816 	mov	r3, #1441792	; 0x160000
30009ad4:	e2833c15 	add	r3, r3, #5376	; 0x1500
30009ad8:	e5823000 	str	r3, [r2]
30009adc:	e3a0233e 	mov	r2, #-134217728	; 0xf8000000
30009ae0:	e2822014 	add	r2, r2, #20
30009ae4:	e3a039b7 	mov	r3, #2998272	; 0x2dc000
30009ae8:	e2833c11 	add	r3, r3, #4352	; 0x1100
30009aec:	e5823000 	str	r3, [r2]
30009af0:	e3a0233e 	mov	r2, #-134217728	; 0xf8000000
30009af4:	e2822018 	add	r2, r2, #24
30009af8:	e3a03aef 	mov	r3, #978944	; 0xef000
30009afc:	e2833eb1 	add	r3, r3, #2832	; 0xb10
30009b00:	e283300f 	add	r3, r3, #15
30009b04:	e5823000 	str	r3, [r2]
30009b08:	e3a0233e 	mov	r2, #-134217728	; 0xf8000000
30009b0c:	e2822020 	add	r2, r2, #32
30009b10:	e3a0333e 	mov	r3, #-134217728	; 0xf8000000
30009b14:	e2833020 	add	r3, r3, #32
30009b18:	e5933000 	ldr	r3, [r3]
30009b1c:	e3833001 	orr	r3, r3, #1
30009b20:	e5823000 	str	r3, [r2]
30009b24:	e3a0233e 	mov	r2, #-134217728	; 0xf8000000
30009b28:	e2822020 	add	r2, r2, #32
30009b2c:	e3a0333e 	mov	r3, #-134217728	; 0xf8000000
30009b30:	e2833020 	add	r3, r3, #32
30009b34:	e5933000 	ldr	r3, [r3]
30009b38:	e3c3303c 	bic	r3, r3, #60	; 0x3c
30009b3c:	e5823000 	str	r3, [r2]
30009b40:	e3a0233e 	mov	r2, #-134217728	; 0xf8000000
30009b44:	e2822020 	add	r2, r2, #32
30009b48:	e3a0333e 	mov	r3, #-134217728	; 0xf8000000
30009b4c:	e2833020 	add	r3, r3, #32
30009b50:	e5933000 	ldr	r3, [r3]
30009b54:	e3833902 	orr	r3, r3, #32768	; 0x8000
30009b58:	e383302c 	orr	r3, r3, #44	; 0x2c
30009b5c:	e5823000 	str	r3, [r2]
30009b60:	e3a0333e 	mov	r3, #-134217728	; 0xf8000000
30009b64:	e2833040 	add	r3, r3, #64	; 0x40
30009b68:	e3a02000 	mov	r2, #0
30009b6c:	e5832000 	str	r2, [r3]
30009b70:	e3a0233e 	mov	r2, #-134217728	; 0xf8000000
30009b74:	e2822044 	add	r2, r2, #68	; 0x44
30009b78:	e3a03963 	mov	r3, #1622016	; 0x18c000
30009b7c:	e2833de7 	add	r3, r3, #14784	; 0x39c0
30009b80:	e283301f 	add	r3, r3, #31
30009b84:	e5823000 	str	r3, [r2]
30009b88:	e3a0233e 	mov	r2, #-134217728	; 0xf8000000
30009b8c:	e2822048 	add	r2, r2, #72	; 0x48
30009b90:	e3a03a5d 	mov	r3, #380928	; 0x5d000
30009b94:	e2833b03 	add	r3, r3, #3072	; 0xc00
30009b98:	e5823000 	str	r3, [r2]
30009b9c:	e3a0333e 	mov	r3, #-134217728	; 0xf8000000
30009ba0:	e28330a0 	add	r3, r3, #160	; 0xa0
30009ba4:	e3a02431 	mov	r2, #822083584	; 0x31000000
30009ba8:	e5832000 	str	r2, [r3]
30009bac:	e3a0233e 	mov	r2, #-134217728	; 0xf8000000
30009bb0:	e28220d0 	add	r2, r2, #208	; 0xd0
30009bb4:	e3a0395d 	mov	r3, #1523712	; 0x174000
30009bb8:	e2833a03 	add	r3, r3, #12288	; 0x3000
30009bbc:	e5823000 	str	r3, [r2]
30009bc0:	e3a0333e 	mov	r3, #-134217728	; 0xf8000000
30009bc4:	e2833034 	add	r3, r3, #52	; 0x34
30009bc8:	e3a02001 	mov	r2, #1
30009bcc:	e5832000 	str	r2, [r3]
30009bd0:	e28bd000 	add	sp, fp, #0
30009bd4:	e8bd0800 	ldmfd	sp!, {fp}
30009bd8:	e12fff1e 	bx	lr

30009bdc <lcd_draw_pixel>:
30009bdc:	e52db004 	push	{fp}		; (str fp, [sp, #-4]!)
30009be0:	e28db000 	add	fp, sp, #0
30009be4:	e24dd01c 	sub	sp, sp, #28
30009be8:	e50b0010 	str	r0, [fp, #-16]
30009bec:	e50b1014 	str	r1, [fp, #-20]	; 0xffffffec
30009bf0:	e50b2018 	str	r2, [fp, #-24]	; 0xffffffe8
30009bf4:	e3a03431 	mov	r3, #822083584	; 0x31000000
30009bf8:	e50b3008 	str	r3, [fp, #-8]
30009bfc:	e51b3010 	ldr	r3, [fp, #-16]
30009c00:	e1a03283 	lsl	r3, r3, #5
30009c04:	e1a02103 	lsl	r2, r3, #2
30009c08:	e0833002 	add	r3, r3, r2
30009c0c:	e1a02103 	lsl	r2, r3, #2
30009c10:	e0833002 	add	r3, r3, r2
30009c14:	e1a02003 	mov	r2, r3
30009c18:	e51b3014 	ldr	r3, [fp, #-20]	; 0xffffffec
30009c1c:	e0823003 	add	r3, r2, r3
30009c20:	e1a02103 	lsl	r2, r3, #2
30009c24:	e51b3008 	ldr	r3, [fp, #-8]
30009c28:	e0832002 	add	r2, r3, r2
30009c2c:	e51b3018 	ldr	r3, [fp, #-24]	; 0xffffffe8
30009c30:	e5823000 	str	r3, [r2]
30009c34:	e28bd000 	add	sp, fp, #0
30009c38:	e8bd0800 	ldmfd	sp!, {fp}
30009c3c:	e12fff1e 	bx	lr

30009c40 <lcd_clear_screen>:
30009c40:	e92d4800 	push	{fp, lr}
30009c44:	e28db004 	add	fp, sp, #4
30009c48:	e24dd010 	sub	sp, sp, #16
30009c4c:	e50b0010 	str	r0, [fp, #-16]
30009c50:	e3a03000 	mov	r3, #0
30009c54:	e50b300c 	str	r3, [fp, #-12]
30009c58:	ea000011 	b	30009ca4 <lcd_clear_screen+0x64>
30009c5c:	e3a03000 	mov	r3, #0
30009c60:	e50b3008 	str	r3, [fp, #-8]
30009c64:	ea000006 	b	30009c84 <lcd_clear_screen+0x44>
30009c68:	e51b000c 	ldr	r0, [fp, #-12]
30009c6c:	e51b1008 	ldr	r1, [fp, #-8]
30009c70:	e51b2010 	ldr	r2, [fp, #-16]
30009c74:	ebffffd8 	bl	30009bdc <lcd_draw_pixel>
30009c78:	e51b3008 	ldr	r3, [fp, #-8]
30009c7c:	e2833001 	add	r3, r3, #1
30009c80:	e50b3008 	str	r3, [fp, #-8]
30009c84:	e51b2008 	ldr	r2, [fp, #-8]
30009c88:	e3a03fc7 	mov	r3, #796	; 0x31c
30009c8c:	e2833003 	add	r3, r3, #3
30009c90:	e1520003 	cmp	r2, r3
30009c94:	dafffff3 	ble	30009c68 <lcd_clear_screen+0x28>
30009c98:	e51b300c 	ldr	r3, [fp, #-12]
30009c9c:	e2833001 	add	r3, r3, #1
30009ca0:	e50b300c 	str	r3, [fp, #-12]
30009ca4:	e51b200c 	ldr	r2, [fp, #-12]
30009ca8:	e3a03f77 	mov	r3, #476	; 0x1dc
30009cac:	e2833003 	add	r3, r3, #3
30009cb0:	e1520003 	cmp	r2, r3
30009cb4:	daffffe8 	ble	30009c5c <lcd_clear_screen+0x1c>
30009cb8:	e24bd004 	sub	sp, fp, #4
30009cbc:	e8bd4800 	pop	{fp, lr}
30009cc0:	e12fff1e 	bx	lr

30009cc4 <lcd_draw_hline>:
30009cc4:	e92d4800 	push	{fp, lr}
30009cc8:	e28db004 	add	fp, sp, #4
30009ccc:	e24dd018 	sub	sp, sp, #24
30009cd0:	e50b0010 	str	r0, [fp, #-16]
30009cd4:	e50b1014 	str	r1, [fp, #-20]	; 0xffffffec
30009cd8:	e50b2018 	str	r2, [fp, #-24]	; 0xffffffe8
30009cdc:	e50b301c 	str	r3, [fp, #-28]	; 0xffffffe4
30009ce0:	e51b3014 	ldr	r3, [fp, #-20]	; 0xffffffec
30009ce4:	e50b3008 	str	r3, [fp, #-8]
30009ce8:	ea000006 	b	30009d08 <lcd_draw_hline+0x44>
30009cec:	e51b0010 	ldr	r0, [fp, #-16]
30009cf0:	e51b1008 	ldr	r1, [fp, #-8]
30009cf4:	e51b201c 	ldr	r2, [fp, #-28]	; 0xffffffe4
30009cf8:	ebffffb7 	bl	30009bdc <lcd_draw_pixel>
30009cfc:	e51b3008 	ldr	r3, [fp, #-8]
30009d00:	e2833001 	add	r3, r3, #1
30009d04:	e50b3008 	str	r3, [fp, #-8]
30009d08:	e51b2008 	ldr	r2, [fp, #-8]
30009d0c:	e51b3018 	ldr	r3, [fp, #-24]	; 0xffffffe8
30009d10:	e1520003 	cmp	r2, r3
30009d14:	dafffff4 	ble	30009cec <lcd_draw_hline+0x28>
30009d18:	e24bd004 	sub	sp, fp, #4
30009d1c:	e8bd4800 	pop	{fp, lr}
30009d20:	e12fff1e 	bx	lr

30009d24 <lcd_draw_vline>:
30009d24:	e92d4800 	push	{fp, lr}
30009d28:	e28db004 	add	fp, sp, #4
30009d2c:	e24dd018 	sub	sp, sp, #24
30009d30:	e50b0010 	str	r0, [fp, #-16]
30009d34:	e50b1014 	str	r1, [fp, #-20]	; 0xffffffec
30009d38:	e50b2018 	str	r2, [fp, #-24]	; 0xffffffe8
30009d3c:	e50b301c 	str	r3, [fp, #-28]	; 0xffffffe4
30009d40:	e51b3014 	ldr	r3, [fp, #-20]	; 0xffffffec
30009d44:	e50b3008 	str	r3, [fp, #-8]
30009d48:	ea000006 	b	30009d68 <lcd_draw_vline+0x44>
30009d4c:	e51b0008 	ldr	r0, [fp, #-8]
30009d50:	e51b1010 	ldr	r1, [fp, #-16]
30009d54:	e51b201c 	ldr	r2, [fp, #-28]	; 0xffffffe4
30009d58:	ebffff9f 	bl	30009bdc <lcd_draw_pixel>
30009d5c:	e51b3008 	ldr	r3, [fp, #-8]
30009d60:	e2833001 	add	r3, r3, #1
30009d64:	e50b3008 	str	r3, [fp, #-8]
30009d68:	e51b2008 	ldr	r2, [fp, #-8]
30009d6c:	e51b3018 	ldr	r3, [fp, #-24]	; 0xffffffe8
30009d70:	e1520003 	cmp	r2, r3
30009d74:	dafffff4 	ble	30009d4c <lcd_draw_vline+0x28>
30009d78:	e24bd004 	sub	sp, fp, #4
30009d7c:	e8bd4800 	pop	{fp, lr}
30009d80:	e12fff1e 	bx	lr

30009d84 <lcd_draw_cross>:
30009d84:	e92d4800 	push	{fp, lr}
30009d88:	e28db004 	add	fp, sp, #4
30009d8c:	e24dd010 	sub	sp, sp, #16
30009d90:	e50b0008 	str	r0, [fp, #-8]
30009d94:	e50b100c 	str	r1, [fp, #-12]
30009d98:	e50b2010 	str	r2, [fp, #-16]
30009d9c:	e50b3014 	str	r3, [fp, #-20]	; 0xffffffec
30009da0:	e51b200c 	ldr	r2, [fp, #-12]
30009da4:	e51b3010 	ldr	r3, [fp, #-16]
30009da8:	e0631002 	rsb	r1, r3, r2
30009dac:	e51b200c 	ldr	r2, [fp, #-12]
30009db0:	e51b3010 	ldr	r3, [fp, #-16]
30009db4:	e0823003 	add	r3, r2, r3
30009db8:	e51b0008 	ldr	r0, [fp, #-8]
30009dbc:	e1a02003 	mov	r2, r3
30009dc0:	e51b3014 	ldr	r3, [fp, #-20]	; 0xffffffec
30009dc4:	ebffffbe 	bl	30009cc4 <lcd_draw_hline>
30009dc8:	e51b2008 	ldr	r2, [fp, #-8]
30009dcc:	e51b3010 	ldr	r3, [fp, #-16]
30009dd0:	e0631002 	rsb	r1, r3, r2
30009dd4:	e51b2008 	ldr	r2, [fp, #-8]
30009dd8:	e51b3010 	ldr	r3, [fp, #-16]
30009ddc:	e0823003 	add	r3, r2, r3
30009de0:	e51b000c 	ldr	r0, [fp, #-12]
30009de4:	e1a02003 	mov	r2, r3
30009de8:	e51b3014 	ldr	r3, [fp, #-20]	; 0xffffffec
30009dec:	ebffffcc 	bl	30009d24 <lcd_draw_vline>
30009df0:	e24bd004 	sub	sp, fp, #4
30009df4:	e8bd4800 	pop	{fp, lr}
30009df8:	e12fff1e 	bx	lr

30009dfc <lcd_draw_char>:
30009dfc:	e92d4800 	push	{fp, lr}
30009e00:	e28db004 	add	fp, sp, #4
30009e04:	e24dd018 	sub	sp, sp, #24
30009e08:	e1a03000 	mov	r3, r0
30009e0c:	e54b3015 	strb	r3, [fp, #-21]	; 0xffffffeb
30009e10:	e59f218c 	ldr	r2, [pc, #396]	; 30009fa4 <lcd_draw_char+0x1a8>
30009e14:	e55b3015 	ldrb	r3, [fp, #-21]	; 0xffffffeb
30009e18:	e1a03203 	lsl	r3, r3, #4
30009e1c:	e0823003 	add	r3, r2, r3
30009e20:	e50b3008 	str	r3, [fp, #-8]
30009e24:	e55b3015 	ldrb	r3, [fp, #-21]	; 0xffffffeb
30009e28:	e353000a 	cmp	r3, #10
30009e2c:	1a00000e 	bne	30009e6c <lcd_draw_char+0x70>
30009e30:	e59f3170 	ldr	r3, [pc, #368]	; 30009fa8 <lcd_draw_char+0x1ac>
30009e34:	e5933000 	ldr	r3, [r3]
30009e38:	e2832010 	add	r2, r3, #16
30009e3c:	e59f3164 	ldr	r3, [pc, #356]	; 30009fa8 <lcd_draw_char+0x1ac>
30009e40:	e5832000 	str	r2, [r3]
30009e44:	e59f315c 	ldr	r3, [pc, #348]	; 30009fa8 <lcd_draw_char+0x1ac>
30009e48:	e5933000 	ldr	r3, [r3]
30009e4c:	e3530e1e 	cmp	r3, #480	; 0x1e0
30009e50:	da000050 	ble	30009f98 <lcd_draw_char+0x19c>
30009e54:	e3a00000 	mov	r0, #0
30009e58:	ebffff78 	bl	30009c40 <lcd_clear_screen>
30009e5c:	e59f2144 	ldr	r2, [pc, #324]	; 30009fa8 <lcd_draw_char+0x1ac>
30009e60:	e3a03000 	mov	r3, #0
30009e64:	e5823000 	str	r3, [r2]
30009e68:	ea00004a 	b	30009f98 <lcd_draw_char+0x19c>
30009e6c:	e55b3015 	ldrb	r3, [fp, #-21]	; 0xffffffeb
30009e70:	e353000d 	cmp	r3, #13
30009e74:	1a000003 	bne	30009e88 <lcd_draw_char+0x8c>
30009e78:	e59f212c 	ldr	r2, [pc, #300]	; 30009fac <lcd_draw_char+0x1b0>
30009e7c:	e3a03000 	mov	r3, #0
30009e80:	e5823000 	str	r3, [r2]
30009e84:	ea000043 	b	30009f98 <lcd_draw_char+0x19c>
30009e88:	e3a03000 	mov	r3, #0
30009e8c:	e50b3014 	str	r3, [fp, #-20]	; 0xffffffec
30009e90:	ea000023 	b	30009f24 <lcd_draw_char+0x128>
30009e94:	e51b2014 	ldr	r2, [fp, #-20]	; 0xffffffec
30009e98:	e51b3008 	ldr	r3, [fp, #-8]
30009e9c:	e0833002 	add	r3, r3, r2
30009ea0:	e5d33000 	ldrb	r3, [r3]
30009ea4:	e54b3009 	strb	r3, [fp, #-9]
30009ea8:	e3a03000 	mov	r3, #0
30009eac:	e50b3010 	str	r3, [fp, #-16]
30009eb0:	ea000015 	b	30009f0c <lcd_draw_char+0x110>
30009eb4:	e55b1009 	ldrb	r1, [fp, #-9]
30009eb8:	e3a02080 	mov	r2, #128	; 0x80
30009ebc:	e51b3010 	ldr	r3, [fp, #-16]
30009ec0:	e1a03352 	asr	r3, r2, r3
30009ec4:	e0013003 	and	r3, r1, r3
30009ec8:	e3530000 	cmp	r3, #0
30009ecc:	0a00000b 	beq	30009f00 <lcd_draw_char+0x104>
30009ed0:	e59f30d0 	ldr	r3, [pc, #208]	; 30009fa8 <lcd_draw_char+0x1ac>
30009ed4:	e5932000 	ldr	r2, [r3]
30009ed8:	e51b3014 	ldr	r3, [fp, #-20]	; 0xffffffec
30009edc:	e0821003 	add	r1, r2, r3
30009ee0:	e59f30c4 	ldr	r3, [pc, #196]	; 30009fac <lcd_draw_char+0x1b0>
30009ee4:	e5932000 	ldr	r2, [r3]
30009ee8:	e51b3010 	ldr	r3, [fp, #-16]
30009eec:	e0823003 	add	r3, r2, r3
30009ef0:	e1a00001 	mov	r0, r1
30009ef4:	e1a01003 	mov	r1, r3
30009ef8:	e3a020ff 	mov	r2, #255	; 0xff
30009efc:	ebffff36 	bl	30009bdc <lcd_draw_pixel>
30009f00:	e51b3010 	ldr	r3, [fp, #-16]
30009f04:	e2833001 	add	r3, r3, #1
30009f08:	e50b3010 	str	r3, [fp, #-16]
30009f0c:	e51b3010 	ldr	r3, [fp, #-16]
30009f10:	e3530007 	cmp	r3, #7
30009f14:	daffffe6 	ble	30009eb4 <lcd_draw_char+0xb8>
30009f18:	e51b3014 	ldr	r3, [fp, #-20]	; 0xffffffec
30009f1c:	e2833001 	add	r3, r3, #1
30009f20:	e50b3014 	str	r3, [fp, #-20]	; 0xffffffec
30009f24:	e51b3014 	ldr	r3, [fp, #-20]	; 0xffffffec
30009f28:	e353000f 	cmp	r3, #15
30009f2c:	daffffd8 	ble	30009e94 <lcd_draw_char+0x98>
30009f30:	e59f3074 	ldr	r3, [pc, #116]	; 30009fac <lcd_draw_char+0x1b0>
30009f34:	e5933000 	ldr	r3, [r3]
30009f38:	e2832008 	add	r2, r3, #8
30009f3c:	e59f3068 	ldr	r3, [pc, #104]	; 30009fac <lcd_draw_char+0x1b0>
30009f40:	e5832000 	str	r2, [r3]
30009f44:	e59f3060 	ldr	r3, [pc, #96]	; 30009fac <lcd_draw_char+0x1b0>
30009f48:	e5933000 	ldr	r3, [r3]
30009f4c:	e3530e32 	cmp	r3, #800	; 0x320
30009f50:	da000010 	ble	30009f98 <lcd_draw_char+0x19c>
30009f54:	e59f2050 	ldr	r2, [pc, #80]	; 30009fac <lcd_draw_char+0x1b0>
30009f58:	e3a03000 	mov	r3, #0
30009f5c:	e5823000 	str	r3, [r2]
30009f60:	e59f3040 	ldr	r3, [pc, #64]	; 30009fa8 <lcd_draw_char+0x1ac>
30009f64:	e5933000 	ldr	r3, [r3]
30009f68:	e2832010 	add	r2, r3, #16
30009f6c:	e59f3034 	ldr	r3, [pc, #52]	; 30009fa8 <lcd_draw_char+0x1ac>
30009f70:	e5832000 	str	r2, [r3]
30009f74:	e59f302c 	ldr	r3, [pc, #44]	; 30009fa8 <lcd_draw_char+0x1ac>
30009f78:	e5933000 	ldr	r3, [r3]
30009f7c:	e3530e1e 	cmp	r3, #480	; 0x1e0
30009f80:	da000004 	ble	30009f98 <lcd_draw_char+0x19c>
30009f84:	e3a00000 	mov	r0, #0
30009f88:	ebffff2c 	bl	30009c40 <lcd_clear_screen>
30009f8c:	e59f2014 	ldr	r2, [pc, #20]	; 30009fa8 <lcd_draw_char+0x1ac>
30009f90:	e3a03000 	mov	r3, #0
30009f94:	e5823000 	str	r3, [r2]
30009f98:	e24bd004 	sub	sp, fp, #4
30009f9c:	e8bd4800 	pop	{fp, lr}
30009fa0:	e12fff1e 	bx	lr
30009fa4:	3000f1b0 			; <UNDEFINED> instruction: 0x3000f1b0
30009fa8:	300103bc 			; <UNDEFINED> instruction: 0x300103bc
30009fac:	300103c0 	andcc	r0, r1, r0, asr #7

30009fb0 <dm9000_reg_write>:
30009fb0:	e52db004 	push	{fp}		; (str fp, [sp, #-4]!)
30009fb4:	e28db000 	add	fp, sp, #0
30009fb8:	e24dd00c 	sub	sp, sp, #12
30009fbc:	e1a03000 	mov	r3, r0
30009fc0:	e1a02001 	mov	r2, r1
30009fc4:	e14b30b6 	strh	r3, [fp, #-6]
30009fc8:	e14b20b8 	strh	r2, [fp, #-8]
30009fcc:	e3a03322 	mov	r3, #-2013265920	; 0x88000000
30009fd0:	e2833a01 	add	r3, r3, #4096	; 0x1000
30009fd4:	e15b20b6 	ldrh	r2, [fp, #-6]
30009fd8:	e1c320b0 	strh	r2, [r3]
30009fdc:	e3a03322 	mov	r3, #-2013265920	; 0x88000000
30009fe0:	e2833901 	add	r3, r3, #16384	; 0x4000
30009fe4:	e283300c 	add	r3, r3, #12
30009fe8:	e15b20b8 	ldrh	r2, [fp, #-8]
30009fec:	e1c320b0 	strh	r2, [r3]
30009ff0:	e28bd000 	add	sp, fp, #0
30009ff4:	e8bd0800 	ldmfd	sp!, {fp}
30009ff8:	e12fff1e 	bx	lr

30009ffc <dm9000_reg_read>:
30009ffc:	e52db004 	push	{fp}		; (str fp, [sp, #-4]!)
3000a000:	e28db000 	add	fp, sp, #0
3000a004:	e24dd00c 	sub	sp, sp, #12
3000a008:	e1a03000 	mov	r3, r0
3000a00c:	e14b30b6 	strh	r3, [fp, #-6]
3000a010:	e3a03322 	mov	r3, #-2013265920	; 0x88000000
3000a014:	e2833a01 	add	r3, r3, #4096	; 0x1000
3000a018:	e15b20b6 	ldrh	r2, [fp, #-6]
3000a01c:	e1c320b0 	strh	r2, [r3]
3000a020:	e3a03322 	mov	r3, #-2013265920	; 0x88000000
3000a024:	e2833901 	add	r3, r3, #16384	; 0x4000
3000a028:	e283300c 	add	r3, r3, #12
3000a02c:	e1d330b0 	ldrh	r3, [r3]
3000a030:	e1a03803 	lsl	r3, r3, #16
3000a034:	e1a03823 	lsr	r3, r3, #16
3000a038:	e20330ff 	and	r3, r3, #255	; 0xff
3000a03c:	e1a00003 	mov	r0, r3
3000a040:	e28bd000 	add	sp, fp, #0
3000a044:	e8bd0800 	ldmfd	sp!, {fp}
3000a048:	e12fff1e 	bx	lr

3000a04c <dm9000_set_CS>:
3000a04c:	e52db004 	push	{fp}		; (str fp, [sp, #-4]!)
3000a050:	e28db000 	add	fp, sp, #0
3000a054:	e24dd00c 	sub	sp, sp, #12
3000a058:	e3a0233a 	mov	r2, #-402653184	; 0xe8000000
3000a05c:	e3a0333a 	mov	r3, #-402653184	; 0xe8000000
3000a060:	e5933000 	ldr	r3, [r3]
3000a064:	e3c330f0 	bic	r3, r3, #240	; 0xf0
3000a068:	e5823000 	str	r3, [r2]
3000a06c:	e3a0233a 	mov	r2, #-402653184	; 0xe8000000
3000a070:	e3a0333a 	mov	r3, #-402653184	; 0xe8000000
3000a074:	e5933000 	ldr	r3, [r3]
3000a078:	e3833010 	orr	r3, r3, #16
3000a07c:	e5823000 	str	r3, [r2]
3000a080:	e3a0333a 	mov	r3, #-402653184	; 0xe8000000
3000a084:	e2833008 	add	r3, r3, #8
3000a088:	e3a02805 	mov	r2, #327680	; 0x50000
3000a08c:	e5832000 	str	r2, [r3]
3000a090:	e3a0320e 	mov	r3, #-536870912	; 0xe0000000
3000a094:	e2833602 	add	r3, r3, #2097152	; 0x200000
3000a098:	e2833e2e 	add	r3, r3, #736	; 0x2e0
3000a09c:	e5933000 	ldr	r3, [r3]
3000a0a0:	e50b3008 	str	r3, [fp, #-8]
3000a0a4:	e51b3008 	ldr	r3, [fp, #-8]
3000a0a8:	e3c330f0 	bic	r3, r3, #240	; 0xf0
3000a0ac:	e50b3008 	str	r3, [fp, #-8]
3000a0b0:	e51b3008 	ldr	r3, [fp, #-8]
3000a0b4:	e3833020 	orr	r3, r3, #32
3000a0b8:	e50b3008 	str	r3, [fp, #-8]
3000a0bc:	e3a0320e 	mov	r3, #-536870912	; 0xe0000000
3000a0c0:	e2833602 	add	r3, r3, #2097152	; 0x200000
3000a0c4:	e2833e2e 	add	r3, r3, #736	; 0x2e0
3000a0c8:	e51b2008 	ldr	r2, [fp, #-8]
3000a0cc:	e5832000 	str	r2, [r3]
3000a0d0:	e28bd000 	add	sp, fp, #0
3000a0d4:	e8bd0800 	ldmfd	sp!, {fp}
3000a0d8:	e12fff1e 	bx	lr

3000a0dc <dm9000_int_init>:
3000a0dc:	e52db004 	push	{fp}		; (str fp, [sp, #-4]!)
3000a0e0:	e28db000 	add	fp, sp, #0
3000a0e4:	e3a0220e 	mov	r2, #-536870912	; 0xe0000000
3000a0e8:	e2822602 	add	r2, r2, #2097152	; 0x200000
3000a0ec:	e2822b03 	add	r2, r2, #3072	; 0xc00
3000a0f0:	e3a0320e 	mov	r3, #-536870912	; 0xe0000000
3000a0f4:	e2833602 	add	r3, r3, #2097152	; 0x200000
3000a0f8:	e2833b03 	add	r3, r3, #3072	; 0xc00
3000a0fc:	e5933000 	ldr	r3, [r3]
3000a100:	e3c3320f 	bic	r3, r3, #-268435456	; 0xf0000000
3000a104:	e5823000 	str	r3, [r2]
3000a108:	e3a0220e 	mov	r2, #-536870912	; 0xe0000000
3000a10c:	e2822602 	add	r2, r2, #2097152	; 0x200000
3000a110:	e2822b03 	add	r2, r2, #3072	; 0xc00
3000a114:	e3a0320e 	mov	r3, #-536870912	; 0xe0000000
3000a118:	e2833602 	add	r3, r3, #2097152	; 0x200000
3000a11c:	e2833b03 	add	r3, r3, #3072	; 0xc00
3000a120:	e5933000 	ldr	r3, [r3]
3000a124:	e383320f 	orr	r3, r3, #-268435456	; 0xf0000000
3000a128:	e5823000 	str	r3, [r2]
3000a12c:	e28bd000 	add	sp, fp, #0
3000a130:	e8bd0800 	ldmfd	sp!, {fp}
3000a134:	e12fff1e 	bx	lr

3000a138 <dm9000_reset>:
3000a138:	e92d4800 	push	{fp, lr}
3000a13c:	e28db004 	add	fp, sp, #4
3000a140:	e3a0001e 	mov	r0, #30
3000a144:	e3a01001 	mov	r1, #1
3000a148:	ebffff98 	bl	30009fb0 <dm9000_reg_write>
3000a14c:	e3a0001f 	mov	r0, #31
3000a150:	e3a01000 	mov	r1, #0
3000a154:	ebffff95 	bl	30009fb0 <dm9000_reg_write>
3000a158:	e3a00000 	mov	r0, #0
3000a15c:	e3a01003 	mov	r1, #3
3000a160:	ebffff92 	bl	30009fb0 <dm9000_reg_write>
3000a164:	e3a00000 	mov	r0, #0
3000a168:	e3a01000 	mov	r1, #0
3000a16c:	ebffff8f 	bl	30009fb0 <dm9000_reg_write>
3000a170:	e3a00000 	mov	r0, #0
3000a174:	e3a01003 	mov	r1, #3
3000a178:	ebffff8c 	bl	30009fb0 <dm9000_reg_write>
3000a17c:	e3a00000 	mov	r0, #0
3000a180:	e3a01000 	mov	r1, #0
3000a184:	ebffff89 	bl	30009fb0 <dm9000_reg_write>
3000a188:	e24bd004 	sub	sp, fp, #4
3000a18c:	e8bd4800 	pop	{fp, lr}
3000a190:	e12fff1e 	bx	lr

3000a194 <dm9000_probe>:
3000a194:	e92d4800 	push	{fp, lr}
3000a198:	e28db004 	add	fp, sp, #4
3000a19c:	e24dd008 	sub	sp, sp, #8
3000a1a0:	e3a00028 	mov	r0, #40	; 0x28
3000a1a4:	ebffff94 	bl	30009ffc <dm9000_reg_read>
3000a1a8:	e1a03000 	mov	r3, r0
3000a1ac:	e50b3008 	str	r3, [fp, #-8]
3000a1b0:	e3a00029 	mov	r0, #41	; 0x29
3000a1b4:	ebffff90 	bl	30009ffc <dm9000_reg_read>
3000a1b8:	e1a03000 	mov	r3, r0
3000a1bc:	e1a03403 	lsl	r3, r3, #8
3000a1c0:	e1a02003 	mov	r2, r3
3000a1c4:	e51b3008 	ldr	r3, [fp, #-8]
3000a1c8:	e1833002 	orr	r3, r3, r2
3000a1cc:	e50b3008 	str	r3, [fp, #-8]
3000a1d0:	e3a0002a 	mov	r0, #42	; 0x2a
3000a1d4:	ebffff88 	bl	30009ffc <dm9000_reg_read>
3000a1d8:	e1a03000 	mov	r3, r0
3000a1dc:	e1a03803 	lsl	r3, r3, #16
3000a1e0:	e1a02003 	mov	r2, r3
3000a1e4:	e51b3008 	ldr	r3, [fp, #-8]
3000a1e8:	e1833002 	orr	r3, r3, r2
3000a1ec:	e50b3008 	str	r3, [fp, #-8]
3000a1f0:	e3a0002b 	mov	r0, #43	; 0x2b
3000a1f4:	ebffff80 	bl	30009ffc <dm9000_reg_read>
3000a1f8:	e1a03000 	mov	r3, r0
3000a1fc:	e1a03c03 	lsl	r3, r3, #24
3000a200:	e1a02003 	mov	r2, r3
3000a204:	e51b3008 	ldr	r3, [fp, #-8]
3000a208:	e1833002 	orr	r3, r3, r2
3000a20c:	e50b3008 	str	r3, [fp, #-8]
3000a210:	e51b2008 	ldr	r2, [fp, #-8]
3000a214:	e3a03d29 	mov	r3, #2624	; 0xa40
3000a218:	e2833269 	add	r3, r3, #-1879048186	; 0x90000006
3000a21c:	e1520003 	cmp	r2, r3
3000a220:	1a000002 	bne	3000a230 <dm9000_probe+0x9c>
3000a224:	e59f0018 	ldr	r0, [pc, #24]	; 3000a244 <dm9000_probe+0xb0>
3000a228:	eb000291 	bl	3000ac74 <printf>
3000a22c:	ea000001 	b	3000a238 <dm9000_probe+0xa4>
3000a230:	e59f0010 	ldr	r0, [pc, #16]	; 3000a248 <dm9000_probe+0xb4>
3000a234:	eb00028e 	bl	3000ac74 <printf>
3000a238:	e24bd004 	sub	sp, fp, #4
3000a23c:	e8bd4800 	pop	{fp, lr}
3000a240:	e12fff1e 	bx	lr
3000a244:	300101b0 			; <UNDEFINED> instruction: 0x300101b0
3000a248:	300101c4 	andcc	r0, r1, r4, asr #3

3000a24c <dm9000_init>:
3000a24c:	e92d4800 	push	{fp, lr}
3000a250:	e28db004 	add	fp, sp, #4
3000a254:	e24dd008 	sub	sp, sp, #8
3000a258:	ebffff7b 	bl	3000a04c <dm9000_set_CS>
3000a25c:	ebffff9e 	bl	3000a0dc <dm9000_int_init>
3000a260:	ebffffb4 	bl	3000a138 <dm9000_reset>
3000a264:	ebffffca 	bl	3000a194 <dm9000_probe>
3000a268:	e3a00000 	mov	r0, #0
3000a26c:	e3a01000 	mov	r1, #0
3000a270:	ebffff4e 	bl	30009fb0 <dm9000_reg_write>
3000a274:	e3a00002 	mov	r0, #2
3000a278:	e3a01000 	mov	r1, #0
3000a27c:	ebffff4b 	bl	30009fb0 <dm9000_reg_write>
3000a280:	e3a00008 	mov	r0, #8
3000a284:	e3a0103f 	mov	r1, #63	; 0x3f
3000a288:	ebffff48 	bl	30009fb0 <dm9000_reg_write>
3000a28c:	e3a00009 	mov	r0, #9
3000a290:	e3a01038 	mov	r1, #56	; 0x38
3000a294:	ebffff45 	bl	30009fb0 <dm9000_reg_write>
3000a298:	e3a0000a 	mov	r0, #10
3000a29c:	e3a01000 	mov	r1, #0
3000a2a0:	ebffff42 	bl	30009fb0 <dm9000_reg_write>
3000a2a4:	e3a0002f 	mov	r0, #47	; 0x2f
3000a2a8:	e3a01000 	mov	r1, #0
3000a2ac:	ebffff3f 	bl	30009fb0 <dm9000_reg_write>
3000a2b0:	e3a00001 	mov	r0, #1
3000a2b4:	e3a0102c 	mov	r1, #44	; 0x2c
3000a2b8:	ebffff3c 	bl	30009fb0 <dm9000_reg_write>
3000a2bc:	e3a000fe 	mov	r0, #254	; 0xfe
3000a2c0:	e3a0100f 	mov	r1, #15
3000a2c4:	ebffff39 	bl	30009fb0 <dm9000_reg_write>
3000a2c8:	e3a03000 	mov	r3, #0
3000a2cc:	e50b3008 	str	r3, [fp, #-8]
3000a2d0:	ea00000e 	b	3000a310 <dm9000_init+0xc4>
3000a2d4:	e51b3008 	ldr	r3, [fp, #-8]
3000a2d8:	e1a03803 	lsl	r3, r3, #16
3000a2dc:	e1a03823 	lsr	r3, r3, #16
3000a2e0:	e2833010 	add	r3, r3, #16
3000a2e4:	e1a03803 	lsl	r3, r3, #16
3000a2e8:	e1a01823 	lsr	r1, r3, #16
3000a2ec:	e51b2008 	ldr	r2, [fp, #-8]
3000a2f0:	e59f3048 	ldr	r3, [pc, #72]	; 3000a340 <dm9000_init+0xf4>
3000a2f4:	e7d33002 	ldrb	r3, [r3, r2]
3000a2f8:	e1a00001 	mov	r0, r1
3000a2fc:	e1a01003 	mov	r1, r3
3000a300:	ebffff2a 	bl	30009fb0 <dm9000_reg_write>
3000a304:	e51b3008 	ldr	r3, [fp, #-8]
3000a308:	e2833001 	add	r3, r3, #1
3000a30c:	e50b3008 	str	r3, [fp, #-8]
3000a310:	e51b3008 	ldr	r3, [fp, #-8]
3000a314:	e3530005 	cmp	r3, #5
3000a318:	9affffed 	bls	3000a2d4 <dm9000_init+0x88>
3000a31c:	e3a00005 	mov	r0, #5
3000a320:	e3a01031 	mov	r1, #49	; 0x31
3000a324:	ebffff21 	bl	30009fb0 <dm9000_reg_write>
3000a328:	e3a000ff 	mov	r0, #255	; 0xff
3000a32c:	e3a01080 	mov	r1, #128	; 0x80
3000a330:	ebffff1e 	bl	30009fb0 <dm9000_reg_write>
3000a334:	e24bd004 	sub	sp, fp, #4
3000a338:	e8bd4800 	pop	{fp, lr}
3000a33c:	e12fff1e 	bx	lr
3000a340:	30010296 	mulcc	r1, r6, r2

3000a344 <dm9000_tx>:
3000a344:	e92d4800 	push	{fp, lr}
3000a348:	e28db004 	add	fp, sp, #4
3000a34c:	e24dd010 	sub	sp, sp, #16
3000a350:	e50b0010 	str	r0, [fp, #-16]
3000a354:	e50b1014 	str	r1, [fp, #-20]	; 0xffffffec
3000a358:	e3a000ff 	mov	r0, #255	; 0xff
3000a35c:	e3a01080 	mov	r1, #128	; 0x80
3000a360:	ebffff12 	bl	30009fb0 <dm9000_reg_write>
3000a364:	e51b3014 	ldr	r3, [fp, #-20]	; 0xffffffec
3000a368:	e1a03803 	lsl	r3, r3, #16
3000a36c:	e1a03823 	lsr	r3, r3, #16
3000a370:	e20330ff 	and	r3, r3, #255	; 0xff
3000a374:	e3a000fc 	mov	r0, #252	; 0xfc
3000a378:	e1a01003 	mov	r1, r3
3000a37c:	ebffff0b 	bl	30009fb0 <dm9000_reg_write>
3000a380:	e51b3014 	ldr	r3, [fp, #-20]	; 0xffffffec
3000a384:	e1a03423 	lsr	r3, r3, #8
3000a388:	e1a03803 	lsl	r3, r3, #16
3000a38c:	e1a03823 	lsr	r3, r3, #16
3000a390:	e20330ff 	and	r3, r3, #255	; 0xff
3000a394:	e3a000fd 	mov	r0, #253	; 0xfd
3000a398:	e1a01003 	mov	r1, r3
3000a39c:	ebffff03 	bl	30009fb0 <dm9000_reg_write>
3000a3a0:	e3a03322 	mov	r3, #-2013265920	; 0x88000000
3000a3a4:	e2833a01 	add	r3, r3, #4096	; 0x1000
3000a3a8:	e3a020f8 	mov	r2, #248	; 0xf8
3000a3ac:	e1c320b0 	strh	r2, [r3]
3000a3b0:	e3a03000 	mov	r3, #0
3000a3b4:	e50b300c 	str	r3, [fp, #-12]
3000a3b8:	ea000019 	b	3000a424 <dm9000_tx+0xe0>
3000a3bc:	e3a01322 	mov	r1, #-2013265920	; 0x88000000
3000a3c0:	e2811901 	add	r1, r1, #16384	; 0x4000
3000a3c4:	e281100c 	add	r1, r1, #12
3000a3c8:	e51b2010 	ldr	r2, [fp, #-16]
3000a3cc:	e51b300c 	ldr	r3, [fp, #-12]
3000a3d0:	e0823003 	add	r3, r2, r3
3000a3d4:	e5d33000 	ldrb	r3, [r3]
3000a3d8:	e1a00003 	mov	r0, r3
3000a3dc:	e51b300c 	ldr	r3, [fp, #-12]
3000a3e0:	e2832001 	add	r2, r3, #1
3000a3e4:	e51b3010 	ldr	r3, [fp, #-16]
3000a3e8:	e0833002 	add	r3, r3, r2
3000a3ec:	e5d33000 	ldrb	r3, [r3]
3000a3f0:	e1a03403 	lsl	r3, r3, #8
3000a3f4:	e1a03803 	lsl	r3, r3, #16
3000a3f8:	e1a03823 	lsr	r3, r3, #16
3000a3fc:	e1a02000 	mov	r2, r0
3000a400:	e1823003 	orr	r3, r2, r3
3000a404:	e1a03803 	lsl	r3, r3, #16
3000a408:	e1a03823 	lsr	r3, r3, #16
3000a40c:	e1a03803 	lsl	r3, r3, #16
3000a410:	e1a03823 	lsr	r3, r3, #16
3000a414:	e1c130b0 	strh	r3, [r1]
3000a418:	e51b300c 	ldr	r3, [fp, #-12]
3000a41c:	e2833002 	add	r3, r3, #2
3000a420:	e50b300c 	str	r3, [fp, #-12]
3000a424:	e51b200c 	ldr	r2, [fp, #-12]
3000a428:	e51b3014 	ldr	r3, [fp, #-20]	; 0xffffffec
3000a42c:	e1520003 	cmp	r2, r3
3000a430:	3affffe1 	bcc	3000a3bc <dm9000_tx+0x78>
3000a434:	e3a00002 	mov	r0, #2
3000a438:	e3a01001 	mov	r1, #1
3000a43c:	ebfffedb 	bl	30009fb0 <dm9000_reg_write>
3000a440:	e3a00002 	mov	r0, #2
3000a444:	ebfffeec 	bl	30009ffc <dm9000_reg_read>
3000a448:	e1a03000 	mov	r3, r0
3000a44c:	e54b3005 	strb	r3, [fp, #-5]
3000a450:	e55b3005 	ldrb	r3, [fp, #-5]
3000a454:	e2033001 	and	r3, r3, #1
3000a458:	e3530000 	cmp	r3, #0
3000a45c:	1afffff7 	bne	3000a440 <dm9000_tx+0xfc>
3000a460:	e3a00001 	mov	r0, #1
3000a464:	e3a0102c 	mov	r1, #44	; 0x2c
3000a468:	ebfffed0 	bl	30009fb0 <dm9000_reg_write>
3000a46c:	e3a000ff 	mov	r0, #255	; 0xff
3000a470:	e3a01081 	mov	r1, #129	; 0x81
3000a474:	ebfffecd 	bl	30009fb0 <dm9000_reg_write>
3000a478:	e24bd004 	sub	sp, fp, #4
3000a47c:	e8bd4800 	pop	{fp, lr}
3000a480:	e12fff1e 	bx	lr

3000a484 <dm9000_rx>:
3000a484:	e92d4800 	push	{fp, lr}
3000a488:	e28db004 	add	fp, sp, #4
3000a48c:	e24dd018 	sub	sp, sp, #24
3000a490:	e50b0018 	str	r0, [fp, #-24]	; 0xffffffe8
3000a494:	e3a03000 	mov	r3, #0
3000a498:	e54b3005 	strb	r3, [fp, #-5]
3000a49c:	e3a000fe 	mov	r0, #254	; 0xfe
3000a4a0:	ebfffed5 	bl	30009ffc <dm9000_reg_read>
3000a4a4:	e1a03000 	mov	r3, r0
3000a4a8:	e2033001 	and	r3, r3, #1
3000a4ac:	e20330ff 	and	r3, r3, #255	; 0xff
3000a4b0:	e3530000 	cmp	r3, #0
3000a4b4:	0a00000b 	beq	3000a4e8 <dm9000_rx+0x64>
3000a4b8:	e3a000fe 	mov	r0, #254	; 0xfe
3000a4bc:	e3a01001 	mov	r1, #1
3000a4c0:	ebfffeba 	bl	30009fb0 <dm9000_reg_write>
3000a4c4:	e3a000f0 	mov	r0, #240	; 0xf0
3000a4c8:	ebfffecb 	bl	30009ffc <dm9000_reg_read>
3000a4cc:	e1a03000 	mov	r3, r0
3000a4d0:	e54b3005 	strb	r3, [fp, #-5]
3000a4d4:	e55b3005 	ldrb	r3, [fp, #-5]
3000a4d8:	e2033001 	and	r3, r3, #1
3000a4dc:	e3530000 	cmp	r3, #0
3000a4e0:	0a000003 	beq	3000a4f4 <dm9000_rx+0x70>
3000a4e4:	ea00000d 	b	3000a520 <dm9000_rx+0x9c>
3000a4e8:	e3a03000 	mov	r3, #0
3000a4ec:	e50b301c 	str	r3, [fp, #-28]	; 0xffffffe4
3000a4f0:	ea000039 	b	3000a5dc <dm9000_rx+0x158>
3000a4f4:	e3a000f0 	mov	r0, #240	; 0xf0
3000a4f8:	ebfffebf 	bl	30009ffc <dm9000_reg_read>
3000a4fc:	e1a03000 	mov	r3, r0
3000a500:	e54b3005 	strb	r3, [fp, #-5]
3000a504:	e55b3005 	ldrb	r3, [fp, #-5]
3000a508:	e2033001 	and	r3, r3, #1
3000a50c:	e3530000 	cmp	r3, #0
3000a510:	1a000002 	bne	3000a520 <dm9000_rx+0x9c>
3000a514:	e3a03000 	mov	r3, #0
3000a518:	e50b301c 	str	r3, [fp, #-28]	; 0xffffffe4
3000a51c:	ea00002e 	b	3000a5dc <dm9000_rx+0x158>
3000a520:	e3a000f2 	mov	r0, #242	; 0xf2
3000a524:	ebfffeb4 	bl	30009ffc <dm9000_reg_read>
3000a528:	e1a03000 	mov	r3, r0
3000a52c:	e14b31b2 	strh	r3, [fp, #-18]	; 0xffffffee
3000a530:	e3a03322 	mov	r3, #-2013265920	; 0x88000000
3000a534:	e2833901 	add	r3, r3, #16384	; 0x4000
3000a538:	e283300c 	add	r3, r3, #12
3000a53c:	e1d330b0 	ldrh	r3, [r3]
3000a540:	e14b31b0 	strh	r3, [fp, #-16]
3000a544:	e15b21b0 	ldrh	r2, [fp, #-16]
3000a548:	e3a03e5f 	mov	r3, #1520	; 0x5f0
3000a54c:	e2833001 	add	r3, r3, #1
3000a550:	e1520003 	cmp	r2, r3
3000a554:	8a00001e 	bhi	3000a5d4 <dm9000_rx+0x150>
3000a558:	e3a03000 	mov	r3, #0
3000a55c:	e50b300c 	str	r3, [fp, #-12]
3000a560:	ea000017 	b	3000a5c4 <dm9000_rx+0x140>
3000a564:	e3a03322 	mov	r3, #-2013265920	; 0x88000000
3000a568:	e2833901 	add	r3, r3, #16384	; 0x4000
3000a56c:	e283300c 	add	r3, r3, #12
3000a570:	e1d330b0 	ldrh	r3, [r3]
3000a574:	e14b30be 	strh	r3, [fp, #-14]
3000a578:	e51b2018 	ldr	r2, [fp, #-24]	; 0xffffffe8
3000a57c:	e51b300c 	ldr	r3, [fp, #-12]
3000a580:	e0822003 	add	r2, r2, r3
3000a584:	e15b30be 	ldrh	r3, [fp, #-14]
3000a588:	e20330ff 	and	r3, r3, #255	; 0xff
3000a58c:	e5c23000 	strb	r3, [r2]
3000a590:	e51b300c 	ldr	r3, [fp, #-12]
3000a594:	e2832001 	add	r2, r3, #1
3000a598:	e51b3018 	ldr	r3, [fp, #-24]	; 0xffffffe8
3000a59c:	e0832002 	add	r2, r3, r2
3000a5a0:	e15b30be 	ldrh	r3, [fp, #-14]
3000a5a4:	e1a03423 	lsr	r3, r3, #8
3000a5a8:	e1a03803 	lsl	r3, r3, #16
3000a5ac:	e1a03823 	lsr	r3, r3, #16
3000a5b0:	e20330ff 	and	r3, r3, #255	; 0xff
3000a5b4:	e5c23000 	strb	r3, [r2]
3000a5b8:	e51b300c 	ldr	r3, [fp, #-12]
3000a5bc:	e2833002 	add	r3, r3, #2
3000a5c0:	e50b300c 	str	r3, [fp, #-12]
3000a5c4:	e15b21b0 	ldrh	r2, [fp, #-16]
3000a5c8:	e51b300c 	ldr	r3, [fp, #-12]
3000a5cc:	e1520003 	cmp	r2, r3
3000a5d0:	8affffe3 	bhi	3000a564 <dm9000_rx+0xe0>
3000a5d4:	e15b31b0 	ldrh	r3, [fp, #-16]
3000a5d8:	e50b301c 	str	r3, [fp, #-28]	; 0xffffffe4
3000a5dc:	e51b301c 	ldr	r3, [fp, #-28]	; 0xffffffe4
3000a5e0:	e1a00003 	mov	r0, r3
3000a5e4:	e24bd004 	sub	sp, fp, #4
3000a5e8:	e8bd4800 	pop	{fp, lr}
3000a5ec:	e12fff1e 	bx	lr

3000a5f0 <dm9000_isr>:
3000a5f0:	e92d4800 	push	{fp, lr}
3000a5f4:	e28db004 	add	fp, sp, #4
3000a5f8:	e59f0090 	ldr	r0, [pc, #144]	; 3000a690 <dm9000_isr+0xa0>
3000a5fc:	ebffffa0 	bl	3000a484 <dm9000_rx>
3000a600:	e1a03000 	mov	r3, r0
3000a604:	e1a02003 	mov	r2, r3
3000a608:	e59f3084 	ldr	r3, [pc, #132]	; 3000a694 <dm9000_isr+0xa4>
3000a60c:	e1c320b0 	strh	r2, [r3]
3000a610:	e59f307c 	ldr	r3, [pc, #124]	; 3000a694 <dm9000_isr+0xa4>
3000a614:	e1d330b0 	ldrh	r3, [r3]
3000a618:	e59f0070 	ldr	r0, [pc, #112]	; 3000a690 <dm9000_isr+0xa0>
3000a61c:	e1a01003 	mov	r1, r3
3000a620:	eb00103b 	bl	3000e714 <net_handle>
3000a624:	e3a0320e 	mov	r3, #-536870912	; 0xe0000000
3000a628:	e2833602 	add	r3, r3, #2097152	; 0x200000
3000a62c:	e2833d3d 	add	r3, r3, #3904	; 0xf40
3000a630:	e3e02000 	mvn	r2, #0
3000a634:	e5832000 	str	r2, [r3]
3000a638:	e3a034f2 	mov	r3, #-234881024	; 0xf2000000
3000a63c:	e2833c0f 	add	r3, r3, #3840	; 0xf00
3000a640:	e3a02000 	mov	r2, #0
3000a644:	e5832000 	str	r2, [r3]
3000a648:	e3a034f2 	mov	r3, #-234881024	; 0xf2000000
3000a64c:	e2833601 	add	r3, r3, #1048576	; 0x100000
3000a650:	e2833c0f 	add	r3, r3, #3840	; 0xf00
3000a654:	e3a02000 	mov	r2, #0
3000a658:	e5832000 	str	r2, [r3]
3000a65c:	e3a034f2 	mov	r3, #-234881024	; 0xf2000000
3000a660:	e2833602 	add	r3, r3, #2097152	; 0x200000
3000a664:	e2833c0f 	add	r3, r3, #3840	; 0xf00
3000a668:	e3a02000 	mov	r2, #0
3000a66c:	e5832000 	str	r2, [r3]
3000a670:	e3a034f2 	mov	r3, #-234881024	; 0xf2000000
3000a674:	e2833603 	add	r3, r3, #3145728	; 0x300000
3000a678:	e2833c0f 	add	r3, r3, #3840	; 0xf00
3000a67c:	e3a02000 	mov	r2, #0
3000a680:	e5832000 	str	r2, [r3]
3000a684:	e24bd004 	sub	sp, fp, #4
3000a688:	e8bd4800 	pop	{fp, lr}
3000a68c:	e12fff1e 	bx	lr
3000a690:	300103cc 	andcc	r0, r1, ip, asr #7
3000a694:	300109a8 	andcc	r0, r1, r8, lsr #19

3000a698 <dm9000_arp>:
3000a698:	e92d4800 	push	{fp, lr}
3000a69c:	e28db004 	add	fp, sp, #4
3000a6a0:	eb000f14 	bl	3000e2f8 <arp_request>
3000a6a4:	eafffffd 	b	3000a6a0 <dm9000_arp+0x8>
	...

3000a6b0 <__do_div64>:
3000a6b0:	e254c001 	subs	ip, r4, #1
3000a6b4:	9a00003f 	bls	3000a7b8 <__do_div64+0x108>
3000a6b8:	e11c0004 	tst	ip, r4
3000a6bc:	0a000028 	beq	3000a764 <__do_div64+0xb4>
3000a6c0:	e1510004 	cmp	r1, r4
3000a6c4:	e3a03000 	mov	r3, #0
3000a6c8:	3a00000c 	bcc	3000a700 <__do_div64+0x50>
3000a6cc:	e1a02004 	mov	r2, r4
3000a6d0:	e3a0c001 	mov	ip, #1
3000a6d4:	e3520102 	cmp	r2, #-2147483648	; 0x80000000
3000a6d8:	31520001 	cmpcc	r2, r1
3000a6dc:	31a02082 	lslcc	r2, r2, #1
3000a6e0:	31a0c08c 	lslcc	ip, ip, #1
3000a6e4:	3afffffa 	bcc	3000a6d4 <__do_div64+0x24>
3000a6e8:	e1510002 	cmp	r1, r2
3000a6ec:	2183300c 	orrcs	r3, r3, ip
3000a6f0:	20511002 	subscs	r1, r1, r2
3000a6f4:	11b0c0ac 	lsrsne	ip, ip, #1
3000a6f8:	e1a020a2 	lsr	r2, r2, #1
3000a6fc:	1afffff9 	bne	3000a6e8 <__do_div64+0x38>
3000a700:	e3510000 	cmp	r1, #0
3000a704:	e3a02000 	mov	r2, #0
3000a708:	01500004 	cmpeq	r0, r4
3000a70c:	31a01000 	movcc	r1, r0
3000a710:	31a0f00e 	movcc	pc, lr
3000a714:	e3a0c102 	mov	ip, #-2147483648	; 0x80000000
3000a718:	e1b00080 	lsls	r0, r0, #1
3000a71c:	e0b11001 	adcs	r1, r1, r1
3000a720:	0a000005 	beq	3000a73c <__do_div64+0x8c>
3000a724:	31510004 	cmpcc	r1, r4
3000a728:	2182200c 	orrcs	r2, r2, ip
3000a72c:	20411004 	subcs	r1, r1, r4
3000a730:	e1b0c0ac 	lsrs	ip, ip, #1
3000a734:	1afffff7 	bne	3000a718 <__do_div64+0x68>
3000a738:	e1a0f00e 	mov	pc, lr
3000a73c:	2afffff9 	bcs	3000a728 <__do_div64+0x78>
3000a740:	e3500000 	cmp	r0, #0
3000a744:	01a0f00e 	moveq	pc, lr
3000a748:	e1b00080 	lsls	r0, r0, #1
3000a74c:	e1a0c0ac 	lsr	ip, ip, #1
3000a750:	3afffffc 	bcc	3000a748 <__do_div64+0x98>
3000a754:	e1b0c0ac 	lsrs	ip, ip, #1
3000a758:	e3a01001 	mov	r1, #1
3000a75c:	1affffed 	bne	3000a718 <__do_div64+0x68>
3000a760:	e1a0f00e 	mov	pc, lr
3000a764:	e1a02004 	mov	r2, r4
3000a768:	e3540801 	cmp	r4, #65536	; 0x10000
3000a76c:	e3a0c000 	mov	ip, #0
3000a770:	21a02822 	lsrcs	r2, r2, #16
3000a774:	23a0c010 	movcs	ip, #16
3000a778:	e3520c01 	cmp	r2, #256	; 0x100
3000a77c:	21a02422 	lsrcs	r2, r2, #8
3000a780:	228cc008 	addcs	ip, ip, #8
3000a784:	e3520010 	cmp	r2, #16
3000a788:	21a02222 	lsrcs	r2, r2, #4
3000a78c:	228cc004 	addcs	ip, ip, #4
3000a790:	e3520004 	cmp	r2, #4
3000a794:	828cc003 	addhi	ip, ip, #3
3000a798:	908cc0a2 	addls	ip, ip, r2, lsr #1
3000a79c:	e1a03c31 	lsr	r3, r1, ip
3000a7a0:	e1a02c30 	lsr	r2, r0, ip
3000a7a4:	e26cc020 	rsb	ip, ip, #32
3000a7a8:	e1822c11 	orr	r2, r2, r1, lsl ip
3000a7ac:	e1a01c10 	lsl	r1, r0, ip
3000a7b0:	e1a01c31 	lsr	r1, r1, ip
3000a7b4:	e1a0f00e 	mov	pc, lr
3000a7b8:	01a02000 	moveq	r2, r0
3000a7bc:	01a03001 	moveq	r3, r1
3000a7c0:	03a01000 	moveq	r1, #0
3000a7c4:	01a0f00e 	moveq	pc, lr
3000a7c8:	e52de004 	push	{lr}		; (str lr, [sp, #-4]!)
3000a7cc:	e3a02000 	mov	r2, #0
3000a7d0:	e3a03000 	mov	r3, #0
3000a7d4:	e3a01000 	mov	r1, #0
3000a7d8:	e49df004 	pop	{pc}		; (ldr pc, [sp], #4)
3000a7dc:	e1a00000 	nop			; (mov r0, r0)

3000a7e0 <__udivsi3>:
3000a7e0:	e2512001 	subs	r2, r1, #1
3000a7e4:	01a0f00e 	moveq	pc, lr
3000a7e8:	3a0000e5 	bcc	3000ab84 <Ldiv0>
3000a7ec:	e1500001 	cmp	r0, r1
3000a7f0:	9a000022 	bls	3000a880 <__udivsi3+0xa0>
3000a7f4:	e1110002 	tst	r1, r2
3000a7f8:	0a000023 	beq	3000a88c <__udivsi3+0xac>
3000a7fc:	e311020e 	tst	r1, #-536870912	; 0xe0000000
3000a800:	01a01181 	lsleq	r1, r1, #3
3000a804:	03a03008 	moveq	r3, #8
3000a808:	13a03001 	movne	r3, #1
3000a80c:	e3510201 	cmp	r1, #268435456	; 0x10000000
3000a810:	31510000 	cmpcc	r1, r0
3000a814:	31a01201 	lslcc	r1, r1, #4
3000a818:	31a03203 	lslcc	r3, r3, #4
3000a81c:	3afffffa 	bcc	3000a80c <__udivsi3+0x2c>
3000a820:	e3510102 	cmp	r1, #-2147483648	; 0x80000000
3000a824:	31510000 	cmpcc	r1, r0
3000a828:	31a01081 	lslcc	r1, r1, #1
3000a82c:	31a03083 	lslcc	r3, r3, #1
3000a830:	3afffffa 	bcc	3000a820 <__udivsi3+0x40>
3000a834:	e3a02000 	mov	r2, #0
3000a838:	e1500001 	cmp	r0, r1
3000a83c:	20400001 	subcs	r0, r0, r1
3000a840:	21822003 	orrcs	r2, r2, r3
3000a844:	e15000a1 	cmp	r0, r1, lsr #1
3000a848:	204000a1 	subcs	r0, r0, r1, lsr #1
3000a84c:	218220a3 	orrcs	r2, r2, r3, lsr #1
3000a850:	e1500121 	cmp	r0, r1, lsr #2
3000a854:	20400121 	subcs	r0, r0, r1, lsr #2
3000a858:	21822123 	orrcs	r2, r2, r3, lsr #2
3000a85c:	e15001a1 	cmp	r0, r1, lsr #3
3000a860:	204001a1 	subcs	r0, r0, r1, lsr #3
3000a864:	218221a3 	orrcs	r2, r2, r3, lsr #3
3000a868:	e3500000 	cmp	r0, #0
3000a86c:	11b03223 	lsrsne	r3, r3, #4
3000a870:	11a01221 	lsrne	r1, r1, #4
3000a874:	1affffef 	bne	3000a838 <__udivsi3+0x58>
3000a878:	e1a00002 	mov	r0, r2
3000a87c:	e1a0f00e 	mov	pc, lr
3000a880:	03a00001 	moveq	r0, #1
3000a884:	13a00000 	movne	r0, #0
3000a888:	e1a0f00e 	mov	pc, lr
3000a88c:	e3510801 	cmp	r1, #65536	; 0x10000
3000a890:	21a01821 	lsrcs	r1, r1, #16
3000a894:	23a02010 	movcs	r2, #16
3000a898:	33a02000 	movcc	r2, #0
3000a89c:	e3510c01 	cmp	r1, #256	; 0x100
3000a8a0:	21a01421 	lsrcs	r1, r1, #8
3000a8a4:	22822008 	addcs	r2, r2, #8
3000a8a8:	e3510010 	cmp	r1, #16
3000a8ac:	21a01221 	lsrcs	r1, r1, #4
3000a8b0:	22822004 	addcs	r2, r2, #4
3000a8b4:	e3510004 	cmp	r1, #4
3000a8b8:	82822003 	addhi	r2, r2, #3
3000a8bc:	908220a1 	addls	r2, r2, r1, lsr #1
3000a8c0:	e1a00230 	lsr	r0, r0, r2
3000a8c4:	e1a0f00e 	mov	pc, lr
3000a8c8:	90909090 	umullsls	r9, r0, r0, r0
3000a8cc:	90909090 	umullsls	r9, r0, r0, r0

3000a8d0 <__umodsi3>:
3000a8d0:	e2512001 	subs	r2, r1, #1
3000a8d4:	3a0000aa 	bcc	3000ab84 <Ldiv0>
3000a8d8:	11500001 	cmpne	r0, r1
3000a8dc:	03a00000 	moveq	r0, #0
3000a8e0:	81110002 	tsthi	r1, r2
3000a8e4:	00000002 	andeq	r0, r0, r2
3000a8e8:	91a0f00e 	movls	pc, lr
3000a8ec:	e3a02000 	mov	r2, #0
3000a8f0:	e3510201 	cmp	r1, #268435456	; 0x10000000
3000a8f4:	31510000 	cmpcc	r1, r0
3000a8f8:	31a01201 	lslcc	r1, r1, #4
3000a8fc:	32822004 	addcc	r2, r2, #4
3000a900:	3afffffa 	bcc	3000a8f0 <__umodsi3+0x20>
3000a904:	e3510102 	cmp	r1, #-2147483648	; 0x80000000
3000a908:	31510000 	cmpcc	r1, r0
3000a90c:	31a01081 	lslcc	r1, r1, #1
3000a910:	32822001 	addcc	r2, r2, #1
3000a914:	3afffffa 	bcc	3000a904 <__umodsi3+0x34>
3000a918:	e2522003 	subs	r2, r2, #3
3000a91c:	ba00000e 	blt	3000a95c <__umodsi3+0x8c>
3000a920:	e1500001 	cmp	r0, r1
3000a924:	20400001 	subcs	r0, r0, r1
3000a928:	e15000a1 	cmp	r0, r1, lsr #1
3000a92c:	204000a1 	subcs	r0, r0, r1, lsr #1
3000a930:	e1500121 	cmp	r0, r1, lsr #2
3000a934:	20400121 	subcs	r0, r0, r1, lsr #2
3000a938:	e15001a1 	cmp	r0, r1, lsr #3
3000a93c:	204001a1 	subcs	r0, r0, r1, lsr #3
3000a940:	e3500001 	cmp	r0, #1
3000a944:	e1a01221 	lsr	r1, r1, #4
3000a948:	a2522004 	subsge	r2, r2, #4
3000a94c:	aafffff3 	bge	3000a920 <__umodsi3+0x50>
3000a950:	e3120003 	tst	r2, #3
3000a954:	13300000 	teqne	r0, #0
3000a958:	0a00000a 	beq	3000a988 <__umodsi3+0xb8>
3000a95c:	e3720002 	cmn	r2, #2
3000a960:	ba000006 	blt	3000a980 <__umodsi3+0xb0>
3000a964:	0a000002 	beq	3000a974 <__umodsi3+0xa4>
3000a968:	e1500001 	cmp	r0, r1
3000a96c:	20400001 	subcs	r0, r0, r1
3000a970:	e1a010a1 	lsr	r1, r1, #1
3000a974:	e1500001 	cmp	r0, r1
3000a978:	20400001 	subcs	r0, r0, r1
3000a97c:	e1a010a1 	lsr	r1, r1, #1
3000a980:	e1500001 	cmp	r0, r1
3000a984:	20400001 	subcs	r0, r0, r1
3000a988:	e1a0f00e 	mov	pc, lr
3000a98c:	90909090 	umullsls	r9, r0, r0, r0

3000a990 <__divsi3>:
3000a990:	e3510000 	cmp	r1, #0
3000a994:	e020c001 	eor	ip, r0, r1
3000a998:	0a000079 	beq	3000ab84 <Ldiv0>
3000a99c:	42611000 	rsbmi	r1, r1, #0
3000a9a0:	e2512001 	subs	r2, r1, #1
3000a9a4:	0a000027 	beq	3000aa48 <__divsi3+0xb8>
3000a9a8:	e1b03000 	movs	r3, r0
3000a9ac:	42603000 	rsbmi	r3, r0, #0
3000a9b0:	e1530001 	cmp	r3, r1
3000a9b4:	9a000026 	bls	3000aa54 <__divsi3+0xc4>
3000a9b8:	e1110002 	tst	r1, r2
3000a9bc:	0a000028 	beq	3000aa64 <__divsi3+0xd4>
3000a9c0:	e311020e 	tst	r1, #-536870912	; 0xe0000000
3000a9c4:	01a01181 	lsleq	r1, r1, #3
3000a9c8:	03a02008 	moveq	r2, #8
3000a9cc:	13a02001 	movne	r2, #1
3000a9d0:	e3510201 	cmp	r1, #268435456	; 0x10000000
3000a9d4:	31510003 	cmpcc	r1, r3
3000a9d8:	31a01201 	lslcc	r1, r1, #4
3000a9dc:	31a02202 	lslcc	r2, r2, #4
3000a9e0:	3afffffa 	bcc	3000a9d0 <__divsi3+0x40>
3000a9e4:	e3510102 	cmp	r1, #-2147483648	; 0x80000000
3000a9e8:	31510003 	cmpcc	r1, r3
3000a9ec:	31a01081 	lslcc	r1, r1, #1
3000a9f0:	31a02082 	lslcc	r2, r2, #1
3000a9f4:	3afffffa 	bcc	3000a9e4 <__divsi3+0x54>
3000a9f8:	e3a00000 	mov	r0, #0
3000a9fc:	e1530001 	cmp	r3, r1
3000aa00:	20433001 	subcs	r3, r3, r1
3000aa04:	21800002 	orrcs	r0, r0, r2
3000aa08:	e15300a1 	cmp	r3, r1, lsr #1
3000aa0c:	204330a1 	subcs	r3, r3, r1, lsr #1
3000aa10:	218000a2 	orrcs	r0, r0, r2, lsr #1
3000aa14:	e1530121 	cmp	r3, r1, lsr #2
3000aa18:	20433121 	subcs	r3, r3, r1, lsr #2
3000aa1c:	21800122 	orrcs	r0, r0, r2, lsr #2
3000aa20:	e15301a1 	cmp	r3, r1, lsr #3
3000aa24:	204331a1 	subcs	r3, r3, r1, lsr #3
3000aa28:	218001a2 	orrcs	r0, r0, r2, lsr #3
3000aa2c:	e3530000 	cmp	r3, #0
3000aa30:	11b02222 	lsrsne	r2, r2, #4
3000aa34:	11a01221 	lsrne	r1, r1, #4
3000aa38:	1affffef 	bne	3000a9fc <__divsi3+0x6c>
3000aa3c:	e35c0000 	cmp	ip, #0
3000aa40:	42600000 	rsbmi	r0, r0, #0
3000aa44:	e1a0f00e 	mov	pc, lr
3000aa48:	e13c0000 	teq	ip, r0
3000aa4c:	42600000 	rsbmi	r0, r0, #0
3000aa50:	e1a0f00e 	mov	pc, lr
3000aa54:	33a00000 	movcc	r0, #0
3000aa58:	01a00fcc 	asreq	r0, ip, #31
3000aa5c:	03800001 	orreq	r0, r0, #1
3000aa60:	e1a0f00e 	mov	pc, lr
3000aa64:	e3510801 	cmp	r1, #65536	; 0x10000
3000aa68:	21a01821 	lsrcs	r1, r1, #16
3000aa6c:	23a02010 	movcs	r2, #16
3000aa70:	33a02000 	movcc	r2, #0
3000aa74:	e3510c01 	cmp	r1, #256	; 0x100
3000aa78:	21a01421 	lsrcs	r1, r1, #8
3000aa7c:	22822008 	addcs	r2, r2, #8
3000aa80:	e3510010 	cmp	r1, #16
3000aa84:	21a01221 	lsrcs	r1, r1, #4
3000aa88:	22822004 	addcs	r2, r2, #4
3000aa8c:	e3510004 	cmp	r1, #4
3000aa90:	82822003 	addhi	r2, r2, #3
3000aa94:	908220a1 	addls	r2, r2, r1, lsr #1
3000aa98:	e35c0000 	cmp	ip, #0
3000aa9c:	e1a00233 	lsr	r0, r3, r2
3000aaa0:	42600000 	rsbmi	r0, r0, #0
3000aaa4:	e1a0f00e 	mov	pc, lr
3000aaa8:	90909090 	umullsls	r9, r0, r0, r0
3000aaac:	90909090 	umullsls	r9, r0, r0, r0

3000aab0 <__modsi3>:
3000aab0:	e3510000 	cmp	r1, #0
3000aab4:	0a000032 	beq	3000ab84 <Ldiv0>
3000aab8:	42611000 	rsbmi	r1, r1, #0
3000aabc:	e1b0c000 	movs	ip, r0
3000aac0:	42600000 	rsbmi	r0, r0, #0
3000aac4:	e2512001 	subs	r2, r1, #1
3000aac8:	11500001 	cmpne	r0, r1
3000aacc:	03a00000 	moveq	r0, #0
3000aad0:	81110002 	tsthi	r1, r2
3000aad4:	00000002 	andeq	r0, r0, r2
3000aad8:	9a000026 	bls	3000ab78 <__modsi3+0xc8>
3000aadc:	e3a02000 	mov	r2, #0
3000aae0:	e3510201 	cmp	r1, #268435456	; 0x10000000
3000aae4:	31510000 	cmpcc	r1, r0
3000aae8:	31a01201 	lslcc	r1, r1, #4
3000aaec:	32822004 	addcc	r2, r2, #4
3000aaf0:	3afffffa 	bcc	3000aae0 <__modsi3+0x30>
3000aaf4:	e3510102 	cmp	r1, #-2147483648	; 0x80000000
3000aaf8:	31510000 	cmpcc	r1, r0
3000aafc:	31a01081 	lslcc	r1, r1, #1
3000ab00:	32822001 	addcc	r2, r2, #1
3000ab04:	3afffffa 	bcc	3000aaf4 <__modsi3+0x44>
3000ab08:	e2522003 	subs	r2, r2, #3
3000ab0c:	ba00000e 	blt	3000ab4c <__modsi3+0x9c>
3000ab10:	e1500001 	cmp	r0, r1
3000ab14:	20400001 	subcs	r0, r0, r1
3000ab18:	e15000a1 	cmp	r0, r1, lsr #1
3000ab1c:	204000a1 	subcs	r0, r0, r1, lsr #1
3000ab20:	e1500121 	cmp	r0, r1, lsr #2
3000ab24:	20400121 	subcs	r0, r0, r1, lsr #2
3000ab28:	e15001a1 	cmp	r0, r1, lsr #3
3000ab2c:	204001a1 	subcs	r0, r0, r1, lsr #3
3000ab30:	e3500001 	cmp	r0, #1
3000ab34:	e1a01221 	lsr	r1, r1, #4
3000ab38:	a2522004 	subsge	r2, r2, #4
3000ab3c:	aafffff3 	bge	3000ab10 <__modsi3+0x60>
3000ab40:	e3120003 	tst	r2, #3
3000ab44:	13300000 	teqne	r0, #0
3000ab48:	0a00000a 	beq	3000ab78 <__modsi3+0xc8>
3000ab4c:	e3720002 	cmn	r2, #2
3000ab50:	ba000006 	blt	3000ab70 <__modsi3+0xc0>
3000ab54:	0a000002 	beq	3000ab64 <__modsi3+0xb4>
3000ab58:	e1500001 	cmp	r0, r1
3000ab5c:	20400001 	subcs	r0, r0, r1
3000ab60:	e1a010a1 	lsr	r1, r1, #1
3000ab64:	e1500001 	cmp	r0, r1
3000ab68:	20400001 	subcs	r0, r0, r1
3000ab6c:	e1a010a1 	lsr	r1, r1, #1
3000ab70:	e1500001 	cmp	r0, r1
3000ab74:	20400001 	subcs	r0, r0, r1
3000ab78:	e35c0000 	cmp	ip, #0
3000ab7c:	42600000 	rsbmi	r0, r0, #0
3000ab80:	e1a0f00e 	mov	pc, lr

3000ab84 <Ldiv0>:
3000ab84:	e52de004 	push	{lr}		; (str lr, [sp, #-4]!)
3000ab88:	e3a00000 	mov	r0, #0
3000ab8c:	e49df004 	pop	{pc}		; (ldr pc, [sp], #4)

3000ab90 <__muldi3>:
3000ab90:	e92d0810 	push	{r4, fp}
3000ab94:	e28db004 	add	fp, sp, #4
3000ab98:	e24dd040 	sub	sp, sp, #64	; 0x40
3000ab9c:	e50b002c 	str	r0, [fp, #-44]	; 0xffffffd4
3000aba0:	e50b1028 	str	r1, [fp, #-40]	; 0xffffffd8
3000aba4:	e50b2034 	str	r2, [fp, #-52]	; 0xffffffcc
3000aba8:	e50b3030 	str	r3, [fp, #-48]	; 0xffffffd0
3000abac:	e24b402c 	sub	r4, fp, #44	; 0x2c
3000abb0:	e8940018 	ldm	r4, {r3, r4}
3000abb4:	e50b3014 	str	r3, [fp, #-20]	; 0xffffffec
3000abb8:	e50b4010 	str	r4, [fp, #-16]
3000abbc:	e24b4034 	sub	r4, fp, #52	; 0x34
3000abc0:	e8940018 	ldm	r4, {r3, r4}
3000abc4:	e50b301c 	str	r3, [fp, #-28]	; 0xffffffe4
3000abc8:	e50b4018 	str	r4, [fp, #-24]	; 0xffffffe8
3000abcc:	e51b3014 	ldr	r3, [fp, #-20]	; 0xffffffec
3000abd0:	e1a02003 	mov	r2, r3
3000abd4:	e51b301c 	ldr	r3, [fp, #-28]	; 0xffffffe4
3000abd8:	e1a01822 	lsr	r1, r2, #16
3000abdc:	e1a00823 	lsr	r0, r3, #16
3000abe0:	e1c24801 	bic	r4, r2, r1, lsl #16
3000abe4:	e1c3c800 	bic	ip, r3, r0, lsl #16
3000abe8:	e0020c94 	mul	r2, r4, ip
3000abec:	e00c0c91 	mul	ip, r1, ip
3000abf0:	e0040490 	mul	r4, r0, r4
3000abf4:	e0000091 	mul	r0, r1, r0
3000abf8:	e09c4004 	adds	r4, ip, r4
3000abfc:	22800801 	addcs	r0, r0, #65536	; 0x10000
3000ac00:	e0922804 	adds	r2, r2, r4, lsl #16
3000ac04:	e0a00824 	adc	r0, r0, r4, lsr #16
3000ac08:	e1a03000 	mov	r3, r0
3000ac0c:	e50b3020 	str	r3, [fp, #-32]	; 0xffffffe0
3000ac10:	e50b2024 	str	r2, [fp, #-36]	; 0xffffffdc
3000ac14:	e24b4024 	sub	r4, fp, #36	; 0x24
3000ac18:	e8940018 	ldm	r4, {r3, r4}
3000ac1c:	e50b300c 	str	r3, [fp, #-12]
3000ac20:	e50b4008 	str	r4, [fp, #-8]
3000ac24:	e51b3008 	ldr	r3, [fp, #-8]
3000ac28:	e1a00003 	mov	r0, r3
3000ac2c:	e51b3014 	ldr	r3, [fp, #-20]	; 0xffffffec
3000ac30:	e1a02003 	mov	r2, r3
3000ac34:	e51b3018 	ldr	r3, [fp, #-24]	; 0xffffffe8
3000ac38:	e0010293 	mul	r1, r3, r2
3000ac3c:	e51b3010 	ldr	r3, [fp, #-16]
3000ac40:	e1a02003 	mov	r2, r3
3000ac44:	e51b301c 	ldr	r3, [fp, #-28]	; 0xffffffe4
3000ac48:	e0030392 	mul	r3, r2, r3
3000ac4c:	e0813003 	add	r3, r1, r3
3000ac50:	e0803003 	add	r3, r0, r3
3000ac54:	e50b3008 	str	r3, [fp, #-8]
3000ac58:	e24b400c 	sub	r4, fp, #12
3000ac5c:	e8940018 	ldm	r4, {r3, r4}
3000ac60:	e1a00003 	mov	r0, r3
3000ac64:	e1a01004 	mov	r1, r4
3000ac68:	e24bd004 	sub	sp, fp, #4
3000ac6c:	e8bd0810 	pop	{r4, fp}
3000ac70:	e12fff1e 	bx	lr

3000ac74 <printf>:
3000ac74:	e92d000f 	push	{r0, r1, r2, r3}
3000ac78:	e92d4800 	push	{fp, lr}
3000ac7c:	e28db004 	add	fp, sp, #4
3000ac80:	e24dd008 	sub	sp, sp, #8
3000ac84:	e28b3004 	add	r3, fp, #4
3000ac88:	e2833004 	add	r3, r3, #4
3000ac8c:	e50b300c 	str	r3, [fp, #-12]
3000ac90:	e59b3004 	ldr	r3, [fp, #4]
3000ac94:	e59f0078 	ldr	r0, [pc, #120]	; 3000ad14 <printf+0xa0>
3000ac98:	e1a01003 	mov	r1, r3
3000ac9c:	e51b200c 	ldr	r2, [fp, #-12]
3000aca0:	eb000a57 	bl	3000d604 <vsprintf>
3000aca4:	e3a03000 	mov	r3, #0
3000aca8:	e50b3008 	str	r3, [fp, #-8]
3000acac:	ea00000c 	b	3000ace4 <printf+0x70>
3000acb0:	e51b2008 	ldr	r2, [fp, #-8]
3000acb4:	e59f3058 	ldr	r3, [pc, #88]	; 3000ad14 <printf+0xa0>
3000acb8:	e7d33002 	ldrb	r3, [r3, r2]
3000acbc:	e1a00003 	mov	r0, r3
3000acc0:	ebfff8b8 	bl	30008fa8 <uart0_sendbyte>
3000acc4:	e51b2008 	ldr	r2, [fp, #-8]
3000acc8:	e59f3044 	ldr	r3, [pc, #68]	; 3000ad14 <printf+0xa0>
3000accc:	e7d33002 	ldrb	r3, [r3, r2]
3000acd0:	e1a00003 	mov	r0, r3
3000acd4:	ebfffc48 	bl	30009dfc <lcd_draw_char>
3000acd8:	e51b3008 	ldr	r3, [fp, #-8]
3000acdc:	e2833001 	add	r3, r3, #1
3000ace0:	e50b3008 	str	r3, [fp, #-8]
3000ace4:	e59f0028 	ldr	r0, [pc, #40]	; 3000ad14 <printf+0xa0>
3000ace8:	eb0001c8 	bl	3000b410 <strlen>
3000acec:	e1a02000 	mov	r2, r0
3000acf0:	e51b3008 	ldr	r3, [fp, #-8]
3000acf4:	e1520003 	cmp	r2, r3
3000acf8:	caffffec 	bgt	3000acb0 <printf+0x3c>
3000acfc:	e51b3008 	ldr	r3, [fp, #-8]
3000ad00:	e1a00003 	mov	r0, r3
3000ad04:	e24bd004 	sub	sp, fp, #4
3000ad08:	e8bd4800 	pop	{fp, lr}
3000ad0c:	e28dd010 	add	sp, sp, #16
3000ad10:	e12fff1e 	bx	lr
3000ad14:	30010dd8 	ldrdcc	r0, [r1], -r8

3000ad18 <scanf>:
3000ad18:	e92d000f 	push	{r0, r1, r2, r3}
3000ad1c:	e92d4800 	push	{fp, lr}
3000ad20:	e28db004 	add	fp, sp, #4
3000ad24:	e24dd010 	sub	sp, sp, #16
3000ad28:	e3a03000 	mov	r3, #0
3000ad2c:	e50b300c 	str	r3, [fp, #-12]
3000ad30:	ebfff8b0 	bl	30008ff8 <uart0_getbyte>
3000ad34:	e1a03000 	mov	r3, r0
3000ad38:	e54b300d 	strb	r3, [fp, #-13]
3000ad3c:	e55b300d 	ldrb	r3, [fp, #-13]
3000ad40:	e353000d 	cmp	r3, #13
3000ad44:	0a000002 	beq	3000ad54 <scanf+0x3c>
3000ad48:	e55b300d 	ldrb	r3, [fp, #-13]
3000ad4c:	e353000a 	cmp	r3, #10
3000ad50:	1a000011 	bne	3000ad9c <scanf+0x84>
3000ad54:	e51b100c 	ldr	r1, [fp, #-12]
3000ad58:	e59f205c 	ldr	r2, [pc, #92]	; 3000adbc <scanf+0xa4>
3000ad5c:	e3a0300a 	mov	r3, #10
3000ad60:	e7c23001 	strb	r3, [r2, r1]
3000ad64:	e28b3004 	add	r3, fp, #4
3000ad68:	e2833004 	add	r3, r3, #4
3000ad6c:	e50b3008 	str	r3, [fp, #-8]
3000ad70:	e59b3004 	ldr	r3, [fp, #4]
3000ad74:	e59f0040 	ldr	r0, [pc, #64]	; 3000adbc <scanf+0xa4>
3000ad78:	e1a01003 	mov	r1, r3
3000ad7c:	e51b2008 	ldr	r2, [fp, #-8]
3000ad80:	eb000a44 	bl	3000d698 <vsscanf>
3000ad84:	e51b300c 	ldr	r3, [fp, #-12]
3000ad88:	e1a00003 	mov	r0, r3
3000ad8c:	e24bd004 	sub	sp, fp, #4
3000ad90:	e8bd4800 	pop	{fp, lr}
3000ad94:	e28dd010 	add	sp, sp, #16
3000ad98:	e12fff1e 	bx	lr
3000ad9c:	e51b100c 	ldr	r1, [fp, #-12]
3000ada0:	e59f2014 	ldr	r2, [pc, #20]	; 3000adbc <scanf+0xa4>
3000ada4:	e55b300d 	ldrb	r3, [fp, #-13]
3000ada8:	e7c23001 	strb	r3, [r2, r1]
3000adac:	e51b300c 	ldr	r3, [fp, #-12]
3000adb0:	e2833001 	add	r3, r3, #1
3000adb4:	e50b300c 	str	r3, [fp, #-12]
3000adb8:	eaffffdc 	b	3000ad30 <scanf+0x18>
3000adbc:	300109d4 	ldrdcc	r0, [r1], -r4

3000adc0 <strnicmp>:
3000adc0:	e92d4800 	push	{fp, lr}
3000adc4:	e28db004 	add	fp, sp, #4
3000adc8:	e24dd018 	sub	sp, sp, #24
3000adcc:	e50b0010 	str	r0, [fp, #-16]
3000add0:	e50b1014 	str	r1, [fp, #-20]	; 0xffffffec
3000add4:	e50b2018 	str	r2, [fp, #-24]	; 0xffffffe8
3000add8:	e3a03000 	mov	r3, #0
3000addc:	e54b3006 	strb	r3, [fp, #-6]
3000ade0:	e3a03000 	mov	r3, #0
3000ade4:	e54b3005 	strb	r3, [fp, #-5]
3000ade8:	e51b3018 	ldr	r3, [fp, #-24]	; 0xffffffe8
3000adec:	e3530000 	cmp	r3, #0
3000adf0:	0a000029 	beq	3000ae9c <strnicmp+0xdc>
3000adf4:	e51b3010 	ldr	r3, [fp, #-16]
3000adf8:	e5d33000 	ldrb	r3, [r3]
3000adfc:	e54b3006 	strb	r3, [fp, #-6]
3000ae00:	e51b3014 	ldr	r3, [fp, #-20]	; 0xffffffec
3000ae04:	e5d33000 	ldrb	r3, [r3]
3000ae08:	e54b3005 	strb	r3, [fp, #-5]
3000ae0c:	e51b3010 	ldr	r3, [fp, #-16]
3000ae10:	e2833001 	add	r3, r3, #1
3000ae14:	e50b3010 	str	r3, [fp, #-16]
3000ae18:	e51b3014 	ldr	r3, [fp, #-20]	; 0xffffffec
3000ae1c:	e2833001 	add	r3, r3, #1
3000ae20:	e50b3014 	str	r3, [fp, #-20]	; 0xffffffec
3000ae24:	e55b3006 	ldrb	r3, [fp, #-6]
3000ae28:	e3530000 	cmp	r3, #0
3000ae2c:	0a00001a 	beq	3000ae9c <strnicmp+0xdc>
3000ae30:	e55b3005 	ldrb	r3, [fp, #-5]
3000ae34:	e3530000 	cmp	r3, #0
3000ae38:	0a000017 	beq	3000ae9c <strnicmp+0xdc>
3000ae3c:	e55b2006 	ldrb	r2, [fp, #-6]
3000ae40:	e55b3005 	ldrb	r3, [fp, #-5]
3000ae44:	e1520003 	cmp	r2, r3
3000ae48:	0a00000d 	beq	3000ae84 <strnicmp+0xc4>
3000ae4c:	e55b3006 	ldrb	r3, [fp, #-6]
3000ae50:	e1a00003 	mov	r0, r3
3000ae54:	eb000017 	bl	3000aeb8 <__tolower>
3000ae58:	e1a03000 	mov	r3, r0
3000ae5c:	e54b3006 	strb	r3, [fp, #-6]
3000ae60:	e55b3005 	ldrb	r3, [fp, #-5]
3000ae64:	e1a00003 	mov	r0, r3
3000ae68:	eb000012 	bl	3000aeb8 <__tolower>
3000ae6c:	e1a03000 	mov	r3, r0
3000ae70:	e54b3005 	strb	r3, [fp, #-5]
3000ae74:	e55b2006 	ldrb	r2, [fp, #-6]
3000ae78:	e55b3005 	ldrb	r3, [fp, #-5]
3000ae7c:	e1520003 	cmp	r2, r3
3000ae80:	1a000005 	bne	3000ae9c <strnicmp+0xdc>
3000ae84:	e51b3018 	ldr	r3, [fp, #-24]	; 0xffffffe8
3000ae88:	e2433001 	sub	r3, r3, #1
3000ae8c:	e50b3018 	str	r3, [fp, #-24]	; 0xffffffe8
3000ae90:	e51b3018 	ldr	r3, [fp, #-24]	; 0xffffffe8
3000ae94:	e3530000 	cmp	r3, #0
3000ae98:	1affffd5 	bne	3000adf4 <strnicmp+0x34>
3000ae9c:	e55b2006 	ldrb	r2, [fp, #-6]
3000aea0:	e55b3005 	ldrb	r3, [fp, #-5]
3000aea4:	e0633002 	rsb	r3, r3, r2
3000aea8:	e1a00003 	mov	r0, r3
3000aeac:	e24bd004 	sub	sp, fp, #4
3000aeb0:	e8bd4800 	pop	{fp, lr}
3000aeb4:	e12fff1e 	bx	lr

3000aeb8 <__tolower>:
3000aeb8:	e52db004 	push	{fp}		; (str fp, [sp, #-4]!)
3000aebc:	e28db000 	add	fp, sp, #0
3000aec0:	e24dd00c 	sub	sp, sp, #12
3000aec4:	e1a03000 	mov	r3, r0
3000aec8:	e54b3005 	strb	r3, [fp, #-5]
3000aecc:	e55b2005 	ldrb	r2, [fp, #-5]
3000aed0:	e59f3030 	ldr	r3, [pc, #48]	; 3000af08 <__tolower+0x50>
3000aed4:	e7d33002 	ldrb	r3, [r3, r2]
3000aed8:	e2033001 	and	r3, r3, #1
3000aedc:	e20330ff 	and	r3, r3, #255	; 0xff
3000aee0:	e3530000 	cmp	r3, #0
3000aee4:	0a000002 	beq	3000aef4 <__tolower+0x3c>
3000aee8:	e55b3005 	ldrb	r3, [fp, #-5]
3000aeec:	e2833020 	add	r3, r3, #32
3000aef0:	e54b3005 	strb	r3, [fp, #-5]
3000aef4:	e55b3005 	ldrb	r3, [fp, #-5]
3000aef8:	e1a00003 	mov	r0, r3
3000aefc:	e28bd000 	add	sp, fp, #0
3000af00:	e8bd0800 	ldmfd	sp!, {fp}
3000af04:	e12fff1e 	bx	lr
3000af08:	300102a4 	andcc	r0, r1, r4, lsr #5

3000af0c <strcpy>:
3000af0c:	e52db004 	push	{fp}		; (str fp, [sp, #-4]!)
3000af10:	e28db000 	add	fp, sp, #0
3000af14:	e24dd014 	sub	sp, sp, #20
3000af18:	e50b0010 	str	r0, [fp, #-16]
3000af1c:	e50b1014 	str	r1, [fp, #-20]	; 0xffffffec
3000af20:	e51b3010 	ldr	r3, [fp, #-16]
3000af24:	e50b3008 	str	r3, [fp, #-8]
3000af28:	e51b3014 	ldr	r3, [fp, #-20]	; 0xffffffec
3000af2c:	e5d33000 	ldrb	r3, [r3]
3000af30:	e51b2010 	ldr	r2, [fp, #-16]
3000af34:	e5c23000 	strb	r3, [r2]
3000af38:	e51b3010 	ldr	r3, [fp, #-16]
3000af3c:	e5d33000 	ldrb	r3, [r3]
3000af40:	e3530000 	cmp	r3, #0
3000af44:	03a03000 	moveq	r3, #0
3000af48:	13a03001 	movne	r3, #1
3000af4c:	e20320ff 	and	r2, r3, #255	; 0xff
3000af50:	e51b3010 	ldr	r3, [fp, #-16]
3000af54:	e2833001 	add	r3, r3, #1
3000af58:	e50b3010 	str	r3, [fp, #-16]
3000af5c:	e51b3014 	ldr	r3, [fp, #-20]	; 0xffffffec
3000af60:	e2833001 	add	r3, r3, #1
3000af64:	e50b3014 	str	r3, [fp, #-20]	; 0xffffffec
3000af68:	e3520000 	cmp	r2, #0
3000af6c:	1affffed 	bne	3000af28 <strcpy+0x1c>
3000af70:	e51b3008 	ldr	r3, [fp, #-8]
3000af74:	e1a00003 	mov	r0, r3
3000af78:	e28bd000 	add	sp, fp, #0
3000af7c:	e8bd0800 	ldmfd	sp!, {fp}
3000af80:	e12fff1e 	bx	lr

3000af84 <strncpy>:
3000af84:	e52db004 	push	{fp}		; (str fp, [sp, #-4]!)
3000af88:	e28db000 	add	fp, sp, #0
3000af8c:	e24dd01c 	sub	sp, sp, #28
3000af90:	e50b0010 	str	r0, [fp, #-16]
3000af94:	e50b1014 	str	r1, [fp, #-20]	; 0xffffffec
3000af98:	e50b2018 	str	r2, [fp, #-24]	; 0xffffffe8
3000af9c:	e51b3010 	ldr	r3, [fp, #-16]
3000afa0:	e50b3008 	str	r3, [fp, #-8]
3000afa4:	e51b3018 	ldr	r3, [fp, #-24]	; 0xffffffe8
3000afa8:	e3530000 	cmp	r3, #0
3000afac:	03a03000 	moveq	r3, #0
3000afb0:	13a03001 	movne	r3, #1
3000afb4:	e20320ff 	and	r2, r3, #255	; 0xff
3000afb8:	e51b3018 	ldr	r3, [fp, #-24]	; 0xffffffe8
3000afbc:	e2433001 	sub	r3, r3, #1
3000afc0:	e50b3018 	str	r3, [fp, #-24]	; 0xffffffe8
3000afc4:	e2223001 	eor	r3, r2, #1
3000afc8:	e20330ff 	and	r3, r3, #255	; 0xff
3000afcc:	e3530000 	cmp	r3, #0
3000afd0:	1a000011 	bne	3000b01c <strncpy+0x98>
3000afd4:	e51b3014 	ldr	r3, [fp, #-20]	; 0xffffffec
3000afd8:	e5d33000 	ldrb	r3, [r3]
3000afdc:	e51b2010 	ldr	r2, [fp, #-16]
3000afe0:	e5c23000 	strb	r3, [r2]
3000afe4:	e51b3010 	ldr	r3, [fp, #-16]
3000afe8:	e5d33000 	ldrb	r3, [r3]
3000afec:	e3530000 	cmp	r3, #0
3000aff0:	03a03000 	moveq	r3, #0
3000aff4:	13a03001 	movne	r3, #1
3000aff8:	e20320ff 	and	r2, r3, #255	; 0xff
3000affc:	e51b3010 	ldr	r3, [fp, #-16]
3000b000:	e2833001 	add	r3, r3, #1
3000b004:	e50b3010 	str	r3, [fp, #-16]
3000b008:	e51b3014 	ldr	r3, [fp, #-20]	; 0xffffffec
3000b00c:	e2833001 	add	r3, r3, #1
3000b010:	e50b3014 	str	r3, [fp, #-20]	; 0xffffffec
3000b014:	e3520000 	cmp	r2, #0
3000b018:	1affffe1 	bne	3000afa4 <strncpy+0x20>
3000b01c:	e51b3008 	ldr	r3, [fp, #-8]
3000b020:	e1a00003 	mov	r0, r3
3000b024:	e28bd000 	add	sp, fp, #0
3000b028:	e8bd0800 	ldmfd	sp!, {fp}
3000b02c:	e12fff1e 	bx	lr

3000b030 <strcat>:
3000b030:	e52db004 	push	{fp}		; (str fp, [sp, #-4]!)
3000b034:	e28db000 	add	fp, sp, #0
3000b038:	e24dd014 	sub	sp, sp, #20
3000b03c:	e50b0010 	str	r0, [fp, #-16]
3000b040:	e50b1014 	str	r1, [fp, #-20]	; 0xffffffec
3000b044:	e51b3010 	ldr	r3, [fp, #-16]
3000b048:	e50b3008 	str	r3, [fp, #-8]
3000b04c:	ea000002 	b	3000b05c <strcat+0x2c>
3000b050:	e51b3010 	ldr	r3, [fp, #-16]
3000b054:	e2833001 	add	r3, r3, #1
3000b058:	e50b3010 	str	r3, [fp, #-16]
3000b05c:	e51b3010 	ldr	r3, [fp, #-16]
3000b060:	e5d33000 	ldrb	r3, [r3]
3000b064:	e3530000 	cmp	r3, #0
3000b068:	1afffff8 	bne	3000b050 <strcat+0x20>
3000b06c:	e51b3014 	ldr	r3, [fp, #-20]	; 0xffffffec
3000b070:	e5d33000 	ldrb	r3, [r3]
3000b074:	e51b2010 	ldr	r2, [fp, #-16]
3000b078:	e5c23000 	strb	r3, [r2]
3000b07c:	e51b3010 	ldr	r3, [fp, #-16]
3000b080:	e5d33000 	ldrb	r3, [r3]
3000b084:	e3530000 	cmp	r3, #0
3000b088:	03a03000 	moveq	r3, #0
3000b08c:	13a03001 	movne	r3, #1
3000b090:	e20320ff 	and	r2, r3, #255	; 0xff
3000b094:	e51b3010 	ldr	r3, [fp, #-16]
3000b098:	e2833001 	add	r3, r3, #1
3000b09c:	e50b3010 	str	r3, [fp, #-16]
3000b0a0:	e51b3014 	ldr	r3, [fp, #-20]	; 0xffffffec
3000b0a4:	e2833001 	add	r3, r3, #1
3000b0a8:	e50b3014 	str	r3, [fp, #-20]	; 0xffffffec
3000b0ac:	e3520000 	cmp	r2, #0
3000b0b0:	1affffed 	bne	3000b06c <strcat+0x3c>
3000b0b4:	e51b3008 	ldr	r3, [fp, #-8]
3000b0b8:	e1a00003 	mov	r0, r3
3000b0bc:	e28bd000 	add	sp, fp, #0
3000b0c0:	e8bd0800 	ldmfd	sp!, {fp}
3000b0c4:	e12fff1e 	bx	lr

3000b0c8 <strncat>:
3000b0c8:	e52db004 	push	{fp}		; (str fp, [sp, #-4]!)
3000b0cc:	e28db000 	add	fp, sp, #0
3000b0d0:	e24dd01c 	sub	sp, sp, #28
3000b0d4:	e50b0010 	str	r0, [fp, #-16]
3000b0d8:	e50b1014 	str	r1, [fp, #-20]	; 0xffffffec
3000b0dc:	e50b2018 	str	r2, [fp, #-24]	; 0xffffffe8
3000b0e0:	e51b3010 	ldr	r3, [fp, #-16]
3000b0e4:	e50b3008 	str	r3, [fp, #-8]
3000b0e8:	e51b3018 	ldr	r3, [fp, #-24]	; 0xffffffe8
3000b0ec:	e3530000 	cmp	r3, #0
3000b0f0:	0a000024 	beq	3000b188 <strncat+0xc0>
3000b0f4:	ea000002 	b	3000b104 <strncat+0x3c>
3000b0f8:	e51b3010 	ldr	r3, [fp, #-16]
3000b0fc:	e2833001 	add	r3, r3, #1
3000b100:	e50b3010 	str	r3, [fp, #-16]
3000b104:	e51b3010 	ldr	r3, [fp, #-16]
3000b108:	e5d33000 	ldrb	r3, [r3]
3000b10c:	e3530000 	cmp	r3, #0
3000b110:	1afffff8 	bne	3000b0f8 <strncat+0x30>
3000b114:	ea000009 	b	3000b140 <strncat+0x78>
3000b118:	e51b3018 	ldr	r3, [fp, #-24]	; 0xffffffe8
3000b11c:	e2433001 	sub	r3, r3, #1
3000b120:	e50b3018 	str	r3, [fp, #-24]	; 0xffffffe8
3000b124:	e51b3018 	ldr	r3, [fp, #-24]	; 0xffffffe8
3000b128:	e3530000 	cmp	r3, #0
3000b12c:	1a000003 	bne	3000b140 <strncat+0x78>
3000b130:	e51b3010 	ldr	r3, [fp, #-16]
3000b134:	e3a02000 	mov	r2, #0
3000b138:	e5c32000 	strb	r2, [r3]
3000b13c:	ea000011 	b	3000b188 <strncat+0xc0>
3000b140:	e51b3014 	ldr	r3, [fp, #-20]	; 0xffffffec
3000b144:	e5d33000 	ldrb	r3, [r3]
3000b148:	e51b2010 	ldr	r2, [fp, #-16]
3000b14c:	e5c23000 	strb	r3, [r2]
3000b150:	e51b3010 	ldr	r3, [fp, #-16]
3000b154:	e5d33000 	ldrb	r3, [r3]
3000b158:	e3530000 	cmp	r3, #0
3000b15c:	03a03000 	moveq	r3, #0
3000b160:	13a03001 	movne	r3, #1
3000b164:	e20320ff 	and	r2, r3, #255	; 0xff
3000b168:	e51b3010 	ldr	r3, [fp, #-16]
3000b16c:	e2833001 	add	r3, r3, #1
3000b170:	e50b3010 	str	r3, [fp, #-16]
3000b174:	e51b3014 	ldr	r3, [fp, #-20]	; 0xffffffec
3000b178:	e2833001 	add	r3, r3, #1
3000b17c:	e50b3014 	str	r3, [fp, #-20]	; 0xffffffec
3000b180:	e3520000 	cmp	r2, #0
3000b184:	1affffe3 	bne	3000b118 <strncat+0x50>
3000b188:	e51b3008 	ldr	r3, [fp, #-8]
3000b18c:	e1a00003 	mov	r0, r3
3000b190:	e28bd000 	add	sp, fp, #0
3000b194:	e8bd0800 	ldmfd	sp!, {fp}
3000b198:	e12fff1e 	bx	lr

3000b19c <strcmp>:
3000b19c:	e52db004 	push	{fp}		; (str fp, [sp, #-4]!)
3000b1a0:	e28db000 	add	fp, sp, #0
3000b1a4:	e24dd014 	sub	sp, sp, #20
3000b1a8:	e50b0008 	str	r0, [fp, #-8]
3000b1ac:	e50b100c 	str	r1, [fp, #-12]
3000b1b0:	e51b3008 	ldr	r3, [fp, #-8]
3000b1b4:	e5d32000 	ldrb	r2, [r3]
3000b1b8:	e51b300c 	ldr	r3, [fp, #-12]
3000b1bc:	e5d33000 	ldrb	r3, [r3]
3000b1c0:	e0633002 	rsb	r3, r3, r2
3000b1c4:	e20330ff 	and	r3, r3, #255	; 0xff
3000b1c8:	e50b3010 	str	r3, [fp, #-16]
3000b1cc:	e51b2010 	ldr	r2, [fp, #-16]
3000b1d0:	e1a03c02 	lsl	r3, r2, #24
3000b1d4:	e1a03c43 	asr	r3, r3, #24
3000b1d8:	e3530000 	cmp	r3, #0
3000b1dc:	03a03000 	moveq	r3, #0
3000b1e0:	13a03001 	movne	r3, #1
3000b1e4:	e20320ff 	and	r2, r3, #255	; 0xff
3000b1e8:	e51b300c 	ldr	r3, [fp, #-12]
3000b1ec:	e2833001 	add	r3, r3, #1
3000b1f0:	e50b300c 	str	r3, [fp, #-12]
3000b1f4:	e3520000 	cmp	r2, #0
3000b1f8:	1a00000a 	bne	3000b228 <strcmp+0x8c>
3000b1fc:	e51b3008 	ldr	r3, [fp, #-8]
3000b200:	e5d33000 	ldrb	r3, [r3]
3000b204:	e3530000 	cmp	r3, #0
3000b208:	13a03000 	movne	r3, #0
3000b20c:	03a03001 	moveq	r3, #1
3000b210:	e20320ff 	and	r2, r3, #255	; 0xff
3000b214:	e51b3008 	ldr	r3, [fp, #-8]
3000b218:	e2833001 	add	r3, r3, #1
3000b21c:	e50b3008 	str	r3, [fp, #-8]
3000b220:	e3520000 	cmp	r2, #0
3000b224:	0affffe1 	beq	3000b1b0 <strcmp+0x14>
3000b228:	e51b2010 	ldr	r2, [fp, #-16]
3000b22c:	e1a03c02 	lsl	r3, r2, #24
3000b230:	e1a03c43 	asr	r3, r3, #24
3000b234:	e1a00003 	mov	r0, r3
3000b238:	e28bd000 	add	sp, fp, #0
3000b23c:	e8bd0800 	ldmfd	sp!, {fp}
3000b240:	e12fff1e 	bx	lr

3000b244 <strncmp>:
3000b244:	e52db004 	push	{fp}		; (str fp, [sp, #-4]!)
3000b248:	e28db000 	add	fp, sp, #0
3000b24c:	e24dd014 	sub	sp, sp, #20
3000b250:	e50b0008 	str	r0, [fp, #-8]
3000b254:	e50b100c 	str	r1, [fp, #-12]
3000b258:	e50b2010 	str	r2, [fp, #-16]
3000b25c:	e3a02000 	mov	r2, #0
3000b260:	e50b2014 	str	r2, [fp, #-20]	; 0xffffffec
3000b264:	ea000020 	b	3000b2ec <strncmp+0xa8>
3000b268:	e51b3008 	ldr	r3, [fp, #-8]
3000b26c:	e5d32000 	ldrb	r2, [r3]
3000b270:	e51b300c 	ldr	r3, [fp, #-12]
3000b274:	e5d33000 	ldrb	r3, [r3]
3000b278:	e0633002 	rsb	r3, r3, r2
3000b27c:	e20330ff 	and	r3, r3, #255	; 0xff
3000b280:	e50b3014 	str	r3, [fp, #-20]	; 0xffffffec
3000b284:	e51b2014 	ldr	r2, [fp, #-20]	; 0xffffffec
3000b288:	e1a03c02 	lsl	r3, r2, #24
3000b28c:	e1a03c43 	asr	r3, r3, #24
3000b290:	e3530000 	cmp	r3, #0
3000b294:	03a03000 	moveq	r3, #0
3000b298:	13a03001 	movne	r3, #1
3000b29c:	e20320ff 	and	r2, r3, #255	; 0xff
3000b2a0:	e51b300c 	ldr	r3, [fp, #-12]
3000b2a4:	e2833001 	add	r3, r3, #1
3000b2a8:	e50b300c 	str	r3, [fp, #-12]
3000b2ac:	e3520000 	cmp	r2, #0
3000b2b0:	1a000010 	bne	3000b2f8 <strncmp+0xb4>
3000b2b4:	e51b3008 	ldr	r3, [fp, #-8]
3000b2b8:	e5d33000 	ldrb	r3, [r3]
3000b2bc:	e3530000 	cmp	r3, #0
3000b2c0:	13a03000 	movne	r3, #0
3000b2c4:	03a03001 	moveq	r3, #1
3000b2c8:	e20320ff 	and	r2, r3, #255	; 0xff
3000b2cc:	e51b3008 	ldr	r3, [fp, #-8]
3000b2d0:	e2833001 	add	r3, r3, #1
3000b2d4:	e50b3008 	str	r3, [fp, #-8]
3000b2d8:	e3520000 	cmp	r2, #0
3000b2dc:	1a000005 	bne	3000b2f8 <strncmp+0xb4>
3000b2e0:	e51b3010 	ldr	r3, [fp, #-16]
3000b2e4:	e2433001 	sub	r3, r3, #1
3000b2e8:	e50b3010 	str	r3, [fp, #-16]
3000b2ec:	e51b3010 	ldr	r3, [fp, #-16]
3000b2f0:	e3530000 	cmp	r3, #0
3000b2f4:	1affffdb 	bne	3000b268 <strncmp+0x24>
3000b2f8:	e51b2014 	ldr	r2, [fp, #-20]	; 0xffffffec
3000b2fc:	e1a03c02 	lsl	r3, r2, #24
3000b300:	e1a03c43 	asr	r3, r3, #24
3000b304:	e1a00003 	mov	r0, r3
3000b308:	e28bd000 	add	sp, fp, #0
3000b30c:	e8bd0800 	ldmfd	sp!, {fp}
3000b310:	e12fff1e 	bx	lr

3000b314 <strchr>:
3000b314:	e52db004 	push	{fp}		; (str fp, [sp, #-4]!)
3000b318:	e28db000 	add	fp, sp, #0
3000b31c:	e24dd014 	sub	sp, sp, #20
3000b320:	e50b0008 	str	r0, [fp, #-8]
3000b324:	e50b100c 	str	r1, [fp, #-12]
3000b328:	ea000009 	b	3000b354 <strchr+0x40>
3000b32c:	e51b3008 	ldr	r3, [fp, #-8]
3000b330:	e5d33000 	ldrb	r3, [r3]
3000b334:	e3530000 	cmp	r3, #0
3000b338:	1a000002 	bne	3000b348 <strchr+0x34>
3000b33c:	e3a03000 	mov	r3, #0
3000b340:	e50b3010 	str	r3, [fp, #-16]
3000b344:	ea00000a 	b	3000b374 <strchr+0x60>
3000b348:	e51b3008 	ldr	r3, [fp, #-8]
3000b34c:	e2833001 	add	r3, r3, #1
3000b350:	e50b3008 	str	r3, [fp, #-8]
3000b354:	e51b3008 	ldr	r3, [fp, #-8]
3000b358:	e5d32000 	ldrb	r2, [r3]
3000b35c:	e51b300c 	ldr	r3, [fp, #-12]
3000b360:	e20330ff 	and	r3, r3, #255	; 0xff
3000b364:	e1520003 	cmp	r2, r3
3000b368:	1affffef 	bne	3000b32c <strchr+0x18>
3000b36c:	e51b3008 	ldr	r3, [fp, #-8]
3000b370:	e50b3010 	str	r3, [fp, #-16]
3000b374:	e51b3010 	ldr	r3, [fp, #-16]
3000b378:	e1a00003 	mov	r0, r3
3000b37c:	e28bd000 	add	sp, fp, #0
3000b380:	e8bd0800 	ldmfd	sp!, {fp}
3000b384:	e12fff1e 	bx	lr

3000b388 <strrchr>:
3000b388:	e92d4800 	push	{fp, lr}
3000b38c:	e28db004 	add	fp, sp, #4
3000b390:	e24dd018 	sub	sp, sp, #24
3000b394:	e50b0010 	str	r0, [fp, #-16]
3000b398:	e50b1014 	str	r1, [fp, #-20]	; 0xffffffec
3000b39c:	e51b0010 	ldr	r0, [fp, #-16]
3000b3a0:	eb00001a 	bl	3000b410 <strlen>
3000b3a4:	e1a03000 	mov	r3, r0
3000b3a8:	e51b2010 	ldr	r2, [fp, #-16]
3000b3ac:	e0823003 	add	r3, r2, r3
3000b3b0:	e50b3008 	str	r3, [fp, #-8]
3000b3b4:	e51b3008 	ldr	r3, [fp, #-8]
3000b3b8:	e5d32000 	ldrb	r2, [r3]
3000b3bc:	e51b3014 	ldr	r3, [fp, #-20]	; 0xffffffec
3000b3c0:	e20330ff 	and	r3, r3, #255	; 0xff
3000b3c4:	e1520003 	cmp	r2, r3
3000b3c8:	1a000002 	bne	3000b3d8 <strrchr+0x50>
3000b3cc:	e51b3008 	ldr	r3, [fp, #-8]
3000b3d0:	e50b3018 	str	r3, [fp, #-24]	; 0xffffffe8
3000b3d4:	ea000008 	b	3000b3fc <strrchr+0x74>
3000b3d8:	e51b3008 	ldr	r3, [fp, #-8]
3000b3dc:	e2433001 	sub	r3, r3, #1
3000b3e0:	e50b3008 	str	r3, [fp, #-8]
3000b3e4:	e51b2008 	ldr	r2, [fp, #-8]
3000b3e8:	e51b3010 	ldr	r3, [fp, #-16]
3000b3ec:	e1520003 	cmp	r2, r3
3000b3f0:	2affffef 	bcs	3000b3b4 <strrchr+0x2c>
3000b3f4:	e3a03000 	mov	r3, #0
3000b3f8:	e50b3018 	str	r3, [fp, #-24]	; 0xffffffe8
3000b3fc:	e51b3018 	ldr	r3, [fp, #-24]	; 0xffffffe8
3000b400:	e1a00003 	mov	r0, r3
3000b404:	e24bd004 	sub	sp, fp, #4
3000b408:	e8bd4800 	pop	{fp, lr}
3000b40c:	e12fff1e 	bx	lr

3000b410 <strlen>:
3000b410:	e52db004 	push	{fp}		; (str fp, [sp, #-4]!)
3000b414:	e28db000 	add	fp, sp, #0
3000b418:	e24dd014 	sub	sp, sp, #20
3000b41c:	e50b0010 	str	r0, [fp, #-16]
3000b420:	e51b3010 	ldr	r3, [fp, #-16]
3000b424:	e50b3008 	str	r3, [fp, #-8]
3000b428:	ea000002 	b	3000b438 <strlen+0x28>
3000b42c:	e51b3008 	ldr	r3, [fp, #-8]
3000b430:	e2833001 	add	r3, r3, #1
3000b434:	e50b3008 	str	r3, [fp, #-8]
3000b438:	e51b3008 	ldr	r3, [fp, #-8]
3000b43c:	e5d33000 	ldrb	r3, [r3]
3000b440:	e3530000 	cmp	r3, #0
3000b444:	1afffff8 	bne	3000b42c <strlen+0x1c>
3000b448:	e51b2008 	ldr	r2, [fp, #-8]
3000b44c:	e51b3010 	ldr	r3, [fp, #-16]
3000b450:	e0633002 	rsb	r3, r3, r2
3000b454:	e1a00003 	mov	r0, r3
3000b458:	e28bd000 	add	sp, fp, #0
3000b45c:	e8bd0800 	ldmfd	sp!, {fp}
3000b460:	e12fff1e 	bx	lr

3000b464 <strnlen>:
3000b464:	e52db004 	push	{fp}		; (str fp, [sp, #-4]!)
3000b468:	e28db000 	add	fp, sp, #0
3000b46c:	e24dd014 	sub	sp, sp, #20
3000b470:	e50b0010 	str	r0, [fp, #-16]
3000b474:	e50b1014 	str	r1, [fp, #-20]	; 0xffffffec
3000b478:	e51b3010 	ldr	r3, [fp, #-16]
3000b47c:	e50b3008 	str	r3, [fp, #-8]
3000b480:	ea000002 	b	3000b490 <strnlen+0x2c>
3000b484:	e51b3008 	ldr	r3, [fp, #-8]
3000b488:	e2833001 	add	r3, r3, #1
3000b48c:	e50b3008 	str	r3, [fp, #-8]
3000b490:	e51b3014 	ldr	r3, [fp, #-20]	; 0xffffffec
3000b494:	e3530000 	cmp	r3, #0
3000b498:	03a03000 	moveq	r3, #0
3000b49c:	13a03001 	movne	r3, #1
3000b4a0:	e20320ff 	and	r2, r3, #255	; 0xff
3000b4a4:	e51b3014 	ldr	r3, [fp, #-20]	; 0xffffffec
3000b4a8:	e2433001 	sub	r3, r3, #1
3000b4ac:	e50b3014 	str	r3, [fp, #-20]	; 0xffffffec
3000b4b0:	e2223001 	eor	r3, r2, #1
3000b4b4:	e20330ff 	and	r3, r3, #255	; 0xff
3000b4b8:	e3530000 	cmp	r3, #0
3000b4bc:	1a000003 	bne	3000b4d0 <strnlen+0x6c>
3000b4c0:	e51b3008 	ldr	r3, [fp, #-8]
3000b4c4:	e5d33000 	ldrb	r3, [r3]
3000b4c8:	e3530000 	cmp	r3, #0
3000b4cc:	1affffec 	bne	3000b484 <strnlen+0x20>
3000b4d0:	e51b2008 	ldr	r2, [fp, #-8]
3000b4d4:	e51b3010 	ldr	r3, [fp, #-16]
3000b4d8:	e0633002 	rsb	r3, r3, r2
3000b4dc:	e1a00003 	mov	r0, r3
3000b4e0:	e28bd000 	add	sp, fp, #0
3000b4e4:	e8bd0800 	ldmfd	sp!, {fp}
3000b4e8:	e12fff1e 	bx	lr

3000b4ec <strspn>:
3000b4ec:	e52db004 	push	{fp}		; (str fp, [sp, #-4]!)
3000b4f0:	e28db000 	add	fp, sp, #0
3000b4f4:	e24dd024 	sub	sp, sp, #36	; 0x24
3000b4f8:	e50b0018 	str	r0, [fp, #-24]	; 0xffffffe8
3000b4fc:	e50b101c 	str	r1, [fp, #-28]	; 0xffffffe4
3000b500:	e3a03000 	mov	r3, #0
3000b504:	e50b3008 	str	r3, [fp, #-8]
3000b508:	e51b3018 	ldr	r3, [fp, #-24]	; 0xffffffe8
3000b50c:	e50b3010 	str	r3, [fp, #-16]
3000b510:	ea00001c 	b	3000b588 <strspn+0x9c>
3000b514:	e51b301c 	ldr	r3, [fp, #-28]	; 0xffffffe4
3000b518:	e50b300c 	str	r3, [fp, #-12]
3000b51c:	ea000008 	b	3000b544 <strspn+0x58>
3000b520:	e51b3010 	ldr	r3, [fp, #-16]
3000b524:	e5d32000 	ldrb	r2, [r3]
3000b528:	e51b300c 	ldr	r3, [fp, #-12]
3000b52c:	e5d33000 	ldrb	r3, [r3]
3000b530:	e1520003 	cmp	r2, r3
3000b534:	0a000006 	beq	3000b554 <strspn+0x68>
3000b538:	e51b300c 	ldr	r3, [fp, #-12]
3000b53c:	e2833001 	add	r3, r3, #1
3000b540:	e50b300c 	str	r3, [fp, #-12]
3000b544:	e51b300c 	ldr	r3, [fp, #-12]
3000b548:	e5d33000 	ldrb	r3, [r3]
3000b54c:	e3530000 	cmp	r3, #0
3000b550:	1afffff2 	bne	3000b520 <strspn+0x34>
3000b554:	e51b300c 	ldr	r3, [fp, #-12]
3000b558:	e5d33000 	ldrb	r3, [r3]
3000b55c:	e3530000 	cmp	r3, #0
3000b560:	1a000002 	bne	3000b570 <strspn+0x84>
3000b564:	e51b3008 	ldr	r3, [fp, #-8]
3000b568:	e50b3020 	str	r3, [fp, #-32]	; 0xffffffe0
3000b56c:	ea00000b 	b	3000b5a0 <strspn+0xb4>
3000b570:	e51b3008 	ldr	r3, [fp, #-8]
3000b574:	e2833001 	add	r3, r3, #1
3000b578:	e50b3008 	str	r3, [fp, #-8]
3000b57c:	e51b3010 	ldr	r3, [fp, #-16]
3000b580:	e2833001 	add	r3, r3, #1
3000b584:	e50b3010 	str	r3, [fp, #-16]
3000b588:	e51b3010 	ldr	r3, [fp, #-16]
3000b58c:	e5d33000 	ldrb	r3, [r3]
3000b590:	e3530000 	cmp	r3, #0
3000b594:	1affffde 	bne	3000b514 <strspn+0x28>
3000b598:	e51b3008 	ldr	r3, [fp, #-8]
3000b59c:	e50b3020 	str	r3, [fp, #-32]	; 0xffffffe0
3000b5a0:	e51b3020 	ldr	r3, [fp, #-32]	; 0xffffffe0
3000b5a4:	e1a00003 	mov	r0, r3
3000b5a8:	e28bd000 	add	sp, fp, #0
3000b5ac:	e8bd0800 	ldmfd	sp!, {fp}
3000b5b0:	e12fff1e 	bx	lr

3000b5b4 <strpbrk>:
3000b5b4:	e52db004 	push	{fp}		; (str fp, [sp, #-4]!)
3000b5b8:	e28db000 	add	fp, sp, #0
3000b5bc:	e24dd01c 	sub	sp, sp, #28
3000b5c0:	e50b0010 	str	r0, [fp, #-16]
3000b5c4:	e50b1014 	str	r1, [fp, #-20]	; 0xffffffec
3000b5c8:	e51b3010 	ldr	r3, [fp, #-16]
3000b5cc:	e50b300c 	str	r3, [fp, #-12]
3000b5d0:	ea000015 	b	3000b62c <strpbrk+0x78>
3000b5d4:	e51b3014 	ldr	r3, [fp, #-20]	; 0xffffffec
3000b5d8:	e50b3008 	str	r3, [fp, #-8]
3000b5dc:	ea00000b 	b	3000b610 <strpbrk+0x5c>
3000b5e0:	e51b300c 	ldr	r3, [fp, #-12]
3000b5e4:	e5d32000 	ldrb	r2, [r3]
3000b5e8:	e51b3008 	ldr	r3, [fp, #-8]
3000b5ec:	e5d33000 	ldrb	r3, [r3]
3000b5f0:	e1520003 	cmp	r2, r3
3000b5f4:	1a000002 	bne	3000b604 <strpbrk+0x50>
3000b5f8:	e51b300c 	ldr	r3, [fp, #-12]
3000b5fc:	e50b3018 	str	r3, [fp, #-24]	; 0xffffffe8
3000b600:	ea00000f 	b	3000b644 <strpbrk+0x90>
3000b604:	e51b3008 	ldr	r3, [fp, #-8]
3000b608:	e2833001 	add	r3, r3, #1
3000b60c:	e50b3008 	str	r3, [fp, #-8]
3000b610:	e51b3008 	ldr	r3, [fp, #-8]
3000b614:	e5d33000 	ldrb	r3, [r3]
3000b618:	e3530000 	cmp	r3, #0
3000b61c:	1affffef 	bne	3000b5e0 <strpbrk+0x2c>
3000b620:	e51b300c 	ldr	r3, [fp, #-12]
3000b624:	e2833001 	add	r3, r3, #1
3000b628:	e50b300c 	str	r3, [fp, #-12]
3000b62c:	e51b300c 	ldr	r3, [fp, #-12]
3000b630:	e5d33000 	ldrb	r3, [r3]
3000b634:	e3530000 	cmp	r3, #0
3000b638:	1affffe5 	bne	3000b5d4 <strpbrk+0x20>
3000b63c:	e3a03000 	mov	r3, #0
3000b640:	e50b3018 	str	r3, [fp, #-24]	; 0xffffffe8
3000b644:	e51b3018 	ldr	r3, [fp, #-24]	; 0xffffffe8
3000b648:	e1a00003 	mov	r0, r3
3000b64c:	e28bd000 	add	sp, fp, #0
3000b650:	e8bd0800 	ldmfd	sp!, {fp}
3000b654:	e12fff1e 	bx	lr

3000b658 <strtok>:
3000b658:	e92d4800 	push	{fp, lr}
3000b65c:	e28db004 	add	fp, sp, #4
3000b660:	e24dd018 	sub	sp, sp, #24
3000b664:	e50b0010 	str	r0, [fp, #-16]
3000b668:	e50b1014 	str	r1, [fp, #-20]	; 0xffffffec
3000b66c:	e51b3010 	ldr	r3, [fp, #-16]
3000b670:	e3530000 	cmp	r3, #0
3000b674:	0a000002 	beq	3000b684 <strtok+0x2c>
3000b678:	e51b3010 	ldr	r3, [fp, #-16]
3000b67c:	e50b301c 	str	r3, [fp, #-28]	; 0xffffffe4
3000b680:	ea000002 	b	3000b690 <strtok+0x38>
3000b684:	e59f30d8 	ldr	r3, [pc, #216]	; 3000b764 <strtok+0x10c>
3000b688:	e5933000 	ldr	r3, [r3]
3000b68c:	e50b301c 	str	r3, [fp, #-28]	; 0xffffffe4
3000b690:	e51b301c 	ldr	r3, [fp, #-28]	; 0xffffffe4
3000b694:	e50b300c 	str	r3, [fp, #-12]
3000b698:	e51b300c 	ldr	r3, [fp, #-12]
3000b69c:	e3530000 	cmp	r3, #0
3000b6a0:	1a000002 	bne	3000b6b0 <strtok+0x58>
3000b6a4:	e3a03000 	mov	r3, #0
3000b6a8:	e50b3018 	str	r3, [fp, #-24]	; 0xffffffe8
3000b6ac:	ea000027 	b	3000b750 <strtok+0xf8>
3000b6b0:	e51b000c 	ldr	r0, [fp, #-12]
3000b6b4:	e51b1014 	ldr	r1, [fp, #-20]	; 0xffffffec
3000b6b8:	ebffff8b 	bl	3000b4ec <strspn>
3000b6bc:	e1a02000 	mov	r2, r0
3000b6c0:	e51b300c 	ldr	r3, [fp, #-12]
3000b6c4:	e0833002 	add	r3, r3, r2
3000b6c8:	e50b300c 	str	r3, [fp, #-12]
3000b6cc:	e51b300c 	ldr	r3, [fp, #-12]
3000b6d0:	e5d33000 	ldrb	r3, [r3]
3000b6d4:	e3530000 	cmp	r3, #0
3000b6d8:	1a000005 	bne	3000b6f4 <strtok+0x9c>
3000b6dc:	e59f2080 	ldr	r2, [pc, #128]	; 3000b764 <strtok+0x10c>
3000b6e0:	e3a03000 	mov	r3, #0
3000b6e4:	e5823000 	str	r3, [r2]
3000b6e8:	e3a03000 	mov	r3, #0
3000b6ec:	e50b3018 	str	r3, [fp, #-24]	; 0xffffffe8
3000b6f0:	ea000016 	b	3000b750 <strtok+0xf8>
3000b6f4:	e51b000c 	ldr	r0, [fp, #-12]
3000b6f8:	e51b1014 	ldr	r1, [fp, #-20]	; 0xffffffec
3000b6fc:	ebffffac 	bl	3000b5b4 <strpbrk>
3000b700:	e1a03000 	mov	r3, r0
3000b704:	e50b3008 	str	r3, [fp, #-8]
3000b708:	e51b3008 	ldr	r3, [fp, #-8]
3000b70c:	e3530000 	cmp	r3, #0
3000b710:	0a000009 	beq	3000b73c <strtok+0xe4>
3000b714:	e51b3008 	ldr	r3, [fp, #-8]
3000b718:	e5d33000 	ldrb	r3, [r3]
3000b71c:	e3530000 	cmp	r3, #0
3000b720:	0a000005 	beq	3000b73c <strtok+0xe4>
3000b724:	e51b2008 	ldr	r2, [fp, #-8]
3000b728:	e3a03000 	mov	r3, #0
3000b72c:	e5c23000 	strb	r3, [r2]
3000b730:	e51b3008 	ldr	r3, [fp, #-8]
3000b734:	e2833001 	add	r3, r3, #1
3000b738:	e50b3008 	str	r3, [fp, #-8]
3000b73c:	e59f2020 	ldr	r2, [pc, #32]	; 3000b764 <strtok+0x10c>
3000b740:	e51b3008 	ldr	r3, [fp, #-8]
3000b744:	e5823000 	str	r3, [r2]
3000b748:	e51b300c 	ldr	r3, [fp, #-12]
3000b74c:	e50b3018 	str	r3, [fp, #-24]	; 0xffffffe8
3000b750:	e51b3018 	ldr	r3, [fp, #-24]	; 0xffffffe8
3000b754:	e1a00003 	mov	r0, r3
3000b758:	e24bd004 	sub	sp, fp, #4
3000b75c:	e8bd4800 	pop	{fp, lr}
3000b760:	e12fff1e 	bx	lr
3000b764:	30010dd4 	ldrdcc	r0, [r1], -r4

3000b768 <strsep>:
3000b768:	e92d4800 	push	{fp, lr}
3000b76c:	e28db004 	add	fp, sp, #4
3000b770:	e24dd018 	sub	sp, sp, #24
3000b774:	e50b0010 	str	r0, [fp, #-16]
3000b778:	e50b1014 	str	r1, [fp, #-20]	; 0xffffffec
3000b77c:	e51b3010 	ldr	r3, [fp, #-16]
3000b780:	e5933000 	ldr	r3, [r3]
3000b784:	e50b300c 	str	r3, [fp, #-12]
3000b788:	e51b300c 	ldr	r3, [fp, #-12]
3000b78c:	e3530000 	cmp	r3, #0
3000b790:	1a000002 	bne	3000b7a0 <strsep+0x38>
3000b794:	e3a03000 	mov	r3, #0
3000b798:	e50b3018 	str	r3, [fp, #-24]	; 0xffffffe8
3000b79c:	ea000012 	b	3000b7ec <strsep+0x84>
3000b7a0:	e51b000c 	ldr	r0, [fp, #-12]
3000b7a4:	e51b1014 	ldr	r1, [fp, #-20]	; 0xffffffec
3000b7a8:	ebffff81 	bl	3000b5b4 <strpbrk>
3000b7ac:	e1a03000 	mov	r3, r0
3000b7b0:	e50b3008 	str	r3, [fp, #-8]
3000b7b4:	e51b3008 	ldr	r3, [fp, #-8]
3000b7b8:	e3530000 	cmp	r3, #0
3000b7bc:	0a000005 	beq	3000b7d8 <strsep+0x70>
3000b7c0:	e51b2008 	ldr	r2, [fp, #-8]
3000b7c4:	e3a03000 	mov	r3, #0
3000b7c8:	e5c23000 	strb	r3, [r2]
3000b7cc:	e51b3008 	ldr	r3, [fp, #-8]
3000b7d0:	e2833001 	add	r3, r3, #1
3000b7d4:	e50b3008 	str	r3, [fp, #-8]
3000b7d8:	e51b2010 	ldr	r2, [fp, #-16]
3000b7dc:	e51b3008 	ldr	r3, [fp, #-8]
3000b7e0:	e5823000 	str	r3, [r2]
3000b7e4:	e51b300c 	ldr	r3, [fp, #-12]
3000b7e8:	e50b3018 	str	r3, [fp, #-24]	; 0xffffffe8
3000b7ec:	e51b3018 	ldr	r3, [fp, #-24]	; 0xffffffe8
3000b7f0:	e1a00003 	mov	r0, r3
3000b7f4:	e24bd004 	sub	sp, fp, #4
3000b7f8:	e8bd4800 	pop	{fp, lr}
3000b7fc:	e12fff1e 	bx	lr

3000b800 <memset>:
3000b800:	e52db004 	push	{fp}		; (str fp, [sp, #-4]!)
3000b804:	e28db000 	add	fp, sp, #0
3000b808:	e24dd01c 	sub	sp, sp, #28
3000b80c:	e50b0010 	str	r0, [fp, #-16]
3000b810:	e50b1014 	str	r1, [fp, #-20]	; 0xffffffec
3000b814:	e50b2018 	str	r2, [fp, #-24]	; 0xffffffe8
3000b818:	e51b3010 	ldr	r3, [fp, #-16]
3000b81c:	e50b3008 	str	r3, [fp, #-8]
3000b820:	ea000006 	b	3000b840 <memset+0x40>
3000b824:	e51b3014 	ldr	r3, [fp, #-20]	; 0xffffffec
3000b828:	e20330ff 	and	r3, r3, #255	; 0xff
3000b82c:	e51b2008 	ldr	r2, [fp, #-8]
3000b830:	e5c23000 	strb	r3, [r2]
3000b834:	e51b3008 	ldr	r3, [fp, #-8]
3000b838:	e2833001 	add	r3, r3, #1
3000b83c:	e50b3008 	str	r3, [fp, #-8]
3000b840:	e51b3018 	ldr	r3, [fp, #-24]	; 0xffffffe8
3000b844:	e3530000 	cmp	r3, #0
3000b848:	03a03000 	moveq	r3, #0
3000b84c:	13a03001 	movne	r3, #1
3000b850:	e20320ff 	and	r2, r3, #255	; 0xff
3000b854:	e51b3018 	ldr	r3, [fp, #-24]	; 0xffffffe8
3000b858:	e2433001 	sub	r3, r3, #1
3000b85c:	e50b3018 	str	r3, [fp, #-24]	; 0xffffffe8
3000b860:	e3520000 	cmp	r2, #0
3000b864:	1affffee 	bne	3000b824 <memset+0x24>
3000b868:	e51b3010 	ldr	r3, [fp, #-16]
3000b86c:	e1a00003 	mov	r0, r3
3000b870:	e28bd000 	add	sp, fp, #0
3000b874:	e8bd0800 	ldmfd	sp!, {fp}
3000b878:	e12fff1e 	bx	lr

3000b87c <bcopy>:
3000b87c:	e52db004 	push	{fp}		; (str fp, [sp, #-4]!)
3000b880:	e28db000 	add	fp, sp, #0
3000b884:	e24dd01c 	sub	sp, sp, #28
3000b888:	e50b0010 	str	r0, [fp, #-16]
3000b88c:	e50b1014 	str	r1, [fp, #-20]	; 0xffffffec
3000b890:	e50b2018 	str	r2, [fp, #-24]	; 0xffffffe8
3000b894:	e51b3014 	ldr	r3, [fp, #-20]	; 0xffffffec
3000b898:	e50b300c 	str	r3, [fp, #-12]
3000b89c:	e51b3010 	ldr	r3, [fp, #-16]
3000b8a0:	e50b3008 	str	r3, [fp, #-8]
3000b8a4:	ea000009 	b	3000b8d0 <bcopy+0x54>
3000b8a8:	e51b3008 	ldr	r3, [fp, #-8]
3000b8ac:	e5d33000 	ldrb	r3, [r3]
3000b8b0:	e51b200c 	ldr	r2, [fp, #-12]
3000b8b4:	e5c23000 	strb	r3, [r2]
3000b8b8:	e51b300c 	ldr	r3, [fp, #-12]
3000b8bc:	e2833001 	add	r3, r3, #1
3000b8c0:	e50b300c 	str	r3, [fp, #-12]
3000b8c4:	e51b3008 	ldr	r3, [fp, #-8]
3000b8c8:	e2833001 	add	r3, r3, #1
3000b8cc:	e50b3008 	str	r3, [fp, #-8]
3000b8d0:	e51b3018 	ldr	r3, [fp, #-24]	; 0xffffffe8
3000b8d4:	e3530000 	cmp	r3, #0
3000b8d8:	03a03000 	moveq	r3, #0
3000b8dc:	13a03001 	movne	r3, #1
3000b8e0:	e20320ff 	and	r2, r3, #255	; 0xff
3000b8e4:	e51b3018 	ldr	r3, [fp, #-24]	; 0xffffffe8
3000b8e8:	e2433001 	sub	r3, r3, #1
3000b8ec:	e50b3018 	str	r3, [fp, #-24]	; 0xffffffe8
3000b8f0:	e3520000 	cmp	r2, #0
3000b8f4:	1affffeb 	bne	3000b8a8 <bcopy+0x2c>
3000b8f8:	e28bd000 	add	sp, fp, #0
3000b8fc:	e8bd0800 	ldmfd	sp!, {fp}
3000b900:	e12fff1e 	bx	lr

3000b904 <memcpy>:
3000b904:	e52db004 	push	{fp}		; (str fp, [sp, #-4]!)
3000b908:	e28db000 	add	fp, sp, #0
3000b90c:	e24dd01c 	sub	sp, sp, #28
3000b910:	e50b0010 	str	r0, [fp, #-16]
3000b914:	e50b1014 	str	r1, [fp, #-20]	; 0xffffffec
3000b918:	e50b2018 	str	r2, [fp, #-24]	; 0xffffffe8
3000b91c:	e51b3010 	ldr	r3, [fp, #-16]
3000b920:	e50b300c 	str	r3, [fp, #-12]
3000b924:	e51b3014 	ldr	r3, [fp, #-20]	; 0xffffffec
3000b928:	e50b3008 	str	r3, [fp, #-8]
3000b92c:	ea000009 	b	3000b958 <memcpy+0x54>
3000b930:	e51b3008 	ldr	r3, [fp, #-8]
3000b934:	e5d33000 	ldrb	r3, [r3]
3000b938:	e51b200c 	ldr	r2, [fp, #-12]
3000b93c:	e5c23000 	strb	r3, [r2]
3000b940:	e51b300c 	ldr	r3, [fp, #-12]
3000b944:	e2833001 	add	r3, r3, #1
3000b948:	e50b300c 	str	r3, [fp, #-12]
3000b94c:	e51b3008 	ldr	r3, [fp, #-8]
3000b950:	e2833001 	add	r3, r3, #1
3000b954:	e50b3008 	str	r3, [fp, #-8]
3000b958:	e51b3018 	ldr	r3, [fp, #-24]	; 0xffffffe8
3000b95c:	e3530000 	cmp	r3, #0
3000b960:	03a03000 	moveq	r3, #0
3000b964:	13a03001 	movne	r3, #1
3000b968:	e20320ff 	and	r2, r3, #255	; 0xff
3000b96c:	e51b3018 	ldr	r3, [fp, #-24]	; 0xffffffe8
3000b970:	e2433001 	sub	r3, r3, #1
3000b974:	e50b3018 	str	r3, [fp, #-24]	; 0xffffffe8
3000b978:	e3520000 	cmp	r2, #0
3000b97c:	1affffeb 	bne	3000b930 <memcpy+0x2c>
3000b980:	e51b3010 	ldr	r3, [fp, #-16]
3000b984:	e1a00003 	mov	r0, r3
3000b988:	e28bd000 	add	sp, fp, #0
3000b98c:	e8bd0800 	ldmfd	sp!, {fp}
3000b990:	e12fff1e 	bx	lr

3000b994 <memmove>:
3000b994:	e52db004 	push	{fp}		; (str fp, [sp, #-4]!)
3000b998:	e28db000 	add	fp, sp, #0
3000b99c:	e24dd01c 	sub	sp, sp, #28
3000b9a0:	e50b0010 	str	r0, [fp, #-16]
3000b9a4:	e50b1014 	str	r1, [fp, #-20]	; 0xffffffec
3000b9a8:	e50b2018 	str	r2, [fp, #-24]	; 0xffffffe8
3000b9ac:	e51b2010 	ldr	r2, [fp, #-16]
3000b9b0:	e51b3014 	ldr	r3, [fp, #-20]	; 0xffffffec
3000b9b4:	e1520003 	cmp	r2, r3
3000b9b8:	8a000019 	bhi	3000ba24 <memmove+0x90>
3000b9bc:	e51b3010 	ldr	r3, [fp, #-16]
3000b9c0:	e50b300c 	str	r3, [fp, #-12]
3000b9c4:	e51b3014 	ldr	r3, [fp, #-20]	; 0xffffffec
3000b9c8:	e50b3008 	str	r3, [fp, #-8]
3000b9cc:	ea000009 	b	3000b9f8 <memmove+0x64>
3000b9d0:	e51b3008 	ldr	r3, [fp, #-8]
3000b9d4:	e5d33000 	ldrb	r3, [r3]
3000b9d8:	e51b200c 	ldr	r2, [fp, #-12]
3000b9dc:	e5c23000 	strb	r3, [r2]
3000b9e0:	e51b300c 	ldr	r3, [fp, #-12]
3000b9e4:	e2833001 	add	r3, r3, #1
3000b9e8:	e50b300c 	str	r3, [fp, #-12]
3000b9ec:	e51b3008 	ldr	r3, [fp, #-8]
3000b9f0:	e2833001 	add	r3, r3, #1
3000b9f4:	e50b3008 	str	r3, [fp, #-8]
3000b9f8:	e51b3018 	ldr	r3, [fp, #-24]	; 0xffffffe8
3000b9fc:	e3530000 	cmp	r3, #0
3000ba00:	03a03000 	moveq	r3, #0
3000ba04:	13a03001 	movne	r3, #1
3000ba08:	e20320ff 	and	r2, r3, #255	; 0xff
3000ba0c:	e51b3018 	ldr	r3, [fp, #-24]	; 0xffffffe8
3000ba10:	e2433001 	sub	r3, r3, #1
3000ba14:	e50b3018 	str	r3, [fp, #-24]	; 0xffffffe8
3000ba18:	e3520000 	cmp	r2, #0
3000ba1c:	1affffeb 	bne	3000b9d0 <memmove+0x3c>
3000ba20:	ea00001c 	b	3000ba98 <memmove+0x104>
3000ba24:	e51b2010 	ldr	r2, [fp, #-16]
3000ba28:	e51b3018 	ldr	r3, [fp, #-24]	; 0xffffffe8
3000ba2c:	e0823003 	add	r3, r2, r3
3000ba30:	e50b300c 	str	r3, [fp, #-12]
3000ba34:	e51b2014 	ldr	r2, [fp, #-20]	; 0xffffffec
3000ba38:	e51b3018 	ldr	r3, [fp, #-24]	; 0xffffffe8
3000ba3c:	e0823003 	add	r3, r2, r3
3000ba40:	e50b3008 	str	r3, [fp, #-8]
3000ba44:	ea000009 	b	3000ba70 <memmove+0xdc>
3000ba48:	e51b300c 	ldr	r3, [fp, #-12]
3000ba4c:	e2433001 	sub	r3, r3, #1
3000ba50:	e50b300c 	str	r3, [fp, #-12]
3000ba54:	e51b3008 	ldr	r3, [fp, #-8]
3000ba58:	e2433001 	sub	r3, r3, #1
3000ba5c:	e50b3008 	str	r3, [fp, #-8]
3000ba60:	e51b3008 	ldr	r3, [fp, #-8]
3000ba64:	e5d33000 	ldrb	r3, [r3]
3000ba68:	e51b200c 	ldr	r2, [fp, #-12]
3000ba6c:	e5c23000 	strb	r3, [r2]
3000ba70:	e51b3018 	ldr	r3, [fp, #-24]	; 0xffffffe8
3000ba74:	e3530000 	cmp	r3, #0
3000ba78:	03a03000 	moveq	r3, #0
3000ba7c:	13a03001 	movne	r3, #1
3000ba80:	e20320ff 	and	r2, r3, #255	; 0xff
3000ba84:	e51b3018 	ldr	r3, [fp, #-24]	; 0xffffffe8
3000ba88:	e2433001 	sub	r3, r3, #1
3000ba8c:	e50b3018 	str	r3, [fp, #-24]	; 0xffffffe8
3000ba90:	e3520000 	cmp	r2, #0
3000ba94:	1affffeb 	bne	3000ba48 <memmove+0xb4>
3000ba98:	e51b3010 	ldr	r3, [fp, #-16]
3000ba9c:	e1a00003 	mov	r0, r3
3000baa0:	e28bd000 	add	sp, fp, #0
3000baa4:	e8bd0800 	ldmfd	sp!, {fp}
3000baa8:	e12fff1e 	bx	lr

3000baac <memcmp>:
3000baac:	e52db004 	push	{fp}		; (str fp, [sp, #-4]!)
3000bab0:	e28db000 	add	fp, sp, #0
3000bab4:	e24dd024 	sub	sp, sp, #36	; 0x24
3000bab8:	e50b0018 	str	r0, [fp, #-24]	; 0xffffffe8
3000babc:	e50b101c 	str	r1, [fp, #-28]	; 0xffffffe4
3000bac0:	e50b2020 	str	r2, [fp, #-32]	; 0xffffffe0
3000bac4:	e3a03000 	mov	r3, #0
3000bac8:	e50b3008 	str	r3, [fp, #-8]
3000bacc:	e51b3018 	ldr	r3, [fp, #-24]	; 0xffffffe8
3000bad0:	e50b3010 	str	r3, [fp, #-16]
3000bad4:	e51b301c 	ldr	r3, [fp, #-28]	; 0xffffffe4
3000bad8:	e50b300c 	str	r3, [fp, #-12]
3000badc:	ea000012 	b	3000bb2c <memcmp+0x80>
3000bae0:	e51b3010 	ldr	r3, [fp, #-16]
3000bae4:	e5d33000 	ldrb	r3, [r3]
3000bae8:	e1a02003 	mov	r2, r3
3000baec:	e51b300c 	ldr	r3, [fp, #-12]
3000baf0:	e5d33000 	ldrb	r3, [r3]
3000baf4:	e0633002 	rsb	r3, r3, r2
3000baf8:	e50b3008 	str	r3, [fp, #-8]
3000bafc:	e51b3008 	ldr	r3, [fp, #-8]
3000bb00:	e3530000 	cmp	r3, #0
3000bb04:	1a00000b 	bne	3000bb38 <memcmp+0x8c>
3000bb08:	e51b3010 	ldr	r3, [fp, #-16]
3000bb0c:	e2833001 	add	r3, r3, #1
3000bb10:	e50b3010 	str	r3, [fp, #-16]
3000bb14:	e51b300c 	ldr	r3, [fp, #-12]
3000bb18:	e2833001 	add	r3, r3, #1
3000bb1c:	e50b300c 	str	r3, [fp, #-12]
3000bb20:	e51b3020 	ldr	r3, [fp, #-32]	; 0xffffffe0
3000bb24:	e2433001 	sub	r3, r3, #1
3000bb28:	e50b3020 	str	r3, [fp, #-32]	; 0xffffffe0
3000bb2c:	e51b3020 	ldr	r3, [fp, #-32]	; 0xffffffe0
3000bb30:	e3530000 	cmp	r3, #0
3000bb34:	1affffe9 	bne	3000bae0 <memcmp+0x34>
3000bb38:	e51b3008 	ldr	r3, [fp, #-8]
3000bb3c:	e1a00003 	mov	r0, r3
3000bb40:	e28bd000 	add	sp, fp, #0
3000bb44:	e8bd0800 	ldmfd	sp!, {fp}
3000bb48:	e12fff1e 	bx	lr

3000bb4c <memscan>:
3000bb4c:	e52db004 	push	{fp}		; (str fp, [sp, #-4]!)
3000bb50:	e28db000 	add	fp, sp, #0
3000bb54:	e24dd01c 	sub	sp, sp, #28
3000bb58:	e50b0010 	str	r0, [fp, #-16]
3000bb5c:	e50b1014 	str	r1, [fp, #-20]	; 0xffffffec
3000bb60:	e50b2018 	str	r2, [fp, #-24]	; 0xffffffe8
3000bb64:	e51b3010 	ldr	r3, [fp, #-16]
3000bb68:	e50b3008 	str	r3, [fp, #-8]
3000bb6c:	ea00000e 	b	3000bbac <memscan+0x60>
3000bb70:	e51b3008 	ldr	r3, [fp, #-8]
3000bb74:	e5d33000 	ldrb	r3, [r3]
3000bb78:	e1a02003 	mov	r2, r3
3000bb7c:	e51b3014 	ldr	r3, [fp, #-20]	; 0xffffffec
3000bb80:	e1520003 	cmp	r2, r3
3000bb84:	1a000002 	bne	3000bb94 <memscan+0x48>
3000bb88:	e51b3008 	ldr	r3, [fp, #-8]
3000bb8c:	e50b301c 	str	r3, [fp, #-28]	; 0xffffffe4
3000bb90:	ea00000a 	b	3000bbc0 <memscan+0x74>
3000bb94:	e51b3008 	ldr	r3, [fp, #-8]
3000bb98:	e2833001 	add	r3, r3, #1
3000bb9c:	e50b3008 	str	r3, [fp, #-8]
3000bba0:	e51b3018 	ldr	r3, [fp, #-24]	; 0xffffffe8
3000bba4:	e2433001 	sub	r3, r3, #1
3000bba8:	e50b3018 	str	r3, [fp, #-24]	; 0xffffffe8
3000bbac:	e51b3018 	ldr	r3, [fp, #-24]	; 0xffffffe8
3000bbb0:	e3530000 	cmp	r3, #0
3000bbb4:	1affffed 	bne	3000bb70 <memscan+0x24>
3000bbb8:	e51b3008 	ldr	r3, [fp, #-8]
3000bbbc:	e50b301c 	str	r3, [fp, #-28]	; 0xffffffe4
3000bbc0:	e51b301c 	ldr	r3, [fp, #-28]	; 0xffffffe4
3000bbc4:	e1a00003 	mov	r0, r3
3000bbc8:	e28bd000 	add	sp, fp, #0
3000bbcc:	e8bd0800 	ldmfd	sp!, {fp}
3000bbd0:	e12fff1e 	bx	lr

3000bbd4 <strstr>:
3000bbd4:	e92d4800 	push	{fp, lr}
3000bbd8:	e28db004 	add	fp, sp, #4
3000bbdc:	e24dd018 	sub	sp, sp, #24
3000bbe0:	e50b0010 	str	r0, [fp, #-16]
3000bbe4:	e50b1014 	str	r1, [fp, #-20]	; 0xffffffec
3000bbe8:	e51b0014 	ldr	r0, [fp, #-20]	; 0xffffffec
3000bbec:	ebfffe07 	bl	3000b410 <strlen>
3000bbf0:	e1a03000 	mov	r3, r0
3000bbf4:	e50b3008 	str	r3, [fp, #-8]
3000bbf8:	e51b3008 	ldr	r3, [fp, #-8]
3000bbfc:	e3530000 	cmp	r3, #0
3000bc00:	1a000002 	bne	3000bc10 <strstr+0x3c>
3000bc04:	e51b3010 	ldr	r3, [fp, #-16]
3000bc08:	e50b3018 	str	r3, [fp, #-24]	; 0xffffffe8
3000bc0c:	ea00001b 	b	3000bc80 <strstr+0xac>
3000bc10:	e51b0010 	ldr	r0, [fp, #-16]
3000bc14:	ebfffdfd 	bl	3000b410 <strlen>
3000bc18:	e1a03000 	mov	r3, r0
3000bc1c:	e50b300c 	str	r3, [fp, #-12]
3000bc20:	ea000010 	b	3000bc68 <strstr+0x94>
3000bc24:	e51b300c 	ldr	r3, [fp, #-12]
3000bc28:	e2433001 	sub	r3, r3, #1
3000bc2c:	e50b300c 	str	r3, [fp, #-12]
3000bc30:	e51b3008 	ldr	r3, [fp, #-8]
3000bc34:	e51b0010 	ldr	r0, [fp, #-16]
3000bc38:	e51b1014 	ldr	r1, [fp, #-20]	; 0xffffffec
3000bc3c:	e1a02003 	mov	r2, r3
3000bc40:	ebffff99 	bl	3000baac <memcmp>
3000bc44:	e1a03000 	mov	r3, r0
3000bc48:	e3530000 	cmp	r3, #0
3000bc4c:	1a000002 	bne	3000bc5c <strstr+0x88>
3000bc50:	e51b3010 	ldr	r3, [fp, #-16]
3000bc54:	e50b3018 	str	r3, [fp, #-24]	; 0xffffffe8
3000bc58:	ea000008 	b	3000bc80 <strstr+0xac>
3000bc5c:	e51b3010 	ldr	r3, [fp, #-16]
3000bc60:	e2833001 	add	r3, r3, #1
3000bc64:	e50b3010 	str	r3, [fp, #-16]
3000bc68:	e51b200c 	ldr	r2, [fp, #-12]
3000bc6c:	e51b3008 	ldr	r3, [fp, #-8]
3000bc70:	e1520003 	cmp	r2, r3
3000bc74:	aaffffea 	bge	3000bc24 <strstr+0x50>
3000bc78:	e3a03000 	mov	r3, #0
3000bc7c:	e50b3018 	str	r3, [fp, #-24]	; 0xffffffe8
3000bc80:	e51b3018 	ldr	r3, [fp, #-24]	; 0xffffffe8
3000bc84:	e1a00003 	mov	r0, r3
3000bc88:	e24bd004 	sub	sp, fp, #4
3000bc8c:	e8bd4800 	pop	{fp, lr}
3000bc90:	e12fff1e 	bx	lr

3000bc94 <memchr>:
3000bc94:	e52db004 	push	{fp}		; (str fp, [sp, #-4]!)
3000bc98:	e28db000 	add	fp, sp, #0
3000bc9c:	e24dd01c 	sub	sp, sp, #28
3000bca0:	e50b0010 	str	r0, [fp, #-16]
3000bca4:	e50b1014 	str	r1, [fp, #-20]	; 0xffffffec
3000bca8:	e50b2018 	str	r2, [fp, #-24]	; 0xffffffe8
3000bcac:	e51b3010 	ldr	r3, [fp, #-16]
3000bcb0:	e50b3008 	str	r3, [fp, #-8]
3000bcb4:	ea000010 	b	3000bcfc <memchr+0x68>
3000bcb8:	e51b3014 	ldr	r3, [fp, #-20]	; 0xffffffec
3000bcbc:	e20320ff 	and	r2, r3, #255	; 0xff
3000bcc0:	e51b3008 	ldr	r3, [fp, #-8]
3000bcc4:	e5d33000 	ldrb	r3, [r3]
3000bcc8:	e1520003 	cmp	r2, r3
3000bccc:	13a03000 	movne	r3, #0
3000bcd0:	03a03001 	moveq	r3, #1
3000bcd4:	e20320ff 	and	r2, r3, #255	; 0xff
3000bcd8:	e51b3008 	ldr	r3, [fp, #-8]
3000bcdc:	e2833001 	add	r3, r3, #1
3000bce0:	e50b3008 	str	r3, [fp, #-8]
3000bce4:	e3520000 	cmp	r2, #0
3000bce8:	0a000003 	beq	3000bcfc <memchr+0x68>
3000bcec:	e51b3008 	ldr	r3, [fp, #-8]
3000bcf0:	e2433001 	sub	r3, r3, #1
3000bcf4:	e50b301c 	str	r3, [fp, #-28]	; 0xffffffe4
3000bcf8:	ea00000b 	b	3000bd2c <memchr+0x98>
3000bcfc:	e51b3018 	ldr	r3, [fp, #-24]	; 0xffffffe8
3000bd00:	e3530000 	cmp	r3, #0
3000bd04:	03a03000 	moveq	r3, #0
3000bd08:	13a03001 	movne	r3, #1
3000bd0c:	e20320ff 	and	r2, r3, #255	; 0xff
3000bd10:	e51b3018 	ldr	r3, [fp, #-24]	; 0xffffffe8
3000bd14:	e2433001 	sub	r3, r3, #1
3000bd18:	e50b3018 	str	r3, [fp, #-24]	; 0xffffffe8
3000bd1c:	e3520000 	cmp	r2, #0
3000bd20:	1affffe4 	bne	3000bcb8 <memchr+0x24>
3000bd24:	e3a03000 	mov	r3, #0
3000bd28:	e50b301c 	str	r3, [fp, #-28]	; 0xffffffe4
3000bd2c:	e51b301c 	ldr	r3, [fp, #-28]	; 0xffffffe4
3000bd30:	e1a00003 	mov	r0, r3
3000bd34:	e28bd000 	add	sp, fp, #0
3000bd38:	e8bd0800 	ldmfd	sp!, {fp}
3000bd3c:	e12fff1e 	bx	lr

3000bd40 <simple_strtoul>:
3000bd40:	e92d4800 	push	{fp, lr}
3000bd44:	e28db004 	add	fp, sp, #4
3000bd48:	e24dd018 	sub	sp, sp, #24
3000bd4c:	e50b0010 	str	r0, [fp, #-16]
3000bd50:	e50b1014 	str	r1, [fp, #-20]	; 0xffffffec
3000bd54:	e50b2018 	str	r2, [fp, #-24]	; 0xffffffe8
3000bd58:	e3a03000 	mov	r3, #0
3000bd5c:	e50b300c 	str	r3, [fp, #-12]
3000bd60:	e51b3018 	ldr	r3, [fp, #-24]	; 0xffffffe8
3000bd64:	e3530000 	cmp	r3, #0
3000bd68:	1a000020 	bne	3000bdf0 <simple_strtoul+0xb0>
3000bd6c:	e3a0300a 	mov	r3, #10
3000bd70:	e50b3018 	str	r3, [fp, #-24]	; 0xffffffe8
3000bd74:	e51b3010 	ldr	r3, [fp, #-16]
3000bd78:	e5d33000 	ldrb	r3, [r3]
3000bd7c:	e3530030 	cmp	r3, #48	; 0x30
3000bd80:	1a000036 	bne	3000be60 <simple_strtoul+0x120>
3000bd84:	e3a03008 	mov	r3, #8
3000bd88:	e50b3018 	str	r3, [fp, #-24]	; 0xffffffe8
3000bd8c:	e51b3010 	ldr	r3, [fp, #-16]
3000bd90:	e2833001 	add	r3, r3, #1
3000bd94:	e50b3010 	str	r3, [fp, #-16]
3000bd98:	e51b3010 	ldr	r3, [fp, #-16]
3000bd9c:	e5d33000 	ldrb	r3, [r3]
3000bda0:	e1a00003 	mov	r0, r3
3000bda4:	eb00005b 	bl	3000bf18 <__toupper>
3000bda8:	e1a03000 	mov	r3, r0
3000bdac:	e3530058 	cmp	r3, #88	; 0x58
3000bdb0:	1a00002a 	bne	3000be60 <simple_strtoul+0x120>
3000bdb4:	e51b3010 	ldr	r3, [fp, #-16]
3000bdb8:	e2833001 	add	r3, r3, #1
3000bdbc:	e5d33000 	ldrb	r3, [r3]
3000bdc0:	e1a02003 	mov	r2, r3
3000bdc4:	e59f3148 	ldr	r3, [pc, #328]	; 3000bf14 <simple_strtoul+0x1d4>
3000bdc8:	e7d33002 	ldrb	r3, [r3, r2]
3000bdcc:	e2033044 	and	r3, r3, #68	; 0x44
3000bdd0:	e3530000 	cmp	r3, #0
3000bdd4:	0a000021 	beq	3000be60 <simple_strtoul+0x120>
3000bdd8:	e51b3010 	ldr	r3, [fp, #-16]
3000bddc:	e2833001 	add	r3, r3, #1
3000bde0:	e50b3010 	str	r3, [fp, #-16]
3000bde4:	e3a03010 	mov	r3, #16
3000bde8:	e50b3018 	str	r3, [fp, #-24]	; 0xffffffe8
3000bdec:	ea00001b 	b	3000be60 <simple_strtoul+0x120>
3000bdf0:	e51b3018 	ldr	r3, [fp, #-24]	; 0xffffffe8
3000bdf4:	e3530010 	cmp	r3, #16
3000bdf8:	1a000018 	bne	3000be60 <simple_strtoul+0x120>
3000bdfc:	e51b3010 	ldr	r3, [fp, #-16]
3000be00:	e5d33000 	ldrb	r3, [r3]
3000be04:	e3530030 	cmp	r3, #48	; 0x30
3000be08:	1a000014 	bne	3000be60 <simple_strtoul+0x120>
3000be0c:	e51b3010 	ldr	r3, [fp, #-16]
3000be10:	e2833001 	add	r3, r3, #1
3000be14:	e5d33000 	ldrb	r3, [r3]
3000be18:	e1a00003 	mov	r0, r3
3000be1c:	eb00003d 	bl	3000bf18 <__toupper>
3000be20:	e1a03000 	mov	r3, r0
3000be24:	e3530058 	cmp	r3, #88	; 0x58
3000be28:	1a00000c 	bne	3000be60 <simple_strtoul+0x120>
3000be2c:	e51b3010 	ldr	r3, [fp, #-16]
3000be30:	e2833002 	add	r3, r3, #2
3000be34:	e50b3010 	str	r3, [fp, #-16]
3000be38:	ea000008 	b	3000be60 <simple_strtoul+0x120>
3000be3c:	e51b200c 	ldr	r2, [fp, #-12]
3000be40:	e51b3018 	ldr	r3, [fp, #-24]	; 0xffffffe8
3000be44:	e0020293 	mul	r2, r3, r2
3000be48:	e51b3008 	ldr	r3, [fp, #-8]
3000be4c:	e0823003 	add	r3, r2, r3
3000be50:	e50b300c 	str	r3, [fp, #-12]
3000be54:	e51b3010 	ldr	r3, [fp, #-16]
3000be58:	e2833001 	add	r3, r3, #1
3000be5c:	e50b3010 	str	r3, [fp, #-16]
3000be60:	e51b3010 	ldr	r3, [fp, #-16]
3000be64:	e5d33000 	ldrb	r3, [r3]
3000be68:	e1a02003 	mov	r2, r3
3000be6c:	e59f30a0 	ldr	r3, [pc, #160]	; 3000bf14 <simple_strtoul+0x1d4>
3000be70:	e7d33002 	ldrb	r3, [r3, r2]
3000be74:	e2033044 	and	r3, r3, #68	; 0x44
3000be78:	e3530000 	cmp	r3, #0
3000be7c:	0a000019 	beq	3000bee8 <simple_strtoul+0x1a8>
3000be80:	e51b3010 	ldr	r3, [fp, #-16]
3000be84:	e5d33000 	ldrb	r3, [r3]
3000be88:	e1a02003 	mov	r2, r3
3000be8c:	e59f3080 	ldr	r3, [pc, #128]	; 3000bf14 <simple_strtoul+0x1d4>
3000be90:	e7d33002 	ldrb	r3, [r3, r2]
3000be94:	e2033004 	and	r3, r3, #4
3000be98:	e3530000 	cmp	r3, #0
3000be9c:	0a000004 	beq	3000beb4 <simple_strtoul+0x174>
3000bea0:	e51b3010 	ldr	r3, [fp, #-16]
3000bea4:	e5d33000 	ldrb	r3, [r3]
3000bea8:	e2433030 	sub	r3, r3, #48	; 0x30
3000beac:	e50b301c 	str	r3, [fp, #-28]	; 0xffffffe4
3000beb0:	ea000006 	b	3000bed0 <simple_strtoul+0x190>
3000beb4:	e51b3010 	ldr	r3, [fp, #-16]
3000beb8:	e5d33000 	ldrb	r3, [r3]
3000bebc:	e1a00003 	mov	r0, r3
3000bec0:	eb000014 	bl	3000bf18 <__toupper>
3000bec4:	e1a03000 	mov	r3, r0
3000bec8:	e2433037 	sub	r3, r3, #55	; 0x37
3000becc:	e50b301c 	str	r3, [fp, #-28]	; 0xffffffe4
3000bed0:	e51b301c 	ldr	r3, [fp, #-28]	; 0xffffffe4
3000bed4:	e50b3008 	str	r3, [fp, #-8]
3000bed8:	e51b2008 	ldr	r2, [fp, #-8]
3000bedc:	e51b3018 	ldr	r3, [fp, #-24]	; 0xffffffe8
3000bee0:	e1520003 	cmp	r2, r3
3000bee4:	3affffd4 	bcc	3000be3c <simple_strtoul+0xfc>
3000bee8:	e51b3014 	ldr	r3, [fp, #-20]	; 0xffffffec
3000beec:	e3530000 	cmp	r3, #0
3000bef0:	0a000002 	beq	3000bf00 <simple_strtoul+0x1c0>
3000bef4:	e51b2010 	ldr	r2, [fp, #-16]
3000bef8:	e51b3014 	ldr	r3, [fp, #-20]	; 0xffffffec
3000befc:	e5832000 	str	r2, [r3]
3000bf00:	e51b300c 	ldr	r3, [fp, #-12]
3000bf04:	e1a00003 	mov	r0, r3
3000bf08:	e24bd004 	sub	sp, fp, #4
3000bf0c:	e8bd4800 	pop	{fp, lr}
3000bf10:	e12fff1e 	bx	lr
3000bf14:	300102a4 	andcc	r0, r1, r4, lsr #5

3000bf18 <__toupper>:
3000bf18:	e52db004 	push	{fp}		; (str fp, [sp, #-4]!)
3000bf1c:	e28db000 	add	fp, sp, #0
3000bf20:	e24dd00c 	sub	sp, sp, #12
3000bf24:	e1a03000 	mov	r3, r0
3000bf28:	e54b3005 	strb	r3, [fp, #-5]
3000bf2c:	e55b2005 	ldrb	r2, [fp, #-5]
3000bf30:	e59f302c 	ldr	r3, [pc, #44]	; 3000bf64 <__toupper+0x4c>
3000bf34:	e7d33002 	ldrb	r3, [r3, r2]
3000bf38:	e2033002 	and	r3, r3, #2
3000bf3c:	e3530000 	cmp	r3, #0
3000bf40:	0a000002 	beq	3000bf50 <__toupper+0x38>
3000bf44:	e55b3005 	ldrb	r3, [fp, #-5]
3000bf48:	e2433020 	sub	r3, r3, #32
3000bf4c:	e54b3005 	strb	r3, [fp, #-5]
3000bf50:	e55b3005 	ldrb	r3, [fp, #-5]
3000bf54:	e1a00003 	mov	r0, r3
3000bf58:	e28bd000 	add	sp, fp, #0
3000bf5c:	e8bd0800 	ldmfd	sp!, {fp}
3000bf60:	e12fff1e 	bx	lr
3000bf64:	300102a4 	andcc	r0, r1, r4, lsr #5

3000bf68 <simple_strtol>:
3000bf68:	e92d4800 	push	{fp, lr}
3000bf6c:	e28db004 	add	fp, sp, #4
3000bf70:	e24dd010 	sub	sp, sp, #16
3000bf74:	e50b0008 	str	r0, [fp, #-8]
3000bf78:	e50b100c 	str	r1, [fp, #-12]
3000bf7c:	e50b2010 	str	r2, [fp, #-16]
3000bf80:	e51b3008 	ldr	r3, [fp, #-8]
3000bf84:	e5d33000 	ldrb	r3, [r3]
3000bf88:	e353002d 	cmp	r3, #45	; 0x2d
3000bf8c:	1a000009 	bne	3000bfb8 <simple_strtol+0x50>
3000bf90:	e51b3008 	ldr	r3, [fp, #-8]
3000bf94:	e2833001 	add	r3, r3, #1
3000bf98:	e1a00003 	mov	r0, r3
3000bf9c:	e51b100c 	ldr	r1, [fp, #-12]
3000bfa0:	e51b2010 	ldr	r2, [fp, #-16]
3000bfa4:	ebffff65 	bl	3000bd40 <simple_strtoul>
3000bfa8:	e1a03000 	mov	r3, r0
3000bfac:	e2633000 	rsb	r3, r3, #0
3000bfb0:	e50b3014 	str	r3, [fp, #-20]	; 0xffffffec
3000bfb4:	ea000005 	b	3000bfd0 <simple_strtol+0x68>
3000bfb8:	e51b0008 	ldr	r0, [fp, #-8]
3000bfbc:	e51b100c 	ldr	r1, [fp, #-12]
3000bfc0:	e51b2010 	ldr	r2, [fp, #-16]
3000bfc4:	ebffff5d 	bl	3000bd40 <simple_strtoul>
3000bfc8:	e1a03000 	mov	r3, r0
3000bfcc:	e50b3014 	str	r3, [fp, #-20]	; 0xffffffec
3000bfd0:	e51b3014 	ldr	r3, [fp, #-20]	; 0xffffffec
3000bfd4:	e1a00003 	mov	r0, r3
3000bfd8:	e24bd004 	sub	sp, fp, #4
3000bfdc:	e8bd4800 	pop	{fp, lr}
3000bfe0:	e12fff1e 	bx	lr

3000bfe4 <simple_strtoull>:
3000bfe4:	e92d4870 	push	{r4, r5, r6, fp, lr}
3000bfe8:	e28db010 	add	fp, sp, #16
3000bfec:	e24dd034 	sub	sp, sp, #52	; 0x34
3000bff0:	e50b0028 	str	r0, [fp, #-40]	; 0xffffffd8
3000bff4:	e50b102c 	str	r1, [fp, #-44]	; 0xffffffd4
3000bff8:	e50b2030 	str	r2, [fp, #-48]	; 0xffffffd0
3000bffc:	e3a03000 	mov	r3, #0
3000c000:	e3a04000 	mov	r4, #0
3000c004:	e50b3024 	str	r3, [fp, #-36]	; 0xffffffdc
3000c008:	e50b4020 	str	r4, [fp, #-32]	; 0xffffffe0
3000c00c:	e51b3030 	ldr	r3, [fp, #-48]	; 0xffffffd0
3000c010:	e3530000 	cmp	r3, #0
3000c014:	1a000020 	bne	3000c09c <simple_strtoull+0xb8>
3000c018:	e3a0300a 	mov	r3, #10
3000c01c:	e50b3030 	str	r3, [fp, #-48]	; 0xffffffd0
3000c020:	e51b3028 	ldr	r3, [fp, #-40]	; 0xffffffd8
3000c024:	e5d33000 	ldrb	r3, [r3]
3000c028:	e3530030 	cmp	r3, #48	; 0x30
3000c02c:	1a000043 	bne	3000c140 <simple_strtoull+0x15c>
3000c030:	e3a03008 	mov	r3, #8
3000c034:	e50b3030 	str	r3, [fp, #-48]	; 0xffffffd0
3000c038:	e51b3028 	ldr	r3, [fp, #-40]	; 0xffffffd8
3000c03c:	e2833001 	add	r3, r3, #1
3000c040:	e50b3028 	str	r3, [fp, #-40]	; 0xffffffd8
3000c044:	e51b3028 	ldr	r3, [fp, #-40]	; 0xffffffd8
3000c048:	e5d33000 	ldrb	r3, [r3]
3000c04c:	e1a00003 	mov	r0, r3
3000c050:	ebffffb0 	bl	3000bf18 <__toupper>
3000c054:	e1a03000 	mov	r3, r0
3000c058:	e3530058 	cmp	r3, #88	; 0x58
3000c05c:	1a000037 	bne	3000c140 <simple_strtoull+0x15c>
3000c060:	e51b3028 	ldr	r3, [fp, #-40]	; 0xffffffd8
3000c064:	e2833001 	add	r3, r3, #1
3000c068:	e5d33000 	ldrb	r3, [r3]
3000c06c:	e1a02003 	mov	r2, r3
3000c070:	e59f320c 	ldr	r3, [pc, #524]	; 3000c284 <simple_strtoull+0x2a0>
3000c074:	e7d33002 	ldrb	r3, [r3, r2]
3000c078:	e2033044 	and	r3, r3, #68	; 0x44
3000c07c:	e3530000 	cmp	r3, #0
3000c080:	0a00002e 	beq	3000c140 <simple_strtoull+0x15c>
3000c084:	e51b3028 	ldr	r3, [fp, #-40]	; 0xffffffd8
3000c088:	e2833001 	add	r3, r3, #1
3000c08c:	e50b3028 	str	r3, [fp, #-40]	; 0xffffffd8
3000c090:	e3a03010 	mov	r3, #16
3000c094:	e50b3030 	str	r3, [fp, #-48]	; 0xffffffd0
3000c098:	ea000028 	b	3000c140 <simple_strtoull+0x15c>
3000c09c:	e51b3030 	ldr	r3, [fp, #-48]	; 0xffffffd0
3000c0a0:	e3530010 	cmp	r3, #16
3000c0a4:	1a000025 	bne	3000c140 <simple_strtoull+0x15c>
3000c0a8:	e51b3028 	ldr	r3, [fp, #-40]	; 0xffffffd8
3000c0ac:	e5d33000 	ldrb	r3, [r3]
3000c0b0:	e3530030 	cmp	r3, #48	; 0x30
3000c0b4:	1a000021 	bne	3000c140 <simple_strtoull+0x15c>
3000c0b8:	e51b3028 	ldr	r3, [fp, #-40]	; 0xffffffd8
3000c0bc:	e2833001 	add	r3, r3, #1
3000c0c0:	e5d33000 	ldrb	r3, [r3]
3000c0c4:	e1a00003 	mov	r0, r3
3000c0c8:	ebffff92 	bl	3000bf18 <__toupper>
3000c0cc:	e1a03000 	mov	r3, r0
3000c0d0:	e3530058 	cmp	r3, #88	; 0x58
3000c0d4:	1a000019 	bne	3000c140 <simple_strtoull+0x15c>
3000c0d8:	e51b3028 	ldr	r3, [fp, #-40]	; 0xffffffd8
3000c0dc:	e2833002 	add	r3, r3, #2
3000c0e0:	e50b3028 	str	r3, [fp, #-40]	; 0xffffffd8
3000c0e4:	ea000015 	b	3000c140 <simple_strtoull+0x15c>
3000c0e8:	e51b3030 	ldr	r3, [fp, #-48]	; 0xffffffd0
3000c0ec:	e3a04000 	mov	r4, #0
3000c0f0:	e51b2024 	ldr	r2, [fp, #-36]	; 0xffffffdc
3000c0f4:	e0010294 	mul	r1, r4, r2
3000c0f8:	e51b2020 	ldr	r2, [fp, #-32]	; 0xffffffe0
3000c0fc:	e0020293 	mul	r2, r3, r2
3000c100:	e0811002 	add	r1, r1, r2
3000c104:	e51b2024 	ldr	r2, [fp, #-36]	; 0xffffffdc
3000c108:	e0865392 	umull	r5, r6, r2, r3
3000c10c:	e1a03005 	mov	r3, r5
3000c110:	e1a04006 	mov	r4, r6
3000c114:	e0811004 	add	r1, r1, r4
3000c118:	e1a04001 	mov	r4, r1
3000c11c:	e24b201c 	sub	r2, fp, #28
3000c120:	e8920006 	ldm	r2, {r1, r2}
3000c124:	e0933001 	adds	r3, r3, r1
3000c128:	e0a44002 	adc	r4, r4, r2
3000c12c:	e50b3024 	str	r3, [fp, #-36]	; 0xffffffdc
3000c130:	e50b4020 	str	r4, [fp, #-32]	; 0xffffffe0
3000c134:	e51b3028 	ldr	r3, [fp, #-40]	; 0xffffffd8
3000c138:	e2833001 	add	r3, r3, #1
3000c13c:	e50b3028 	str	r3, [fp, #-40]	; 0xffffffd8
3000c140:	e51b3028 	ldr	r3, [fp, #-40]	; 0xffffffd8
3000c144:	e5d33000 	ldrb	r3, [r3]
3000c148:	e1a02003 	mov	r2, r3
3000c14c:	e59f3130 	ldr	r3, [pc, #304]	; 3000c284 <simple_strtoull+0x2a0>
3000c150:	e7d33002 	ldrb	r3, [r3, r2]
3000c154:	e2033044 	and	r3, r3, #68	; 0x44
3000c158:	e3530000 	cmp	r3, #0
3000c15c:	0a00003b 	beq	3000c250 <simple_strtoull+0x26c>
3000c160:	e51b3028 	ldr	r3, [fp, #-40]	; 0xffffffd8
3000c164:	e5d33000 	ldrb	r3, [r3]
3000c168:	e1a02003 	mov	r2, r3
3000c16c:	e59f3110 	ldr	r3, [pc, #272]	; 3000c284 <simple_strtoull+0x2a0>
3000c170:	e7d33002 	ldrb	r3, [r3, r2]
3000c174:	e2033004 	and	r3, r3, #4
3000c178:	e3530000 	cmp	r3, #0
3000c17c:	0a000004 	beq	3000c194 <simple_strtoull+0x1b0>
3000c180:	e51b3028 	ldr	r3, [fp, #-40]	; 0xffffffd8
3000c184:	e5d33000 	ldrb	r3, [r3]
3000c188:	e2433030 	sub	r3, r3, #48	; 0x30
3000c18c:	e50b3044 	str	r3, [fp, #-68]	; 0xffffffbc
3000c190:	ea000015 	b	3000c1ec <simple_strtoull+0x208>
3000c194:	e51b3028 	ldr	r3, [fp, #-40]	; 0xffffffd8
3000c198:	e5d33000 	ldrb	r3, [r3]
3000c19c:	e1a02003 	mov	r2, r3
3000c1a0:	e59f30dc 	ldr	r3, [pc, #220]	; 3000c284 <simple_strtoull+0x2a0>
3000c1a4:	e7d33002 	ldrb	r3, [r3, r2]
3000c1a8:	e2033002 	and	r3, r3, #2
3000c1ac:	e3530000 	cmp	r3, #0
3000c1b0:	0a000007 	beq	3000c1d4 <simple_strtoull+0x1f0>
3000c1b4:	e51b3028 	ldr	r3, [fp, #-40]	; 0xffffffd8
3000c1b8:	e5d33000 	ldrb	r3, [r3]
3000c1bc:	e1a00003 	mov	r0, r3
3000c1c0:	ebffff54 	bl	3000bf18 <__toupper>
3000c1c4:	e1a03000 	mov	r3, r0
3000c1c8:	e2433037 	sub	r3, r3, #55	; 0x37
3000c1cc:	e50b3040 	str	r3, [fp, #-64]	; 0xffffffc0
3000c1d0:	ea000003 	b	3000c1e4 <simple_strtoull+0x200>
3000c1d4:	e51b3028 	ldr	r3, [fp, #-40]	; 0xffffffd8
3000c1d8:	e5d33000 	ldrb	r3, [r3]
3000c1dc:	e2433037 	sub	r3, r3, #55	; 0x37
3000c1e0:	e50b3040 	str	r3, [fp, #-64]	; 0xffffffc0
3000c1e4:	e51b6040 	ldr	r6, [fp, #-64]	; 0xffffffc0
3000c1e8:	e50b6044 	str	r6, [fp, #-68]	; 0xffffffbc
3000c1ec:	e51b1044 	ldr	r1, [fp, #-68]	; 0xffffffbc
3000c1f0:	e1a03001 	mov	r3, r1
3000c1f4:	e1a04fc3 	asr	r4, r3, #31
3000c1f8:	e50b301c 	str	r3, [fp, #-28]	; 0xffffffe4
3000c1fc:	e50b4018 	str	r4, [fp, #-24]	; 0xffffffe8
3000c200:	e51b3030 	ldr	r3, [fp, #-48]	; 0xffffffd0
3000c204:	e1a05003 	mov	r5, r3
3000c208:	e3a06000 	mov	r6, #0
3000c20c:	e50b503c 	str	r5, [fp, #-60]	; 0xffffffc4
3000c210:	e50b6038 	str	r6, [fp, #-56]	; 0xffffffc8
3000c214:	e51b3018 	ldr	r3, [fp, #-24]	; 0xffffffe8
3000c218:	e51b6038 	ldr	r6, [fp, #-56]	; 0xffffffc8
3000c21c:	e1530006 	cmp	r3, r6
3000c220:	3affffb0 	bcc	3000c0e8 <simple_strtoull+0x104>
3000c224:	e51b3018 	ldr	r3, [fp, #-24]	; 0xffffffe8
3000c228:	e51b1038 	ldr	r1, [fp, #-56]	; 0xffffffc8
3000c22c:	e1530001 	cmp	r3, r1
3000c230:	1a000006 	bne	3000c250 <simple_strtoull+0x26c>
3000c234:	e51b301c 	ldr	r3, [fp, #-28]	; 0xffffffe4
3000c238:	e51b203c 	ldr	r2, [fp, #-60]	; 0xffffffc4
3000c23c:	e1530002 	cmp	r3, r2
3000c240:	3affffa8 	bcc	3000c0e8 <simple_strtoull+0x104>
3000c244:	e51b301c 	ldr	r3, [fp, #-28]	; 0xffffffe4
3000c248:	e51b503c 	ldr	r5, [fp, #-60]	; 0xffffffc4
3000c24c:	e1530005 	cmp	r3, r5
3000c250:	e51b302c 	ldr	r3, [fp, #-44]	; 0xffffffd4
3000c254:	e3530000 	cmp	r3, #0
3000c258:	0a000002 	beq	3000c268 <simple_strtoull+0x284>
3000c25c:	e51b2028 	ldr	r2, [fp, #-40]	; 0xffffffd8
3000c260:	e51b302c 	ldr	r3, [fp, #-44]	; 0xffffffd4
3000c264:	e5832000 	str	r2, [r3]
3000c268:	e24b4024 	sub	r4, fp, #36	; 0x24
3000c26c:	e8940018 	ldm	r4, {r3, r4}
3000c270:	e1a00003 	mov	r0, r3
3000c274:	e1a01004 	mov	r1, r4
3000c278:	e24bd010 	sub	sp, fp, #16
3000c27c:	e8bd4870 	pop	{r4, r5, r6, fp, lr}
3000c280:	e12fff1e 	bx	lr
3000c284:	300102a4 	andcc	r0, r1, r4, lsr #5

3000c288 <simple_strtoll>:
3000c288:	e92d4810 	push	{r4, fp, lr}
3000c28c:	e28db008 	add	fp, sp, #8
3000c290:	e24dd01c 	sub	sp, sp, #28
3000c294:	e50b0010 	str	r0, [fp, #-16]
3000c298:	e50b1014 	str	r1, [fp, #-20]	; 0xffffffec
3000c29c:	e50b2018 	str	r2, [fp, #-24]	; 0xffffffe8
3000c2a0:	e51b3010 	ldr	r3, [fp, #-16]
3000c2a4:	e5d33000 	ldrb	r3, [r3]
3000c2a8:	e353002d 	cmp	r3, #45	; 0x2d
3000c2ac:	1a00000c 	bne	3000c2e4 <simple_strtoll+0x5c>
3000c2b0:	e51b3010 	ldr	r3, [fp, #-16]
3000c2b4:	e2833001 	add	r3, r3, #1
3000c2b8:	e1a00003 	mov	r0, r3
3000c2bc:	e51b1014 	ldr	r1, [fp, #-20]	; 0xffffffec
3000c2c0:	e51b2018 	ldr	r2, [fp, #-24]	; 0xffffffe8
3000c2c4:	ebffff46 	bl	3000bfe4 <simple_strtoull>
3000c2c8:	e1a03000 	mov	r3, r0
3000c2cc:	e1a04001 	mov	r4, r1
3000c2d0:	e2733000 	rsbs	r3, r3, #0
3000c2d4:	e2e44000 	rsc	r4, r4, #0
3000c2d8:	e50b3024 	str	r3, [fp, #-36]	; 0xffffffdc
3000c2dc:	e50b4020 	str	r4, [fp, #-32]	; 0xffffffe0
3000c2e0:	ea000007 	b	3000c304 <simple_strtoll+0x7c>
3000c2e4:	e51b0010 	ldr	r0, [fp, #-16]
3000c2e8:	e51b1014 	ldr	r1, [fp, #-20]	; 0xffffffec
3000c2ec:	e51b2018 	ldr	r2, [fp, #-24]	; 0xffffffe8
3000c2f0:	ebffff3b 	bl	3000bfe4 <simple_strtoull>
3000c2f4:	e1a03000 	mov	r3, r0
3000c2f8:	e1a04001 	mov	r4, r1
3000c2fc:	e50b3024 	str	r3, [fp, #-36]	; 0xffffffdc
3000c300:	e50b4020 	str	r4, [fp, #-32]	; 0xffffffe0
3000c304:	e24b4024 	sub	r4, fp, #36	; 0x24
3000c308:	e8940018 	ldm	r4, {r3, r4}
3000c30c:	e1a00003 	mov	r0, r3
3000c310:	e1a01004 	mov	r1, r4
3000c314:	e24bd008 	sub	sp, fp, #8
3000c318:	e8bd4810 	pop	{r4, fp, lr}
3000c31c:	e12fff1e 	bx	lr

3000c320 <skip_atoi>:
3000c320:	e52db004 	push	{fp}		; (str fp, [sp, #-4]!)
3000c324:	e28db000 	add	fp, sp, #0
3000c328:	e24dd014 	sub	sp, sp, #20
3000c32c:	e50b0010 	str	r0, [fp, #-16]
3000c330:	e3a03000 	mov	r3, #0
3000c334:	e50b3008 	str	r3, [fp, #-8]
3000c338:	ea00000c 	b	3000c370 <skip_atoi+0x50>
3000c33c:	e51b3008 	ldr	r3, [fp, #-8]
3000c340:	e1a02083 	lsl	r2, r3, #1
3000c344:	e1a03102 	lsl	r3, r2, #2
3000c348:	e0822003 	add	r2, r2, r3
3000c34c:	e51b3010 	ldr	r3, [fp, #-16]
3000c350:	e5931000 	ldr	r1, [r3]
3000c354:	e5d13000 	ldrb	r3, [r1]
3000c358:	e0823003 	add	r3, r2, r3
3000c35c:	e2433030 	sub	r3, r3, #48	; 0x30
3000c360:	e50b3008 	str	r3, [fp, #-8]
3000c364:	e2812001 	add	r2, r1, #1
3000c368:	e51b3010 	ldr	r3, [fp, #-16]
3000c36c:	e5832000 	str	r2, [r3]
3000c370:	e51b3010 	ldr	r3, [fp, #-16]
3000c374:	e5933000 	ldr	r3, [r3]
3000c378:	e5d33000 	ldrb	r3, [r3]
3000c37c:	e1a02003 	mov	r2, r3
3000c380:	e59f3020 	ldr	r3, [pc, #32]	; 3000c3a8 <skip_atoi+0x88>
3000c384:	e7d33002 	ldrb	r3, [r3, r2]
3000c388:	e2033004 	and	r3, r3, #4
3000c38c:	e3530000 	cmp	r3, #0
3000c390:	1affffe9 	bne	3000c33c <skip_atoi+0x1c>
3000c394:	e51b3008 	ldr	r3, [fp, #-8]
3000c398:	e1a00003 	mov	r0, r3
3000c39c:	e28bd000 	add	sp, fp, #0
3000c3a0:	e8bd0800 	ldmfd	sp!, {fp}
3000c3a4:	e12fff1e 	bx	lr
3000c3a8:	300102a4 	andcc	r0, r1, r4, lsr #5

3000c3ac <number>:
3000c3ac:	e92d4830 	push	{r4, r5, fp, lr}
3000c3b0:	e28db00c 	add	fp, sp, #12
3000c3b4:	e24dd078 	sub	sp, sp, #120	; 0x78
3000c3b8:	e50b0060 	str	r0, [fp, #-96]	; 0xffffffa0
3000c3bc:	e50b1064 	str	r1, [fp, #-100]	; 0xffffff9c
3000c3c0:	e50b206c 	str	r2, [fp, #-108]	; 0xffffff94
3000c3c4:	e50b3068 	str	r3, [fp, #-104]	; 0xffffff98
3000c3c8:	e59b3010 	ldr	r3, [fp, #16]
3000c3cc:	e2033040 	and	r3, r3, #64	; 0x40
3000c3d0:	e3530000 	cmp	r3, #0
3000c3d4:	0a000002 	beq	3000c3e4 <number+0x38>
3000c3d8:	e59f0544 	ldr	r0, [pc, #1348]	; 3000c924 <number+0x578>
3000c3dc:	e50b0080 	str	r0, [fp, #-128]	; 0xffffff80
3000c3e0:	ea000001 	b	3000c3ec <number+0x40>
3000c3e4:	e59f153c 	ldr	r1, [pc, #1340]	; 3000c928 <number+0x57c>
3000c3e8:	e50b1080 	str	r1, [fp, #-128]	; 0xffffff80
3000c3ec:	e51b2080 	ldr	r2, [fp, #-128]	; 0xffffff80
3000c3f0:	e50b2014 	str	r2, [fp, #-20]	; 0xffffffec
3000c3f4:	e59b3010 	ldr	r3, [fp, #16]
3000c3f8:	e2033010 	and	r3, r3, #16
3000c3fc:	e3530000 	cmp	r3, #0
3000c400:	0a000002 	beq	3000c410 <number+0x64>
3000c404:	e59b3010 	ldr	r3, [fp, #16]
3000c408:	e3c33001 	bic	r3, r3, #1
3000c40c:	e58b3010 	str	r3, [fp, #16]
3000c410:	e59b3004 	ldr	r3, [fp, #4]
3000c414:	e3530001 	cmp	r3, #1
3000c418:	da000002 	ble	3000c428 <number+0x7c>
3000c41c:	e59b3004 	ldr	r3, [fp, #4]
3000c420:	e3530024 	cmp	r3, #36	; 0x24
3000c424:	da000002 	ble	3000c434 <number+0x88>
3000c428:	e3a03000 	mov	r3, #0
3000c42c:	e50b307c 	str	r3, [fp, #-124]	; 0xffffff84
3000c430:	ea000136 	b	3000c910 <number+0x564>
3000c434:	e59b3010 	ldr	r3, [fp, #16]
3000c438:	e2033001 	and	r3, r3, #1
3000c43c:	e20330ff 	and	r3, r3, #255	; 0xff
3000c440:	e3530000 	cmp	r3, #0
3000c444:	0a000002 	beq	3000c454 <number+0xa8>
3000c448:	e3a04030 	mov	r4, #48	; 0x30
3000c44c:	e50b4078 	str	r4, [fp, #-120]	; 0xffffff88
3000c450:	ea000001 	b	3000c45c <number+0xb0>
3000c454:	e3a00020 	mov	r0, #32
3000c458:	e50b0078 	str	r0, [fp, #-120]	; 0xffffff88
3000c45c:	e51b1078 	ldr	r1, [fp, #-120]	; 0xffffff88
3000c460:	e1a03001 	mov	r3, r1
3000c464:	e54b3016 	strb	r3, [fp, #-22]	; 0xffffffea
3000c468:	e3a03000 	mov	r3, #0
3000c46c:	e54b3015 	strb	r3, [fp, #-21]	; 0xffffffeb
3000c470:	e59b3010 	ldr	r3, [fp, #16]
3000c474:	e2033002 	and	r3, r3, #2
3000c478:	e3530000 	cmp	r3, #0
3000c47c:	0a00002b 	beq	3000c530 <number+0x184>
3000c480:	e24b306c 	sub	r3, fp, #108	; 0x6c
3000c484:	e893000c 	ldm	r3, {r2, r3}
3000c488:	e50b2074 	str	r2, [fp, #-116]	; 0xffffff8c
3000c48c:	e50b3070 	str	r3, [fp, #-112]	; 0xffffff90
3000c490:	e51b3070 	ldr	r3, [fp, #-112]	; 0xffffff90
3000c494:	e3530000 	cmp	r3, #0
3000c498:	ba000005 	blt	3000c4b4 <number+0x108>
3000c49c:	e51b4070 	ldr	r4, [fp, #-112]	; 0xffffff90
3000c4a0:	e3540000 	cmp	r4, #0
3000c4a4:	1a00000e 	bne	3000c4e4 <number+0x138>
3000c4a8:	e51b0074 	ldr	r0, [fp, #-116]	; 0xffffff8c
3000c4ac:	e3500000 	cmp	r0, #0
3000c4b0:	ea00000b 	b	3000c4e4 <number+0x138>
3000c4b4:	e3a0302d 	mov	r3, #45	; 0x2d
3000c4b8:	e54b3015 	strb	r3, [fp, #-21]	; 0xffffffeb
3000c4bc:	e24b406c 	sub	r4, fp, #108	; 0x6c
3000c4c0:	e8940018 	ldm	r4, {r3, r4}
3000c4c4:	e2733000 	rsbs	r3, r3, #0
3000c4c8:	e2e44000 	rsc	r4, r4, #0
3000c4cc:	e50b306c 	str	r3, [fp, #-108]	; 0xffffff94
3000c4d0:	e50b4068 	str	r4, [fp, #-104]	; 0xffffff98
3000c4d4:	e59b3008 	ldr	r3, [fp, #8]
3000c4d8:	e2433001 	sub	r3, r3, #1
3000c4dc:	e58b3008 	str	r3, [fp, #8]
3000c4e0:	ea000012 	b	3000c530 <number+0x184>
3000c4e4:	e59b3010 	ldr	r3, [fp, #16]
3000c4e8:	e2033004 	and	r3, r3, #4
3000c4ec:	e3530000 	cmp	r3, #0
3000c4f0:	0a000005 	beq	3000c50c <number+0x160>
3000c4f4:	e3a0302b 	mov	r3, #43	; 0x2b
3000c4f8:	e54b3015 	strb	r3, [fp, #-21]	; 0xffffffeb
3000c4fc:	e59b3008 	ldr	r3, [fp, #8]
3000c500:	e2433001 	sub	r3, r3, #1
3000c504:	e58b3008 	str	r3, [fp, #8]
3000c508:	ea000008 	b	3000c530 <number+0x184>
3000c50c:	e59b3010 	ldr	r3, [fp, #16]
3000c510:	e2033008 	and	r3, r3, #8
3000c514:	e3530000 	cmp	r3, #0
3000c518:	0a000004 	beq	3000c530 <number+0x184>
3000c51c:	e3a03020 	mov	r3, #32
3000c520:	e54b3015 	strb	r3, [fp, #-21]	; 0xffffffeb
3000c524:	e59b3008 	ldr	r3, [fp, #8]
3000c528:	e2433001 	sub	r3, r3, #1
3000c52c:	e58b3008 	str	r3, [fp, #8]
3000c530:	e59b3010 	ldr	r3, [fp, #16]
3000c534:	e2033020 	and	r3, r3, #32
3000c538:	e3530000 	cmp	r3, #0
3000c53c:	0a00000c 	beq	3000c574 <number+0x1c8>
3000c540:	e59b3004 	ldr	r3, [fp, #4]
3000c544:	e3530010 	cmp	r3, #16
3000c548:	1a000003 	bne	3000c55c <number+0x1b0>
3000c54c:	e59b3008 	ldr	r3, [fp, #8]
3000c550:	e2433002 	sub	r3, r3, #2
3000c554:	e58b3008 	str	r3, [fp, #8]
3000c558:	ea000005 	b	3000c574 <number+0x1c8>
3000c55c:	e59b3004 	ldr	r3, [fp, #4]
3000c560:	e3530008 	cmp	r3, #8
3000c564:	1a000002 	bne	3000c574 <number+0x1c8>
3000c568:	e59b3008 	ldr	r3, [fp, #8]
3000c56c:	e2433001 	sub	r3, r3, #1
3000c570:	e58b3008 	str	r3, [fp, #8]
3000c574:	e3a03000 	mov	r3, #0
3000c578:	e50b3010 	str	r3, [fp, #-16]
3000c57c:	e51b306c 	ldr	r3, [fp, #-108]	; 0xffffff94
3000c580:	e51b2068 	ldr	r2, [fp, #-104]	; 0xffffff98
3000c584:	e1833002 	orr	r3, r3, r2
3000c588:	e3530000 	cmp	r3, #0
3000c58c:	1a00001f 	bne	3000c610 <number+0x264>
3000c590:	e51b3010 	ldr	r3, [fp, #-16]
3000c594:	e3e0204b 	mvn	r2, #75	; 0x4b
3000c598:	e24b100c 	sub	r1, fp, #12
3000c59c:	e0813003 	add	r3, r1, r3
3000c5a0:	e0832002 	add	r2, r3, r2
3000c5a4:	e3a03030 	mov	r3, #48	; 0x30
3000c5a8:	e5c23000 	strb	r3, [r2]
3000c5ac:	e51b3010 	ldr	r3, [fp, #-16]
3000c5b0:	e2833001 	add	r3, r3, #1
3000c5b4:	e50b3010 	str	r3, [fp, #-16]
3000c5b8:	ea000019 	b	3000c624 <number+0x278>
3000c5bc:	e51b5010 	ldr	r5, [fp, #-16]
3000c5c0:	e59b3004 	ldr	r3, [fp, #4]
3000c5c4:	e1a04003 	mov	r4, r3
3000c5c8:	e24b106c 	sub	r1, fp, #108	; 0x6c
3000c5cc:	e8910003 	ldm	r1, {r0, r1}
3000c5d0:	ebfff836 	bl	3000a6b0 <__do_div64>
3000c5d4:	e50b206c 	str	r2, [fp, #-108]	; 0xffffff94
3000c5d8:	e50b3068 	str	r3, [fp, #-104]	; 0xffffff98
3000c5dc:	e1a02001 	mov	r2, r1
3000c5e0:	e51b3014 	ldr	r3, [fp, #-20]	; 0xffffffec
3000c5e4:	e0833002 	add	r3, r3, r2
3000c5e8:	e5d31000 	ldrb	r1, [r3]
3000c5ec:	e3e0204b 	mvn	r2, #75	; 0x4b
3000c5f0:	e24b400c 	sub	r4, fp, #12
3000c5f4:	e0843005 	add	r3, r4, r5
3000c5f8:	e0832002 	add	r2, r3, r2
3000c5fc:	e1a03001 	mov	r3, r1
3000c600:	e5c23000 	strb	r3, [r2]
3000c604:	e51b3010 	ldr	r3, [fp, #-16]
3000c608:	e2833001 	add	r3, r3, #1
3000c60c:	e50b3010 	str	r3, [fp, #-16]
3000c610:	e51b306c 	ldr	r3, [fp, #-108]	; 0xffffff94
3000c614:	e51b2068 	ldr	r2, [fp, #-104]	; 0xffffff98
3000c618:	e1833002 	orr	r3, r3, r2
3000c61c:	e3530000 	cmp	r3, #0
3000c620:	1affffe5 	bne	3000c5bc <number+0x210>
3000c624:	e51b2010 	ldr	r2, [fp, #-16]
3000c628:	e59b300c 	ldr	r3, [fp, #12]
3000c62c:	e1520003 	cmp	r2, r3
3000c630:	da000001 	ble	3000c63c <number+0x290>
3000c634:	e51b3010 	ldr	r3, [fp, #-16]
3000c638:	e58b300c 	str	r3, [fp, #12]
3000c63c:	e59b2008 	ldr	r2, [fp, #8]
3000c640:	e59b300c 	ldr	r3, [fp, #12]
3000c644:	e0633002 	rsb	r3, r3, r2
3000c648:	e58b3008 	str	r3, [fp, #8]
3000c64c:	e59b3010 	ldr	r3, [fp, #16]
3000c650:	e2033011 	and	r3, r3, #17
3000c654:	e3530000 	cmp	r3, #0
3000c658:	1a000014 	bne	3000c6b0 <number+0x304>
3000c65c:	ea000009 	b	3000c688 <number+0x2dc>
3000c660:	e51b2060 	ldr	r2, [fp, #-96]	; 0xffffffa0
3000c664:	e51b3064 	ldr	r3, [fp, #-100]	; 0xffffff9c
3000c668:	e1520003 	cmp	r2, r3
3000c66c:	8a000002 	bhi	3000c67c <number+0x2d0>
3000c670:	e51b3060 	ldr	r3, [fp, #-96]	; 0xffffffa0
3000c674:	e3a02020 	mov	r2, #32
3000c678:	e5c32000 	strb	r2, [r3]
3000c67c:	e51b3060 	ldr	r3, [fp, #-96]	; 0xffffffa0
3000c680:	e2833001 	add	r3, r3, #1
3000c684:	e50b3060 	str	r3, [fp, #-96]	; 0xffffffa0
3000c688:	e59b3008 	ldr	r3, [fp, #8]
3000c68c:	e3530000 	cmp	r3, #0
3000c690:	d3a03000 	movle	r3, #0
3000c694:	c3a03001 	movgt	r3, #1
3000c698:	e20320ff 	and	r2, r3, #255	; 0xff
3000c69c:	e59b3008 	ldr	r3, [fp, #8]
3000c6a0:	e2433001 	sub	r3, r3, #1
3000c6a4:	e58b3008 	str	r3, [fp, #8]
3000c6a8:	e3520000 	cmp	r2, #0
3000c6ac:	1affffeb 	bne	3000c660 <number+0x2b4>
3000c6b0:	e55b3015 	ldrb	r3, [fp, #-21]	; 0xffffffeb
3000c6b4:	e3530000 	cmp	r3, #0
3000c6b8:	0a000009 	beq	3000c6e4 <number+0x338>
3000c6bc:	e51b2060 	ldr	r2, [fp, #-96]	; 0xffffffa0
3000c6c0:	e51b3064 	ldr	r3, [fp, #-100]	; 0xffffff9c
3000c6c4:	e1520003 	cmp	r2, r3
3000c6c8:	8a000002 	bhi	3000c6d8 <number+0x32c>
3000c6cc:	e51b2060 	ldr	r2, [fp, #-96]	; 0xffffffa0
3000c6d0:	e55b3015 	ldrb	r3, [fp, #-21]	; 0xffffffeb
3000c6d4:	e5c23000 	strb	r3, [r2]
3000c6d8:	e51b3060 	ldr	r3, [fp, #-96]	; 0xffffffa0
3000c6dc:	e2833001 	add	r3, r3, #1
3000c6e0:	e50b3060 	str	r3, [fp, #-96]	; 0xffffffa0
3000c6e4:	e59b3010 	ldr	r3, [fp, #16]
3000c6e8:	e2033020 	and	r3, r3, #32
3000c6ec:	e3530000 	cmp	r3, #0
3000c6f0:	0a000026 	beq	3000c790 <number+0x3e4>
3000c6f4:	e59b3004 	ldr	r3, [fp, #4]
3000c6f8:	e3530008 	cmp	r3, #8
3000c6fc:	1a00000a 	bne	3000c72c <number+0x380>
3000c700:	e51b2060 	ldr	r2, [fp, #-96]	; 0xffffffa0
3000c704:	e51b3064 	ldr	r3, [fp, #-100]	; 0xffffff9c
3000c708:	e1520003 	cmp	r2, r3
3000c70c:	8a000002 	bhi	3000c71c <number+0x370>
3000c710:	e51b3060 	ldr	r3, [fp, #-96]	; 0xffffffa0
3000c714:	e3a02030 	mov	r2, #48	; 0x30
3000c718:	e5c32000 	strb	r2, [r3]
3000c71c:	e51b3060 	ldr	r3, [fp, #-96]	; 0xffffffa0
3000c720:	e2833001 	add	r3, r3, #1
3000c724:	e50b3060 	str	r3, [fp, #-96]	; 0xffffffa0
3000c728:	ea000018 	b	3000c790 <number+0x3e4>
3000c72c:	e59b3004 	ldr	r3, [fp, #4]
3000c730:	e3530010 	cmp	r3, #16
3000c734:	1a000015 	bne	3000c790 <number+0x3e4>
3000c738:	e51b2060 	ldr	r2, [fp, #-96]	; 0xffffffa0
3000c73c:	e51b3064 	ldr	r3, [fp, #-100]	; 0xffffff9c
3000c740:	e1520003 	cmp	r2, r3
3000c744:	8a000002 	bhi	3000c754 <number+0x3a8>
3000c748:	e51b3060 	ldr	r3, [fp, #-96]	; 0xffffffa0
3000c74c:	e3a02030 	mov	r2, #48	; 0x30
3000c750:	e5c32000 	strb	r2, [r3]
3000c754:	e51b3060 	ldr	r3, [fp, #-96]	; 0xffffffa0
3000c758:	e2833001 	add	r3, r3, #1
3000c75c:	e50b3060 	str	r3, [fp, #-96]	; 0xffffffa0
3000c760:	e51b2060 	ldr	r2, [fp, #-96]	; 0xffffffa0
3000c764:	e51b3064 	ldr	r3, [fp, #-100]	; 0xffffff9c
3000c768:	e1520003 	cmp	r2, r3
3000c76c:	8a000004 	bhi	3000c784 <number+0x3d8>
3000c770:	e51b3014 	ldr	r3, [fp, #-20]	; 0xffffffec
3000c774:	e2833021 	add	r3, r3, #33	; 0x21
3000c778:	e5d33000 	ldrb	r3, [r3]
3000c77c:	e51b2060 	ldr	r2, [fp, #-96]	; 0xffffffa0
3000c780:	e5c23000 	strb	r3, [r2]
3000c784:	e51b3060 	ldr	r3, [fp, #-96]	; 0xffffffa0
3000c788:	e2833001 	add	r3, r3, #1
3000c78c:	e50b3060 	str	r3, [fp, #-96]	; 0xffffffa0
3000c790:	e59b3010 	ldr	r3, [fp, #16]
3000c794:	e2033010 	and	r3, r3, #16
3000c798:	e3530000 	cmp	r3, #0
3000c79c:	1a00001f 	bne	3000c820 <number+0x474>
3000c7a0:	ea000009 	b	3000c7cc <number+0x420>
3000c7a4:	e51b2060 	ldr	r2, [fp, #-96]	; 0xffffffa0
3000c7a8:	e51b3064 	ldr	r3, [fp, #-100]	; 0xffffff9c
3000c7ac:	e1520003 	cmp	r2, r3
3000c7b0:	8a000002 	bhi	3000c7c0 <number+0x414>
3000c7b4:	e51b2060 	ldr	r2, [fp, #-96]	; 0xffffffa0
3000c7b8:	e55b3016 	ldrb	r3, [fp, #-22]	; 0xffffffea
3000c7bc:	e5c23000 	strb	r3, [r2]
3000c7c0:	e51b3060 	ldr	r3, [fp, #-96]	; 0xffffffa0
3000c7c4:	e2833001 	add	r3, r3, #1
3000c7c8:	e50b3060 	str	r3, [fp, #-96]	; 0xffffffa0
3000c7cc:	e59b3008 	ldr	r3, [fp, #8]
3000c7d0:	e3530000 	cmp	r3, #0
3000c7d4:	d3a03000 	movle	r3, #0
3000c7d8:	c3a03001 	movgt	r3, #1
3000c7dc:	e20320ff 	and	r2, r3, #255	; 0xff
3000c7e0:	e59b3008 	ldr	r3, [fp, #8]
3000c7e4:	e2433001 	sub	r3, r3, #1
3000c7e8:	e58b3008 	str	r3, [fp, #8]
3000c7ec:	e3520000 	cmp	r2, #0
3000c7f0:	1affffeb 	bne	3000c7a4 <number+0x3f8>
3000c7f4:	ea000009 	b	3000c820 <number+0x474>
3000c7f8:	e51b2060 	ldr	r2, [fp, #-96]	; 0xffffffa0
3000c7fc:	e51b3064 	ldr	r3, [fp, #-100]	; 0xffffff9c
3000c800:	e1520003 	cmp	r2, r3
3000c804:	8a000002 	bhi	3000c814 <number+0x468>
3000c808:	e51b3060 	ldr	r3, [fp, #-96]	; 0xffffffa0
3000c80c:	e3a02030 	mov	r2, #48	; 0x30
3000c810:	e5c32000 	strb	r2, [r3]
3000c814:	e51b3060 	ldr	r3, [fp, #-96]	; 0xffffffa0
3000c818:	e2833001 	add	r3, r3, #1
3000c81c:	e50b3060 	str	r3, [fp, #-96]	; 0xffffffa0
3000c820:	e59b200c 	ldr	r2, [fp, #12]
3000c824:	e51b3010 	ldr	r3, [fp, #-16]
3000c828:	e1520003 	cmp	r2, r3
3000c82c:	d3a03000 	movle	r3, #0
3000c830:	c3a03001 	movgt	r3, #1
3000c834:	e20320ff 	and	r2, r3, #255	; 0xff
3000c838:	e59b300c 	ldr	r3, [fp, #12]
3000c83c:	e2433001 	sub	r3, r3, #1
3000c840:	e58b300c 	str	r3, [fp, #12]
3000c844:	e3520000 	cmp	r2, #0
3000c848:	1affffea 	bne	3000c7f8 <number+0x44c>
3000c84c:	ea00000e 	b	3000c88c <number+0x4e0>
3000c850:	e51b2060 	ldr	r2, [fp, #-96]	; 0xffffffa0
3000c854:	e51b3064 	ldr	r3, [fp, #-100]	; 0xffffff9c
3000c858:	e1520003 	cmp	r2, r3
3000c85c:	8a000007 	bhi	3000c880 <number+0x4d4>
3000c860:	e51b3010 	ldr	r3, [fp, #-16]
3000c864:	e3e0204b 	mvn	r2, #75	; 0x4b
3000c868:	e24b000c 	sub	r0, fp, #12
3000c86c:	e0803003 	add	r3, r0, r3
3000c870:	e0833002 	add	r3, r3, r2
3000c874:	e5d33000 	ldrb	r3, [r3]
3000c878:	e51b2060 	ldr	r2, [fp, #-96]	; 0xffffffa0
3000c87c:	e5c23000 	strb	r3, [r2]
3000c880:	e51b3060 	ldr	r3, [fp, #-96]	; 0xffffffa0
3000c884:	e2833001 	add	r3, r3, #1
3000c888:	e50b3060 	str	r3, [fp, #-96]	; 0xffffffa0
3000c88c:	e51b3010 	ldr	r3, [fp, #-16]
3000c890:	e3530000 	cmp	r3, #0
3000c894:	d3a03000 	movle	r3, #0
3000c898:	c3a03001 	movgt	r3, #1
3000c89c:	e20320ff 	and	r2, r3, #255	; 0xff
3000c8a0:	e51b3010 	ldr	r3, [fp, #-16]
3000c8a4:	e2433001 	sub	r3, r3, #1
3000c8a8:	e50b3010 	str	r3, [fp, #-16]
3000c8ac:	e3520000 	cmp	r2, #0
3000c8b0:	1affffe6 	bne	3000c850 <number+0x4a4>
3000c8b4:	ea000009 	b	3000c8e0 <number+0x534>
3000c8b8:	e51b2060 	ldr	r2, [fp, #-96]	; 0xffffffa0
3000c8bc:	e51b3064 	ldr	r3, [fp, #-100]	; 0xffffff9c
3000c8c0:	e1520003 	cmp	r2, r3
3000c8c4:	8a000002 	bhi	3000c8d4 <number+0x528>
3000c8c8:	e51b3060 	ldr	r3, [fp, #-96]	; 0xffffffa0
3000c8cc:	e3a02020 	mov	r2, #32
3000c8d0:	e5c32000 	strb	r2, [r3]
3000c8d4:	e51b3060 	ldr	r3, [fp, #-96]	; 0xffffffa0
3000c8d8:	e2833001 	add	r3, r3, #1
3000c8dc:	e50b3060 	str	r3, [fp, #-96]	; 0xffffffa0
3000c8e0:	e59b3008 	ldr	r3, [fp, #8]
3000c8e4:	e3530000 	cmp	r3, #0
3000c8e8:	d3a03000 	movle	r3, #0
3000c8ec:	c3a03001 	movgt	r3, #1
3000c8f0:	e20320ff 	and	r2, r3, #255	; 0xff
3000c8f4:	e59b3008 	ldr	r3, [fp, #8]
3000c8f8:	e2433001 	sub	r3, r3, #1
3000c8fc:	e58b3008 	str	r3, [fp, #8]
3000c900:	e3520000 	cmp	r2, #0
3000c904:	1affffeb 	bne	3000c8b8 <number+0x50c>
3000c908:	e51b1060 	ldr	r1, [fp, #-96]	; 0xffffffa0
3000c90c:	e50b107c 	str	r1, [fp, #-124]	; 0xffffff84
3000c910:	e51b307c 	ldr	r3, [fp, #-124]	; 0xffffff84
3000c914:	e1a00003 	mov	r0, r3
3000c918:	e24bd00c 	sub	sp, fp, #12
3000c91c:	e8bd4830 	pop	{r4, r5, fp, lr}
3000c920:	e12fff1e 	bx	lr
3000c924:	300101dc 	ldrdcc	r0, [r1], -ip
3000c928:	30010204 	andcc	r0, r1, r4, lsl #4

3000c92c <vsnprintf>:
3000c92c:	e92d4830 	push	{r4, r5, fp, lr}
3000c930:	e28db00c 	add	fp, sp, #12
3000c934:	e24dd070 	sub	sp, sp, #112	; 0x70
3000c938:	e50b0058 	str	r0, [fp, #-88]	; 0xffffffa8
3000c93c:	e50b105c 	str	r1, [fp, #-92]	; 0xffffffa4
3000c940:	e50b2060 	str	r2, [fp, #-96]	; 0xffffffa0
3000c944:	e50b3064 	str	r3, [fp, #-100]	; 0xffffff9c
3000c948:	e51b305c 	ldr	r3, [fp, #-92]	; 0xffffffa4
3000c94c:	e1a03fa3 	lsr	r3, r3, #31
3000c950:	e3530000 	cmp	r3, #0
3000c954:	0a000005 	beq	3000c970 <vsnprintf+0x44>
3000c958:	e59f2b44 	ldr	r2, [pc, #2884]	; 3000d4a4 <vsnprintf+0xb78>
3000c95c:	e3a03000 	mov	r3, #0
3000c960:	e5823000 	str	r3, [r2]
3000c964:	e3a03000 	mov	r3, #0
3000c968:	e50b3068 	str	r3, [fp, #-104]	; 0xffffff98
3000c96c:	ea0002c7 	b	3000d490 <vsnprintf+0xb64>
3000c970:	e51b3058 	ldr	r3, [fp, #-88]	; 0xffffffa8
3000c974:	e50b3038 	str	r3, [fp, #-56]	; 0xffffffc8
3000c978:	e51b305c 	ldr	r3, [fp, #-92]	; 0xffffffa4
3000c97c:	e2432001 	sub	r2, r3, #1
3000c980:	e51b3058 	ldr	r3, [fp, #-88]	; 0xffffffa8
3000c984:	e0833002 	add	r3, r3, r2
3000c988:	e50b3034 	str	r3, [fp, #-52]	; 0xffffffcc
3000c98c:	e51b3058 	ldr	r3, [fp, #-88]	; 0xffffffa8
3000c990:	e2432001 	sub	r2, r3, #1
3000c994:	e51b3034 	ldr	r3, [fp, #-52]	; 0xffffffcc
3000c998:	e1520003 	cmp	r2, r3
3000c99c:	9a0002a5 	bls	3000d438 <vsnprintf+0xb0c>
3000c9a0:	e3e03000 	mvn	r3, #0
3000c9a4:	e50b3034 	str	r3, [fp, #-52]	; 0xffffffcc
3000c9a8:	e51b2034 	ldr	r2, [fp, #-52]	; 0xffffffcc
3000c9ac:	e51b3058 	ldr	r3, [fp, #-88]	; 0xffffffa8
3000c9b0:	e0633002 	rsb	r3, r3, r2
3000c9b4:	e2833001 	add	r3, r3, #1
3000c9b8:	e50b305c 	str	r3, [fp, #-92]	; 0xffffffa4
3000c9bc:	ea00029d 	b	3000d438 <vsnprintf+0xb0c>
3000c9c0:	e51b3060 	ldr	r3, [fp, #-96]	; 0xffffffa0
3000c9c4:	e5d33000 	ldrb	r3, [r3]
3000c9c8:	e3530025 	cmp	r3, #37	; 0x25
3000c9cc:	0a00000b 	beq	3000ca00 <vsnprintf+0xd4>
3000c9d0:	e51b2038 	ldr	r2, [fp, #-56]	; 0xffffffc8
3000c9d4:	e51b3034 	ldr	r3, [fp, #-52]	; 0xffffffcc
3000c9d8:	e1520003 	cmp	r2, r3
3000c9dc:	8a000003 	bhi	3000c9f0 <vsnprintf+0xc4>
3000c9e0:	e51b3060 	ldr	r3, [fp, #-96]	; 0xffffffa0
3000c9e4:	e5d33000 	ldrb	r3, [r3]
3000c9e8:	e51b2038 	ldr	r2, [fp, #-56]	; 0xffffffc8
3000c9ec:	e5c23000 	strb	r3, [r2]
3000c9f0:	e51b3038 	ldr	r3, [fp, #-56]	; 0xffffffc8
3000c9f4:	e2833001 	add	r3, r3, #1
3000c9f8:	e50b3038 	str	r3, [fp, #-56]	; 0xffffffc8
3000c9fc:	ea00028a 	b	3000d42c <vsnprintf+0xb00>
3000ca00:	e3a03000 	mov	r3, #0
3000ca04:	e50b3028 	str	r3, [fp, #-40]	; 0xffffffd8
3000ca08:	e51b3060 	ldr	r3, [fp, #-96]	; 0xffffffa0
3000ca0c:	e2833001 	add	r3, r3, #1
3000ca10:	e50b3060 	str	r3, [fp, #-96]	; 0xffffffa0
3000ca14:	e51b3060 	ldr	r3, [fp, #-96]	; 0xffffffa0
3000ca18:	e5d33000 	ldrb	r3, [r3]
3000ca1c:	e2433020 	sub	r3, r3, #32
3000ca20:	e3530010 	cmp	r3, #16
3000ca24:	979ff103 	ldrls	pc, [pc, r3, lsl #2]
3000ca28:	ea000024 	b	3000cac0 <vsnprintf+0x194>
3000ca2c:	3000ca90 	mulcc	r0, r0, sl
3000ca30:	3000cac0 	andcc	ip, r0, r0, asr #21
3000ca34:	3000cac0 	andcc	ip, r0, r0, asr #21
3000ca38:	3000caa0 	andcc	ip, r0, r0, lsr #21
3000ca3c:	3000cac0 	andcc	ip, r0, r0, asr #21
3000ca40:	3000cac0 	andcc	ip, r0, r0, asr #21
3000ca44:	3000cac0 	andcc	ip, r0, r0, asr #21
3000ca48:	3000cac0 	andcc	ip, r0, r0, asr #21
3000ca4c:	3000cac0 	andcc	ip, r0, r0, asr #21
3000ca50:	3000cac0 	andcc	ip, r0, r0, asr #21
3000ca54:	3000cac0 	andcc	ip, r0, r0, asr #21
3000ca58:	3000ca80 	andcc	ip, r0, r0, lsl #21
3000ca5c:	3000cac0 	andcc	ip, r0, r0, asr #21
3000ca60:	3000ca70 	andcc	ip, r0, r0, ror sl
3000ca64:	3000cac0 	andcc	ip, r0, r0, asr #21
3000ca68:	3000cac0 	andcc	ip, r0, r0, asr #21
3000ca6c:	3000cab0 			; <UNDEFINED> instruction: 0x3000cab0
3000ca70:	e51b3028 	ldr	r3, [fp, #-40]	; 0xffffffd8
3000ca74:	e3833010 	orr	r3, r3, #16
3000ca78:	e50b3028 	str	r3, [fp, #-40]	; 0xffffffd8
3000ca7c:	eaffffe1 	b	3000ca08 <vsnprintf+0xdc>
3000ca80:	e51b3028 	ldr	r3, [fp, #-40]	; 0xffffffd8
3000ca84:	e3833004 	orr	r3, r3, #4
3000ca88:	e50b3028 	str	r3, [fp, #-40]	; 0xffffffd8
3000ca8c:	eaffffdd 	b	3000ca08 <vsnprintf+0xdc>
3000ca90:	e51b3028 	ldr	r3, [fp, #-40]	; 0xffffffd8
3000ca94:	e3833008 	orr	r3, r3, #8
3000ca98:	e50b3028 	str	r3, [fp, #-40]	; 0xffffffd8
3000ca9c:	eaffffd9 	b	3000ca08 <vsnprintf+0xdc>
3000caa0:	e51b3028 	ldr	r3, [fp, #-40]	; 0xffffffd8
3000caa4:	e3833020 	orr	r3, r3, #32
3000caa8:	e50b3028 	str	r3, [fp, #-40]	; 0xffffffd8
3000caac:	eaffffd5 	b	3000ca08 <vsnprintf+0xdc>
3000cab0:	e51b3028 	ldr	r3, [fp, #-40]	; 0xffffffd8
3000cab4:	e3833001 	orr	r3, r3, #1
3000cab8:	e50b3028 	str	r3, [fp, #-40]	; 0xffffffd8
3000cabc:	eaffffd1 	b	3000ca08 <vsnprintf+0xdc>
3000cac0:	e3e03000 	mvn	r3, #0
3000cac4:	e50b3024 	str	r3, [fp, #-36]	; 0xffffffdc
3000cac8:	e51b3060 	ldr	r3, [fp, #-96]	; 0xffffffa0
3000cacc:	e5d33000 	ldrb	r3, [r3]
3000cad0:	e1a02003 	mov	r2, r3
3000cad4:	e59f39cc 	ldr	r3, [pc, #2508]	; 3000d4a8 <vsnprintf+0xb7c>
3000cad8:	e7d33002 	ldrb	r3, [r3, r2]
3000cadc:	e2033004 	and	r3, r3, #4
3000cae0:	e3530000 	cmp	r3, #0
3000cae4:	0a000005 	beq	3000cb00 <vsnprintf+0x1d4>
3000cae8:	e24b3060 	sub	r3, fp, #96	; 0x60
3000caec:	e1a00003 	mov	r0, r3
3000caf0:	ebfffe0a 	bl	3000c320 <skip_atoi>
3000caf4:	e1a03000 	mov	r3, r0
3000caf8:	e50b3024 	str	r3, [fp, #-36]	; 0xffffffdc
3000cafc:	ea000016 	b	3000cb5c <vsnprintf+0x230>
3000cb00:	e51b3060 	ldr	r3, [fp, #-96]	; 0xffffffa0
3000cb04:	e5d33000 	ldrb	r3, [r3]
3000cb08:	e353002a 	cmp	r3, #42	; 0x2a
3000cb0c:	1a000012 	bne	3000cb5c <vsnprintf+0x230>
3000cb10:	e51b3060 	ldr	r3, [fp, #-96]	; 0xffffffa0
3000cb14:	e2833001 	add	r3, r3, #1
3000cb18:	e50b3060 	str	r3, [fp, #-96]	; 0xffffffa0
3000cb1c:	e51b3064 	ldr	r3, [fp, #-100]	; 0xffffff9c
3000cb20:	e2833004 	add	r3, r3, #4
3000cb24:	e50b3064 	str	r3, [fp, #-100]	; 0xffffff9c
3000cb28:	e51b3064 	ldr	r3, [fp, #-100]	; 0xffffff9c
3000cb2c:	e2433004 	sub	r3, r3, #4
3000cb30:	e5933000 	ldr	r3, [r3]
3000cb34:	e50b3024 	str	r3, [fp, #-36]	; 0xffffffdc
3000cb38:	e51b3024 	ldr	r3, [fp, #-36]	; 0xffffffdc
3000cb3c:	e3530000 	cmp	r3, #0
3000cb40:	aa000005 	bge	3000cb5c <vsnprintf+0x230>
3000cb44:	e51b3024 	ldr	r3, [fp, #-36]	; 0xffffffdc
3000cb48:	e2633000 	rsb	r3, r3, #0
3000cb4c:	e50b3024 	str	r3, [fp, #-36]	; 0xffffffdc
3000cb50:	e51b3028 	ldr	r3, [fp, #-40]	; 0xffffffd8
3000cb54:	e3833010 	orr	r3, r3, #16
3000cb58:	e50b3028 	str	r3, [fp, #-40]	; 0xffffffd8
3000cb5c:	e3e03000 	mvn	r3, #0
3000cb60:	e50b3020 	str	r3, [fp, #-32]	; 0xffffffe0
3000cb64:	e51b3060 	ldr	r3, [fp, #-96]	; 0xffffffa0
3000cb68:	e5d33000 	ldrb	r3, [r3]
3000cb6c:	e353002e 	cmp	r3, #46	; 0x2e
3000cb70:	1a000023 	bne	3000cc04 <vsnprintf+0x2d8>
3000cb74:	e51b3060 	ldr	r3, [fp, #-96]	; 0xffffffa0
3000cb78:	e2833001 	add	r3, r3, #1
3000cb7c:	e50b3060 	str	r3, [fp, #-96]	; 0xffffffa0
3000cb80:	e51b3060 	ldr	r3, [fp, #-96]	; 0xffffffa0
3000cb84:	e5d33000 	ldrb	r3, [r3]
3000cb88:	e1a02003 	mov	r2, r3
3000cb8c:	e59f3914 	ldr	r3, [pc, #2324]	; 3000d4a8 <vsnprintf+0xb7c>
3000cb90:	e7d33002 	ldrb	r3, [r3, r2]
3000cb94:	e2033004 	and	r3, r3, #4
3000cb98:	e3530000 	cmp	r3, #0
3000cb9c:	0a000005 	beq	3000cbb8 <vsnprintf+0x28c>
3000cba0:	e24b3060 	sub	r3, fp, #96	; 0x60
3000cba4:	e1a00003 	mov	r0, r3
3000cba8:	ebfffddc 	bl	3000c320 <skip_atoi>
3000cbac:	e1a03000 	mov	r3, r0
3000cbb0:	e50b3020 	str	r3, [fp, #-32]	; 0xffffffe0
3000cbb4:	ea00000d 	b	3000cbf0 <vsnprintf+0x2c4>
3000cbb8:	e51b3060 	ldr	r3, [fp, #-96]	; 0xffffffa0
3000cbbc:	e5d33000 	ldrb	r3, [r3]
3000cbc0:	e353002a 	cmp	r3, #42	; 0x2a
3000cbc4:	1a000009 	bne	3000cbf0 <vsnprintf+0x2c4>
3000cbc8:	e51b3060 	ldr	r3, [fp, #-96]	; 0xffffffa0
3000cbcc:	e2833001 	add	r3, r3, #1
3000cbd0:	e50b3060 	str	r3, [fp, #-96]	; 0xffffffa0
3000cbd4:	e51b3064 	ldr	r3, [fp, #-100]	; 0xffffff9c
3000cbd8:	e2833004 	add	r3, r3, #4
3000cbdc:	e50b3064 	str	r3, [fp, #-100]	; 0xffffff9c
3000cbe0:	e51b3064 	ldr	r3, [fp, #-100]	; 0xffffff9c
3000cbe4:	e2433004 	sub	r3, r3, #4
3000cbe8:	e5933000 	ldr	r3, [r3]
3000cbec:	e50b3020 	str	r3, [fp, #-32]	; 0xffffffe0
3000cbf0:	e51b3020 	ldr	r3, [fp, #-32]	; 0xffffffe0
3000cbf4:	e3530000 	cmp	r3, #0
3000cbf8:	aa000001 	bge	3000cc04 <vsnprintf+0x2d8>
3000cbfc:	e3a03000 	mov	r3, #0
3000cc00:	e50b3020 	str	r3, [fp, #-32]	; 0xffffffe0
3000cc04:	e3e03000 	mvn	r3, #0
3000cc08:	e50b301c 	str	r3, [fp, #-28]	; 0xffffffe4
3000cc0c:	e51b3060 	ldr	r3, [fp, #-96]	; 0xffffffa0
3000cc10:	e5d33000 	ldrb	r3, [r3]
3000cc14:	e3530068 	cmp	r3, #104	; 0x68
3000cc18:	0a00000f 	beq	3000cc5c <vsnprintf+0x330>
3000cc1c:	e51b3060 	ldr	r3, [fp, #-96]	; 0xffffffa0
3000cc20:	e5d33000 	ldrb	r3, [r3]
3000cc24:	e353006c 	cmp	r3, #108	; 0x6c
3000cc28:	0a00000b 	beq	3000cc5c <vsnprintf+0x330>
3000cc2c:	e51b3060 	ldr	r3, [fp, #-96]	; 0xffffffa0
3000cc30:	e5d33000 	ldrb	r3, [r3]
3000cc34:	e353004c 	cmp	r3, #76	; 0x4c
3000cc38:	0a000007 	beq	3000cc5c <vsnprintf+0x330>
3000cc3c:	e51b3060 	ldr	r3, [fp, #-96]	; 0xffffffa0
3000cc40:	e5d33000 	ldrb	r3, [r3]
3000cc44:	e353005a 	cmp	r3, #90	; 0x5a
3000cc48:	0a000003 	beq	3000cc5c <vsnprintf+0x330>
3000cc4c:	e51b3060 	ldr	r3, [fp, #-96]	; 0xffffffa0
3000cc50:	e5d33000 	ldrb	r3, [r3]
3000cc54:	e353007a 	cmp	r3, #122	; 0x7a
3000cc58:	1a000011 	bne	3000cca4 <vsnprintf+0x378>
3000cc5c:	e51b3060 	ldr	r3, [fp, #-96]	; 0xffffffa0
3000cc60:	e5d33000 	ldrb	r3, [r3]
3000cc64:	e50b301c 	str	r3, [fp, #-28]	; 0xffffffe4
3000cc68:	e51b3060 	ldr	r3, [fp, #-96]	; 0xffffffa0
3000cc6c:	e2833001 	add	r3, r3, #1
3000cc70:	e50b3060 	str	r3, [fp, #-96]	; 0xffffffa0
3000cc74:	e51b301c 	ldr	r3, [fp, #-28]	; 0xffffffe4
3000cc78:	e353006c 	cmp	r3, #108	; 0x6c
3000cc7c:	1a000008 	bne	3000cca4 <vsnprintf+0x378>
3000cc80:	e51b3060 	ldr	r3, [fp, #-96]	; 0xffffffa0
3000cc84:	e5d33000 	ldrb	r3, [r3]
3000cc88:	e353006c 	cmp	r3, #108	; 0x6c
3000cc8c:	1a000004 	bne	3000cca4 <vsnprintf+0x378>
3000cc90:	e3a0304c 	mov	r3, #76	; 0x4c
3000cc94:	e50b301c 	str	r3, [fp, #-28]	; 0xffffffe4
3000cc98:	e51b3060 	ldr	r3, [fp, #-96]	; 0xffffffa0
3000cc9c:	e2833001 	add	r3, r3, #1
3000cca0:	e50b3060 	str	r3, [fp, #-96]	; 0xffffffa0
3000cca4:	e3a0300a 	mov	r3, #10
3000cca8:	e50b303c 	str	r3, [fp, #-60]	; 0xffffffc4
3000ccac:	e51b3060 	ldr	r3, [fp, #-96]	; 0xffffffa0
3000ccb0:	e5d33000 	ldrb	r3, [r3]
3000ccb4:	e2433025 	sub	r3, r3, #37	; 0x25
3000ccb8:	e3530053 	cmp	r3, #83	; 0x53
3000ccbc:	979ff103 	ldrls	pc, [pc, r3, lsl #2]
3000ccc0:	ea000151 	b	3000d20c <vsnprintf+0x8e0>
3000ccc4:	3000d1ac 	andcc	sp, r0, ip, lsr #3
3000ccc8:	3000d20c 	andcc	sp, r0, ip, lsl #4
3000cccc:	3000d20c 	andcc	sp, r0, ip, lsl #4
3000ccd0:	3000d20c 	andcc	sp, r0, ip, lsl #4
3000ccd4:	3000d20c 	andcc	sp, r0, ip, lsl #4
3000ccd8:	3000d20c 	andcc	sp, r0, ip, lsl #4
3000ccdc:	3000d20c 	andcc	sp, r0, ip, lsl #4
3000cce0:	3000d20c 	andcc	sp, r0, ip, lsl #4
3000cce4:	3000d20c 	andcc	sp, r0, ip, lsl #4
3000cce8:	3000d20c 	andcc	sp, r0, ip, lsl #4
3000ccec:	3000d20c 	andcc	sp, r0, ip, lsl #4
3000ccf0:	3000d20c 	andcc	sp, r0, ip, lsl #4
3000ccf4:	3000d20c 	andcc	sp, r0, ip, lsl #4
3000ccf8:	3000d20c 	andcc	sp, r0, ip, lsl #4
3000ccfc:	3000d20c 	andcc	sp, r0, ip, lsl #4
3000cd00:	3000d20c 	andcc	sp, r0, ip, lsl #4
3000cd04:	3000d20c 	andcc	sp, r0, ip, lsl #4
3000cd08:	3000d20c 	andcc	sp, r0, ip, lsl #4
3000cd0c:	3000d20c 	andcc	sp, r0, ip, lsl #4
3000cd10:	3000d20c 	andcc	sp, r0, ip, lsl #4
3000cd14:	3000d20c 	andcc	sp, r0, ip, lsl #4
3000cd18:	3000d20c 	andcc	sp, r0, ip, lsl #4
3000cd1c:	3000d20c 	andcc	sp, r0, ip, lsl #4
3000cd20:	3000d20c 	andcc	sp, r0, ip, lsl #4
3000cd24:	3000d20c 	andcc	sp, r0, ip, lsl #4
3000cd28:	3000d20c 	andcc	sp, r0, ip, lsl #4
3000cd2c:	3000d20c 	andcc	sp, r0, ip, lsl #4
3000cd30:	3000d20c 	andcc	sp, r0, ip, lsl #4
3000cd34:	3000d20c 	andcc	sp, r0, ip, lsl #4
3000cd38:	3000d20c 	andcc	sp, r0, ip, lsl #4
3000cd3c:	3000d20c 	andcc	sp, r0, ip, lsl #4
3000cd40:	3000d20c 	andcc	sp, r0, ip, lsl #4
3000cd44:	3000d20c 	andcc	sp, r0, ip, lsl #4
3000cd48:	3000d20c 	andcc	sp, r0, ip, lsl #4
3000cd4c:	3000d20c 	andcc	sp, r0, ip, lsl #4
3000cd50:	3000d20c 	andcc	sp, r0, ip, lsl #4
3000cd54:	3000d20c 	andcc	sp, r0, ip, lsl #4
3000cd58:	3000d20c 	andcc	sp, r0, ip, lsl #4
3000cd5c:	3000d20c 	andcc	sp, r0, ip, lsl #4
3000cd60:	3000d20c 	andcc	sp, r0, ip, lsl #4
3000cd64:	3000d20c 	andcc	sp, r0, ip, lsl #4
3000cd68:	3000d20c 	andcc	sp, r0, ip, lsl #4
3000cd6c:	3000d20c 	andcc	sp, r0, ip, lsl #4
3000cd70:	3000d20c 	andcc	sp, r0, ip, lsl #4
3000cd74:	3000d20c 	andcc	sp, r0, ip, lsl #4
3000cd78:	3000d20c 	andcc	sp, r0, ip, lsl #4
3000cd7c:	3000d20c 	andcc	sp, r0, ip, lsl #4
3000cd80:	3000d20c 	andcc	sp, r0, ip, lsl #4
3000cd84:	3000d20c 	andcc	sp, r0, ip, lsl #4
3000cd88:	3000d20c 	andcc	sp, r0, ip, lsl #4
3000cd8c:	3000d20c 	andcc	sp, r0, ip, lsl #4
3000cd90:	3000d1e4 	andcc	sp, r0, r4, ror #3
3000cd94:	3000d20c 	andcc	sp, r0, ip, lsl #4
3000cd98:	3000d20c 	andcc	sp, r0, ip, lsl #4
3000cd9c:	3000d20c 	andcc	sp, r0, ip, lsl #4
3000cda0:	3000d20c 	andcc	sp, r0, ip, lsl #4
3000cda4:	3000d20c 	andcc	sp, r0, ip, lsl #4
3000cda8:	3000d20c 	andcc	sp, r0, ip, lsl #4
3000cdac:	3000d20c 	andcc	sp, r0, ip, lsl #4
3000cdb0:	3000d20c 	andcc	sp, r0, ip, lsl #4
3000cdb4:	3000d20c 	andcc	sp, r0, ip, lsl #4
3000cdb8:	3000d20c 	andcc	sp, r0, ip, lsl #4
3000cdbc:	3000ce14 	andcc	ip, r0, r4, lsl lr
3000cdc0:	3000d1fc 	strdcc	sp, [r0], -ip
3000cdc4:	3000d20c 	andcc	sp, r0, ip, lsl #4
3000cdc8:	3000d20c 	andcc	sp, r0, ip, lsl #4
3000cdcc:	3000d20c 	andcc	sp, r0, ip, lsl #4
3000cdd0:	3000d20c 	andcc	sp, r0, ip, lsl #4
3000cdd4:	3000d1fc 	strdcc	sp, [r0], -ip
3000cdd8:	3000d20c 	andcc	sp, r0, ip, lsl #4
3000cddc:	3000d20c 	andcc	sp, r0, ip, lsl #4
3000cde0:	3000d20c 	andcc	sp, r0, ip, lsl #4
3000cde4:	3000d20c 	andcc	sp, r0, ip, lsl #4
3000cde8:	3000d0e8 	andcc	sp, r0, r8, ror #1
3000cdec:	3000d1d8 	ldrdcc	sp, [r0], -r8
3000cdf0:	3000d068 	andcc	sp, r0, r8, rrx
3000cdf4:	3000d20c 	andcc	sp, r0, ip, lsl #4
3000cdf8:	3000d20c 	andcc	sp, r0, ip, lsl #4
3000cdfc:	3000cef4 	strdcc	ip, [r0], -r4
3000ce00:	3000d20c 	andcc	sp, r0, ip, lsl #4
3000ce04:	3000d284 	andcc	sp, r0, r4, lsl #5
3000ce08:	3000d20c 	andcc	sp, r0, ip, lsl #4
3000ce0c:	3000d20c 	andcc	sp, r0, ip, lsl #4
3000ce10:	3000d1f0 	strdcc	sp, [r0], -r0
3000ce14:	e51b3028 	ldr	r3, [fp, #-40]	; 0xffffffd8
3000ce18:	e2033010 	and	r3, r3, #16
3000ce1c:	e3530000 	cmp	r3, #0
3000ce20:	1a000010 	bne	3000ce68 <vsnprintf+0x53c>
3000ce24:	ea000009 	b	3000ce50 <vsnprintf+0x524>
3000ce28:	e51b2038 	ldr	r2, [fp, #-56]	; 0xffffffc8
3000ce2c:	e51b3034 	ldr	r3, [fp, #-52]	; 0xffffffcc
3000ce30:	e1520003 	cmp	r2, r3
3000ce34:	8a000002 	bhi	3000ce44 <vsnprintf+0x518>
3000ce38:	e51b3038 	ldr	r3, [fp, #-56]	; 0xffffffc8
3000ce3c:	e3a02020 	mov	r2, #32
3000ce40:	e5c32000 	strb	r2, [r3]
3000ce44:	e51b3038 	ldr	r3, [fp, #-56]	; 0xffffffc8
3000ce48:	e2833001 	add	r3, r3, #1
3000ce4c:	e50b3038 	str	r3, [fp, #-56]	; 0xffffffc8
3000ce50:	e51b3024 	ldr	r3, [fp, #-36]	; 0xffffffdc
3000ce54:	e2433001 	sub	r3, r3, #1
3000ce58:	e50b3024 	str	r3, [fp, #-36]	; 0xffffffdc
3000ce5c:	e51b3024 	ldr	r3, [fp, #-36]	; 0xffffffdc
3000ce60:	e3530000 	cmp	r3, #0
3000ce64:	caffffef 	bgt	3000ce28 <vsnprintf+0x4fc>
3000ce68:	e51b3064 	ldr	r3, [fp, #-100]	; 0xffffff9c
3000ce6c:	e2833004 	add	r3, r3, #4
3000ce70:	e50b3064 	str	r3, [fp, #-100]	; 0xffffff9c
3000ce74:	e51b3064 	ldr	r3, [fp, #-100]	; 0xffffff9c
3000ce78:	e2433004 	sub	r3, r3, #4
3000ce7c:	e5933000 	ldr	r3, [r3]
3000ce80:	e54b302d 	strb	r3, [fp, #-45]	; 0xffffffd3
3000ce84:	e51b2038 	ldr	r2, [fp, #-56]	; 0xffffffc8
3000ce88:	e51b3034 	ldr	r3, [fp, #-52]	; 0xffffffcc
3000ce8c:	e1520003 	cmp	r2, r3
3000ce90:	8a000002 	bhi	3000cea0 <vsnprintf+0x574>
3000ce94:	e51b2038 	ldr	r2, [fp, #-56]	; 0xffffffc8
3000ce98:	e55b302d 	ldrb	r3, [fp, #-45]	; 0xffffffd3
3000ce9c:	e5c23000 	strb	r3, [r2]
3000cea0:	e51b3038 	ldr	r3, [fp, #-56]	; 0xffffffc8
3000cea4:	e2833001 	add	r3, r3, #1
3000cea8:	e50b3038 	str	r3, [fp, #-56]	; 0xffffffc8
3000ceac:	ea000009 	b	3000ced8 <vsnprintf+0x5ac>
3000ceb0:	e51b2038 	ldr	r2, [fp, #-56]	; 0xffffffc8
3000ceb4:	e51b3034 	ldr	r3, [fp, #-52]	; 0xffffffcc
3000ceb8:	e1520003 	cmp	r2, r3
3000cebc:	8a000002 	bhi	3000cecc <vsnprintf+0x5a0>
3000cec0:	e51b3038 	ldr	r3, [fp, #-56]	; 0xffffffc8
3000cec4:	e3a02020 	mov	r2, #32
3000cec8:	e5c32000 	strb	r2, [r3]
3000cecc:	e51b3038 	ldr	r3, [fp, #-56]	; 0xffffffc8
3000ced0:	e2833001 	add	r3, r3, #1
3000ced4:	e50b3038 	str	r3, [fp, #-56]	; 0xffffffc8
3000ced8:	e51b3024 	ldr	r3, [fp, #-36]	; 0xffffffdc
3000cedc:	e2433001 	sub	r3, r3, #1
3000cee0:	e50b3024 	str	r3, [fp, #-36]	; 0xffffffdc
3000cee4:	e51b3024 	ldr	r3, [fp, #-36]	; 0xffffffdc
3000cee8:	e3530000 	cmp	r3, #0
3000ceec:	caffffef 	bgt	3000ceb0 <vsnprintf+0x584>
3000cef0:	ea00014d 	b	3000d42c <vsnprintf+0xb00>
3000cef4:	e51b3064 	ldr	r3, [fp, #-100]	; 0xffffff9c
3000cef8:	e2833004 	add	r3, r3, #4
3000cefc:	e50b3064 	str	r3, [fp, #-100]	; 0xffffff9c
3000cf00:	e51b3064 	ldr	r3, [fp, #-100]	; 0xffffff9c
3000cf04:	e2433004 	sub	r3, r3, #4
3000cf08:	e5933000 	ldr	r3, [r3]
3000cf0c:	e50b302c 	str	r3, [fp, #-44]	; 0xffffffd4
3000cf10:	e51b202c 	ldr	r2, [fp, #-44]	; 0xffffffd4
3000cf14:	e3a03fff 	mov	r3, #1020	; 0x3fc
3000cf18:	e2833003 	add	r3, r3, #3
3000cf1c:	e1520003 	cmp	r2, r3
3000cf20:	8a000001 	bhi	3000cf2c <vsnprintf+0x600>
3000cf24:	e59f3580 	ldr	r3, [pc, #1408]	; 3000d4ac <vsnprintf+0xb80>
3000cf28:	e50b302c 	str	r3, [fp, #-44]	; 0xffffffd4
3000cf2c:	e51b3020 	ldr	r3, [fp, #-32]	; 0xffffffe0
3000cf30:	e51b002c 	ldr	r0, [fp, #-44]	; 0xffffffd4
3000cf34:	e1a01003 	mov	r1, r3
3000cf38:	ebfff949 	bl	3000b464 <strnlen>
3000cf3c:	e1a03000 	mov	r3, r0
3000cf40:	e50b3050 	str	r3, [fp, #-80]	; 0xffffffb0
3000cf44:	e51b3028 	ldr	r3, [fp, #-40]	; 0xffffffd8
3000cf48:	e2033010 	and	r3, r3, #16
3000cf4c:	e3530000 	cmp	r3, #0
3000cf50:	1a000015 	bne	3000cfac <vsnprintf+0x680>
3000cf54:	ea000009 	b	3000cf80 <vsnprintf+0x654>
3000cf58:	e51b2038 	ldr	r2, [fp, #-56]	; 0xffffffc8
3000cf5c:	e51b3034 	ldr	r3, [fp, #-52]	; 0xffffffcc
3000cf60:	e1520003 	cmp	r2, r3
3000cf64:	8a000002 	bhi	3000cf74 <vsnprintf+0x648>
3000cf68:	e51b3038 	ldr	r3, [fp, #-56]	; 0xffffffc8
3000cf6c:	e3a02020 	mov	r2, #32
3000cf70:	e5c32000 	strb	r2, [r3]
3000cf74:	e51b3038 	ldr	r3, [fp, #-56]	; 0xffffffc8
3000cf78:	e2833001 	add	r3, r3, #1
3000cf7c:	e50b3038 	str	r3, [fp, #-56]	; 0xffffffc8
3000cf80:	e51b2024 	ldr	r2, [fp, #-36]	; 0xffffffdc
3000cf84:	e51b3050 	ldr	r3, [fp, #-80]	; 0xffffffb0
3000cf88:	e1520003 	cmp	r2, r3
3000cf8c:	d3a03000 	movle	r3, #0
3000cf90:	c3a03001 	movgt	r3, #1
3000cf94:	e20320ff 	and	r2, r3, #255	; 0xff
3000cf98:	e51b3024 	ldr	r3, [fp, #-36]	; 0xffffffdc
3000cf9c:	e2433001 	sub	r3, r3, #1
3000cfa0:	e50b3024 	str	r3, [fp, #-36]	; 0xffffffdc
3000cfa4:	e3520000 	cmp	r2, #0
3000cfa8:	1affffea 	bne	3000cf58 <vsnprintf+0x62c>
3000cfac:	e3a03000 	mov	r3, #0
3000cfb0:	e50b3040 	str	r3, [fp, #-64]	; 0xffffffc0
3000cfb4:	ea000010 	b	3000cffc <vsnprintf+0x6d0>
3000cfb8:	e51b2038 	ldr	r2, [fp, #-56]	; 0xffffffc8
3000cfbc:	e51b3034 	ldr	r3, [fp, #-52]	; 0xffffffcc
3000cfc0:	e1520003 	cmp	r2, r3
3000cfc4:	8a000003 	bhi	3000cfd8 <vsnprintf+0x6ac>
3000cfc8:	e51b302c 	ldr	r3, [fp, #-44]	; 0xffffffd4
3000cfcc:	e5d33000 	ldrb	r3, [r3]
3000cfd0:	e51b2038 	ldr	r2, [fp, #-56]	; 0xffffffc8
3000cfd4:	e5c23000 	strb	r3, [r2]
3000cfd8:	e51b3038 	ldr	r3, [fp, #-56]	; 0xffffffc8
3000cfdc:	e2833001 	add	r3, r3, #1
3000cfe0:	e50b3038 	str	r3, [fp, #-56]	; 0xffffffc8
3000cfe4:	e51b302c 	ldr	r3, [fp, #-44]	; 0xffffffd4
3000cfe8:	e2833001 	add	r3, r3, #1
3000cfec:	e50b302c 	str	r3, [fp, #-44]	; 0xffffffd4
3000cff0:	e51b3040 	ldr	r3, [fp, #-64]	; 0xffffffc0
3000cff4:	e2833001 	add	r3, r3, #1
3000cff8:	e50b3040 	str	r3, [fp, #-64]	; 0xffffffc0
3000cffc:	e51b2040 	ldr	r2, [fp, #-64]	; 0xffffffc0
3000d000:	e51b3050 	ldr	r3, [fp, #-80]	; 0xffffffb0
3000d004:	e1520003 	cmp	r2, r3
3000d008:	baffffea 	blt	3000cfb8 <vsnprintf+0x68c>
3000d00c:	ea000009 	b	3000d038 <vsnprintf+0x70c>
3000d010:	e51b2038 	ldr	r2, [fp, #-56]	; 0xffffffc8
3000d014:	e51b3034 	ldr	r3, [fp, #-52]	; 0xffffffcc
3000d018:	e1520003 	cmp	r2, r3
3000d01c:	8a000002 	bhi	3000d02c <vsnprintf+0x700>
3000d020:	e51b3038 	ldr	r3, [fp, #-56]	; 0xffffffc8
3000d024:	e3a02020 	mov	r2, #32
3000d028:	e5c32000 	strb	r2, [r3]
3000d02c:	e51b3038 	ldr	r3, [fp, #-56]	; 0xffffffc8
3000d030:	e2833001 	add	r3, r3, #1
3000d034:	e50b3038 	str	r3, [fp, #-56]	; 0xffffffc8
3000d038:	e51b2024 	ldr	r2, [fp, #-36]	; 0xffffffdc
3000d03c:	e51b3050 	ldr	r3, [fp, #-80]	; 0xffffffb0
3000d040:	e1520003 	cmp	r2, r3
3000d044:	d3a03000 	movle	r3, #0
3000d048:	c3a03001 	movgt	r3, #1
3000d04c:	e20320ff 	and	r2, r3, #255	; 0xff
3000d050:	e51b3024 	ldr	r3, [fp, #-36]	; 0xffffffdc
3000d054:	e2433001 	sub	r3, r3, #1
3000d058:	e50b3024 	str	r3, [fp, #-36]	; 0xffffffdc
3000d05c:	e3520000 	cmp	r2, #0
3000d060:	1affffea 	bne	3000d010 <vsnprintf+0x6e4>
3000d064:	ea0000f0 	b	3000d42c <vsnprintf+0xb00>
3000d068:	e51b3024 	ldr	r3, [fp, #-36]	; 0xffffffdc
3000d06c:	e3730001 	cmn	r3, #1
3000d070:	1a000004 	bne	3000d088 <vsnprintf+0x75c>
3000d074:	e3a03008 	mov	r3, #8
3000d078:	e50b3024 	str	r3, [fp, #-36]	; 0xffffffdc
3000d07c:	e51b3028 	ldr	r3, [fp, #-40]	; 0xffffffd8
3000d080:	e3833001 	orr	r3, r3, #1
3000d084:	e50b3028 	str	r3, [fp, #-40]	; 0xffffffd8
3000d088:	e51b3064 	ldr	r3, [fp, #-100]	; 0xffffff9c
3000d08c:	e2833004 	add	r3, r3, #4
3000d090:	e50b3064 	str	r3, [fp, #-100]	; 0xffffff9c
3000d094:	e51b3064 	ldr	r3, [fp, #-100]	; 0xffffff9c
3000d098:	e2433004 	sub	r3, r3, #4
3000d09c:	e5933000 	ldr	r3, [r3]
3000d0a0:	e1a04003 	mov	r4, r3
3000d0a4:	e3a05000 	mov	r5, #0
3000d0a8:	e3a03010 	mov	r3, #16
3000d0ac:	e58d3000 	str	r3, [sp]
3000d0b0:	e51b3024 	ldr	r3, [fp, #-36]	; 0xffffffdc
3000d0b4:	e58d3004 	str	r3, [sp, #4]
3000d0b8:	e51b3020 	ldr	r3, [fp, #-32]	; 0xffffffe0
3000d0bc:	e58d3008 	str	r3, [sp, #8]
3000d0c0:	e51b3028 	ldr	r3, [fp, #-40]	; 0xffffffd8
3000d0c4:	e58d300c 	str	r3, [sp, #12]
3000d0c8:	e51b0038 	ldr	r0, [fp, #-56]	; 0xffffffc8
3000d0cc:	e51b1034 	ldr	r1, [fp, #-52]	; 0xffffffcc
3000d0d0:	e1a02004 	mov	r2, r4
3000d0d4:	e1a03005 	mov	r3, r5
3000d0d8:	ebfffcb3 	bl	3000c3ac <number>
3000d0dc:	e1a03000 	mov	r3, r0
3000d0e0:	e50b3038 	str	r3, [fp, #-56]	; 0xffffffc8
3000d0e4:	ea0000d0 	b	3000d42c <vsnprintf+0xb00>
3000d0e8:	e51b301c 	ldr	r3, [fp, #-28]	; 0xffffffe4
3000d0ec:	e353006c 	cmp	r3, #108	; 0x6c
3000d0f0:	1a00000c 	bne	3000d128 <vsnprintf+0x7fc>
3000d0f4:	e51b3064 	ldr	r3, [fp, #-100]	; 0xffffff9c
3000d0f8:	e2833004 	add	r3, r3, #4
3000d0fc:	e50b3064 	str	r3, [fp, #-100]	; 0xffffff9c
3000d100:	e51b3064 	ldr	r3, [fp, #-100]	; 0xffffff9c
3000d104:	e2433004 	sub	r3, r3, #4
3000d108:	e5933000 	ldr	r3, [r3]
3000d10c:	e50b3018 	str	r3, [fp, #-24]	; 0xffffffe8
3000d110:	e51b2038 	ldr	r2, [fp, #-56]	; 0xffffffc8
3000d114:	e51b3058 	ldr	r3, [fp, #-88]	; 0xffffffa8
3000d118:	e0632002 	rsb	r2, r3, r2
3000d11c:	e51b3018 	ldr	r3, [fp, #-24]	; 0xffffffe8
3000d120:	e5832000 	str	r2, [r3]
3000d124:	ea0000c0 	b	3000d42c <vsnprintf+0xb00>
3000d128:	e51b301c 	ldr	r3, [fp, #-28]	; 0xffffffe4
3000d12c:	e353005a 	cmp	r3, #90	; 0x5a
3000d130:	0a000002 	beq	3000d140 <vsnprintf+0x814>
3000d134:	e51b301c 	ldr	r3, [fp, #-28]	; 0xffffffe4
3000d138:	e353007a 	cmp	r3, #122	; 0x7a
3000d13c:	1a00000d 	bne	3000d178 <vsnprintf+0x84c>
3000d140:	e51b3064 	ldr	r3, [fp, #-100]	; 0xffffff9c
3000d144:	e2833004 	add	r3, r3, #4
3000d148:	e50b3064 	str	r3, [fp, #-100]	; 0xffffff9c
3000d14c:	e51b3064 	ldr	r3, [fp, #-100]	; 0xffffff9c
3000d150:	e2433004 	sub	r3, r3, #4
3000d154:	e5933000 	ldr	r3, [r3]
3000d158:	e50b3014 	str	r3, [fp, #-20]	; 0xffffffec
3000d15c:	e51b2038 	ldr	r2, [fp, #-56]	; 0xffffffc8
3000d160:	e51b3058 	ldr	r3, [fp, #-88]	; 0xffffffa8
3000d164:	e0633002 	rsb	r3, r3, r2
3000d168:	e1a02003 	mov	r2, r3
3000d16c:	e51b3014 	ldr	r3, [fp, #-20]	; 0xffffffec
3000d170:	e5832000 	str	r2, [r3]
3000d174:	ea0000ac 	b	3000d42c <vsnprintf+0xb00>
3000d178:	e51b3064 	ldr	r3, [fp, #-100]	; 0xffffff9c
3000d17c:	e2833004 	add	r3, r3, #4
3000d180:	e50b3064 	str	r3, [fp, #-100]	; 0xffffff9c
3000d184:	e51b3064 	ldr	r3, [fp, #-100]	; 0xffffff9c
3000d188:	e2433004 	sub	r3, r3, #4
3000d18c:	e5933000 	ldr	r3, [r3]
3000d190:	e50b3010 	str	r3, [fp, #-16]
3000d194:	e51b2038 	ldr	r2, [fp, #-56]	; 0xffffffc8
3000d198:	e51b3058 	ldr	r3, [fp, #-88]	; 0xffffffa8
3000d19c:	e0632002 	rsb	r2, r3, r2
3000d1a0:	e51b3010 	ldr	r3, [fp, #-16]
3000d1a4:	e5832000 	str	r2, [r3]
3000d1a8:	ea00009f 	b	3000d42c <vsnprintf+0xb00>
3000d1ac:	e51b2038 	ldr	r2, [fp, #-56]	; 0xffffffc8
3000d1b0:	e51b3034 	ldr	r3, [fp, #-52]	; 0xffffffcc
3000d1b4:	e1520003 	cmp	r2, r3
3000d1b8:	8a000002 	bhi	3000d1c8 <vsnprintf+0x89c>
3000d1bc:	e51b3038 	ldr	r3, [fp, #-56]	; 0xffffffc8
3000d1c0:	e3a02025 	mov	r2, #37	; 0x25
3000d1c4:	e5c32000 	strb	r2, [r3]
3000d1c8:	e51b3038 	ldr	r3, [fp, #-56]	; 0xffffffc8
3000d1cc:	e2833001 	add	r3, r3, #1
3000d1d0:	e50b3038 	str	r3, [fp, #-56]	; 0xffffffc8
3000d1d4:	ea000094 	b	3000d42c <vsnprintf+0xb00>
3000d1d8:	e3a03008 	mov	r3, #8
3000d1dc:	e50b303c 	str	r3, [fp, #-60]	; 0xffffffc4
3000d1e0:	ea000027 	b	3000d284 <vsnprintf+0x958>
3000d1e4:	e51b3028 	ldr	r3, [fp, #-40]	; 0xffffffd8
3000d1e8:	e3833040 	orr	r3, r3, #64	; 0x40
3000d1ec:	e50b3028 	str	r3, [fp, #-40]	; 0xffffffd8
3000d1f0:	e3a03010 	mov	r3, #16
3000d1f4:	e50b303c 	str	r3, [fp, #-60]	; 0xffffffc4
3000d1f8:	ea000021 	b	3000d284 <vsnprintf+0x958>
3000d1fc:	e51b3028 	ldr	r3, [fp, #-40]	; 0xffffffd8
3000d200:	e3833002 	orr	r3, r3, #2
3000d204:	e50b3028 	str	r3, [fp, #-40]	; 0xffffffd8
3000d208:	ea00001d 	b	3000d284 <vsnprintf+0x958>
3000d20c:	e51b2038 	ldr	r2, [fp, #-56]	; 0xffffffc8
3000d210:	e51b3034 	ldr	r3, [fp, #-52]	; 0xffffffcc
3000d214:	e1520003 	cmp	r2, r3
3000d218:	8a000002 	bhi	3000d228 <vsnprintf+0x8fc>
3000d21c:	e51b3038 	ldr	r3, [fp, #-56]	; 0xffffffc8
3000d220:	e3a02025 	mov	r2, #37	; 0x25
3000d224:	e5c32000 	strb	r2, [r3]
3000d228:	e51b3038 	ldr	r3, [fp, #-56]	; 0xffffffc8
3000d22c:	e2833001 	add	r3, r3, #1
3000d230:	e50b3038 	str	r3, [fp, #-56]	; 0xffffffc8
3000d234:	e51b3060 	ldr	r3, [fp, #-96]	; 0xffffffa0
3000d238:	e5d33000 	ldrb	r3, [r3]
3000d23c:	e3530000 	cmp	r3, #0
3000d240:	0a00000b 	beq	3000d274 <vsnprintf+0x948>
3000d244:	e51b2038 	ldr	r2, [fp, #-56]	; 0xffffffc8
3000d248:	e51b3034 	ldr	r3, [fp, #-52]	; 0xffffffcc
3000d24c:	e1520003 	cmp	r2, r3
3000d250:	8a000003 	bhi	3000d264 <vsnprintf+0x938>
3000d254:	e51b3060 	ldr	r3, [fp, #-96]	; 0xffffffa0
3000d258:	e5d33000 	ldrb	r3, [r3]
3000d25c:	e51b2038 	ldr	r2, [fp, #-56]	; 0xffffffc8
3000d260:	e5c23000 	strb	r3, [r2]
3000d264:	e51b3038 	ldr	r3, [fp, #-56]	; 0xffffffc8
3000d268:	e2833001 	add	r3, r3, #1
3000d26c:	e50b3038 	str	r3, [fp, #-56]	; 0xffffffc8
3000d270:	ea00006d 	b	3000d42c <vsnprintf+0xb00>
3000d274:	e51b3060 	ldr	r3, [fp, #-96]	; 0xffffffa0
3000d278:	e2433001 	sub	r3, r3, #1
3000d27c:	e50b3060 	str	r3, [fp, #-96]	; 0xffffffa0
3000d280:	ea000069 	b	3000d42c <vsnprintf+0xb00>
3000d284:	e51b301c 	ldr	r3, [fp, #-28]	; 0xffffffe4
3000d288:	e353004c 	cmp	r3, #76	; 0x4c
3000d28c:	1a000008 	bne	3000d2b4 <vsnprintf+0x988>
3000d290:	e51b3064 	ldr	r3, [fp, #-100]	; 0xffffff9c
3000d294:	e2833008 	add	r3, r3, #8
3000d298:	e50b3064 	str	r3, [fp, #-100]	; 0xffffff9c
3000d29c:	e51b3064 	ldr	r3, [fp, #-100]	; 0xffffff9c
3000d2a0:	e2433008 	sub	r3, r3, #8
3000d2a4:	e8930018 	ldm	r3, {r3, r4}
3000d2a8:	e50b304c 	str	r3, [fp, #-76]	; 0xffffffb4
3000d2ac:	e50b4048 	str	r4, [fp, #-72]	; 0xffffffb8
3000d2b0:	ea00004e 	b	3000d3f0 <vsnprintf+0xac4>
3000d2b4:	e51b301c 	ldr	r3, [fp, #-28]	; 0xffffffe4
3000d2b8:	e353006c 	cmp	r3, #108	; 0x6c
3000d2bc:	1a000011 	bne	3000d308 <vsnprintf+0x9dc>
3000d2c0:	e51b3064 	ldr	r3, [fp, #-100]	; 0xffffff9c
3000d2c4:	e2833004 	add	r3, r3, #4
3000d2c8:	e50b3064 	str	r3, [fp, #-100]	; 0xffffff9c
3000d2cc:	e51b3064 	ldr	r3, [fp, #-100]	; 0xffffff9c
3000d2d0:	e2433004 	sub	r3, r3, #4
3000d2d4:	e5933000 	ldr	r3, [r3]
3000d2d8:	e3a04000 	mov	r4, #0
3000d2dc:	e50b304c 	str	r3, [fp, #-76]	; 0xffffffb4
3000d2e0:	e50b4048 	str	r4, [fp, #-72]	; 0xffffffb8
3000d2e4:	e51b3028 	ldr	r3, [fp, #-40]	; 0xffffffd8
3000d2e8:	e2033002 	and	r3, r3, #2
3000d2ec:	e3530000 	cmp	r3, #0
3000d2f0:	0a00003e 	beq	3000d3f0 <vsnprintf+0xac4>
3000d2f4:	e51b304c 	ldr	r3, [fp, #-76]	; 0xffffffb4
3000d2f8:	e1a04fc3 	asr	r4, r3, #31
3000d2fc:	e50b304c 	str	r3, [fp, #-76]	; 0xffffffb4
3000d300:	e50b4048 	str	r4, [fp, #-72]	; 0xffffffb8
3000d304:	ea000039 	b	3000d3f0 <vsnprintf+0xac4>
3000d308:	e51b301c 	ldr	r3, [fp, #-28]	; 0xffffffe4
3000d30c:	e353005a 	cmp	r3, #90	; 0x5a
3000d310:	0a000002 	beq	3000d320 <vsnprintf+0x9f4>
3000d314:	e51b301c 	ldr	r3, [fp, #-28]	; 0xffffffe4
3000d318:	e353007a 	cmp	r3, #122	; 0x7a
3000d31c:	1a000009 	bne	3000d348 <vsnprintf+0xa1c>
3000d320:	e51b3064 	ldr	r3, [fp, #-100]	; 0xffffff9c
3000d324:	e2833004 	add	r3, r3, #4
3000d328:	e50b3064 	str	r3, [fp, #-100]	; 0xffffff9c
3000d32c:	e51b3064 	ldr	r3, [fp, #-100]	; 0xffffff9c
3000d330:	e2433004 	sub	r3, r3, #4
3000d334:	e5933000 	ldr	r3, [r3]
3000d338:	e3a04000 	mov	r4, #0
3000d33c:	e50b304c 	str	r3, [fp, #-76]	; 0xffffffb4
3000d340:	e50b4048 	str	r4, [fp, #-72]	; 0xffffffb8
3000d344:	ea000029 	b	3000d3f0 <vsnprintf+0xac4>
3000d348:	e51b301c 	ldr	r3, [fp, #-28]	; 0xffffffe4
3000d34c:	e3530068 	cmp	r3, #104	; 0x68
3000d350:	1a000015 	bne	3000d3ac <vsnprintf+0xa80>
3000d354:	e51b3064 	ldr	r3, [fp, #-100]	; 0xffffff9c
3000d358:	e2833004 	add	r3, r3, #4
3000d35c:	e50b3064 	str	r3, [fp, #-100]	; 0xffffff9c
3000d360:	e51b3064 	ldr	r3, [fp, #-100]	; 0xffffff9c
3000d364:	e2433004 	sub	r3, r3, #4
3000d368:	e5933000 	ldr	r3, [r3]
3000d36c:	e1a03803 	lsl	r3, r3, #16
3000d370:	e1a03823 	lsr	r3, r3, #16
3000d374:	e3a04000 	mov	r4, #0
3000d378:	e50b304c 	str	r3, [fp, #-76]	; 0xffffffb4
3000d37c:	e50b4048 	str	r4, [fp, #-72]	; 0xffffffb8
3000d380:	e51b3028 	ldr	r3, [fp, #-40]	; 0xffffffd8
3000d384:	e2033002 	and	r3, r3, #2
3000d388:	e3530000 	cmp	r3, #0
3000d38c:	0a000017 	beq	3000d3f0 <vsnprintf+0xac4>
3000d390:	e15b34bc 	ldrh	r3, [fp, #-76]	; 0xffffffb4
3000d394:	e1a03803 	lsl	r3, r3, #16
3000d398:	e1a03843 	asr	r3, r3, #16
3000d39c:	e1a04fc3 	asr	r4, r3, #31
3000d3a0:	e50b304c 	str	r3, [fp, #-76]	; 0xffffffb4
3000d3a4:	e50b4048 	str	r4, [fp, #-72]	; 0xffffffb8
3000d3a8:	ea000010 	b	3000d3f0 <vsnprintf+0xac4>
3000d3ac:	e51b3064 	ldr	r3, [fp, #-100]	; 0xffffff9c
3000d3b0:	e2833004 	add	r3, r3, #4
3000d3b4:	e50b3064 	str	r3, [fp, #-100]	; 0xffffff9c
3000d3b8:	e51b3064 	ldr	r3, [fp, #-100]	; 0xffffff9c
3000d3bc:	e2433004 	sub	r3, r3, #4
3000d3c0:	e5933000 	ldr	r3, [r3]
3000d3c4:	e3a04000 	mov	r4, #0
3000d3c8:	e50b304c 	str	r3, [fp, #-76]	; 0xffffffb4
3000d3cc:	e50b4048 	str	r4, [fp, #-72]	; 0xffffffb8
3000d3d0:	e51b3028 	ldr	r3, [fp, #-40]	; 0xffffffd8
3000d3d4:	e2033002 	and	r3, r3, #2
3000d3d8:	e3530000 	cmp	r3, #0
3000d3dc:	0a000003 	beq	3000d3f0 <vsnprintf+0xac4>
3000d3e0:	e51b304c 	ldr	r3, [fp, #-76]	; 0xffffffb4
3000d3e4:	e1a04fc3 	asr	r4, r3, #31
3000d3e8:	e50b304c 	str	r3, [fp, #-76]	; 0xffffffb4
3000d3ec:	e50b4048 	str	r4, [fp, #-72]	; 0xffffffb8
3000d3f0:	e51b303c 	ldr	r3, [fp, #-60]	; 0xffffffc4
3000d3f4:	e58d3000 	str	r3, [sp]
3000d3f8:	e51b3024 	ldr	r3, [fp, #-36]	; 0xffffffdc
3000d3fc:	e58d3004 	str	r3, [sp, #4]
3000d400:	e51b3020 	ldr	r3, [fp, #-32]	; 0xffffffe0
3000d404:	e58d3008 	str	r3, [sp, #8]
3000d408:	e51b3028 	ldr	r3, [fp, #-40]	; 0xffffffd8
3000d40c:	e58d300c 	str	r3, [sp, #12]
3000d410:	e51b0038 	ldr	r0, [fp, #-56]	; 0xffffffc8
3000d414:	e51b1034 	ldr	r1, [fp, #-52]	; 0xffffffcc
3000d418:	e24b304c 	sub	r3, fp, #76	; 0x4c
3000d41c:	e893000c 	ldm	r3, {r2, r3}
3000d420:	ebfffbe1 	bl	3000c3ac <number>
3000d424:	e1a03000 	mov	r3, r0
3000d428:	e50b3038 	str	r3, [fp, #-56]	; 0xffffffc8
3000d42c:	e51b3060 	ldr	r3, [fp, #-96]	; 0xffffffa0
3000d430:	e2833001 	add	r3, r3, #1
3000d434:	e50b3060 	str	r3, [fp, #-96]	; 0xffffffa0
3000d438:	e51b3060 	ldr	r3, [fp, #-96]	; 0xffffffa0
3000d43c:	e5d33000 	ldrb	r3, [r3]
3000d440:	e3530000 	cmp	r3, #0
3000d444:	1afffd5d 	bne	3000c9c0 <vsnprintf+0x94>
3000d448:	e51b2038 	ldr	r2, [fp, #-56]	; 0xffffffc8
3000d44c:	e51b3034 	ldr	r3, [fp, #-52]	; 0xffffffcc
3000d450:	e1520003 	cmp	r2, r3
3000d454:	8a000003 	bhi	3000d468 <vsnprintf+0xb3c>
3000d458:	e51b3038 	ldr	r3, [fp, #-56]	; 0xffffffc8
3000d45c:	e3a02000 	mov	r2, #0
3000d460:	e5c32000 	strb	r2, [r3]
3000d464:	ea000005 	b	3000d480 <vsnprintf+0xb54>
3000d468:	e51b305c 	ldr	r3, [fp, #-92]	; 0xffffffa4
3000d46c:	e3530000 	cmp	r3, #0
3000d470:	0a000002 	beq	3000d480 <vsnprintf+0xb54>
3000d474:	e51b3034 	ldr	r3, [fp, #-52]	; 0xffffffcc
3000d478:	e3a02000 	mov	r2, #0
3000d47c:	e5c32000 	strb	r2, [r3]
3000d480:	e51b2038 	ldr	r2, [fp, #-56]	; 0xffffffc8
3000d484:	e51b3058 	ldr	r3, [fp, #-88]	; 0xffffffa8
3000d488:	e0632002 	rsb	r2, r3, r2
3000d48c:	e50b2068 	str	r2, [fp, #-104]	; 0xffffff98
3000d490:	e51b3068 	ldr	r3, [fp, #-104]	; 0xffffff98
3000d494:	e1a00003 	mov	r0, r3
3000d498:	e24bd00c 	sub	sp, fp, #12
3000d49c:	e8bd4830 	pop	{r4, r5, fp, lr}
3000d4a0:	e12fff1e 	bx	lr
3000d4a4:	300103a4 	andcc	r0, r1, r4, lsr #7
3000d4a8:	300102a4 	andcc	r0, r1, r4, lsr #5
3000d4ac:	3001022c 	andcc	r0, r1, ip, lsr #4

3000d4b0 <vscnprintf>:
3000d4b0:	e92d4800 	push	{fp, lr}
3000d4b4:	e28db004 	add	fp, sp, #4
3000d4b8:	e24dd020 	sub	sp, sp, #32
3000d4bc:	e50b0010 	str	r0, [fp, #-16]
3000d4c0:	e50b1014 	str	r1, [fp, #-20]	; 0xffffffec
3000d4c4:	e50b2018 	str	r2, [fp, #-24]	; 0xffffffe8
3000d4c8:	e50b301c 	str	r3, [fp, #-28]	; 0xffffffe4
3000d4cc:	e51b0010 	ldr	r0, [fp, #-16]
3000d4d0:	e51b1014 	ldr	r1, [fp, #-20]	; 0xffffffec
3000d4d4:	e51b2018 	ldr	r2, [fp, #-24]	; 0xffffffe8
3000d4d8:	e51b301c 	ldr	r3, [fp, #-28]	; 0xffffffe4
3000d4dc:	ebfffd12 	bl	3000c92c <vsnprintf>
3000d4e0:	e1a03000 	mov	r3, r0
3000d4e4:	e50b3008 	str	r3, [fp, #-8]
3000d4e8:	e51b2008 	ldr	r2, [fp, #-8]
3000d4ec:	e51b3014 	ldr	r3, [fp, #-20]	; 0xffffffec
3000d4f0:	e1520003 	cmp	r2, r3
3000d4f4:	3a000003 	bcc	3000d508 <vscnprintf+0x58>
3000d4f8:	e51b3014 	ldr	r3, [fp, #-20]	; 0xffffffec
3000d4fc:	e2433001 	sub	r3, r3, #1
3000d500:	e50b3020 	str	r3, [fp, #-32]	; 0xffffffe0
3000d504:	ea000001 	b	3000d510 <vscnprintf+0x60>
3000d508:	e51b3008 	ldr	r3, [fp, #-8]
3000d50c:	e50b3020 	str	r3, [fp, #-32]	; 0xffffffe0
3000d510:	e51b3020 	ldr	r3, [fp, #-32]	; 0xffffffe0
3000d514:	e1a00003 	mov	r0, r3
3000d518:	e24bd004 	sub	sp, fp, #4
3000d51c:	e8bd4800 	pop	{fp, lr}
3000d520:	e12fff1e 	bx	lr

3000d524 <snprintf>:
3000d524:	e92d000c 	push	{r2, r3}
3000d528:	e92d4800 	push	{fp, lr}
3000d52c:	e28db004 	add	fp, sp, #4
3000d530:	e24dd010 	sub	sp, sp, #16
3000d534:	e50b0010 	str	r0, [fp, #-16]
3000d538:	e50b1014 	str	r1, [fp, #-20]	; 0xffffffec
3000d53c:	e28b3004 	add	r3, fp, #4
3000d540:	e2833004 	add	r3, r3, #4
3000d544:	e50b300c 	str	r3, [fp, #-12]
3000d548:	e59b3004 	ldr	r3, [fp, #4]
3000d54c:	e51b0010 	ldr	r0, [fp, #-16]
3000d550:	e51b1014 	ldr	r1, [fp, #-20]	; 0xffffffec
3000d554:	e1a02003 	mov	r2, r3
3000d558:	e51b300c 	ldr	r3, [fp, #-12]
3000d55c:	ebfffcf2 	bl	3000c92c <vsnprintf>
3000d560:	e1a03000 	mov	r3, r0
3000d564:	e50b3008 	str	r3, [fp, #-8]
3000d568:	e51b3008 	ldr	r3, [fp, #-8]
3000d56c:	e1a00003 	mov	r0, r3
3000d570:	e24bd004 	sub	sp, fp, #4
3000d574:	e8bd4800 	pop	{fp, lr}
3000d578:	e28dd008 	add	sp, sp, #8
3000d57c:	e12fff1e 	bx	lr

3000d580 <scnprintf>:
3000d580:	e92d000c 	push	{r2, r3}
3000d584:	e92d4800 	push	{fp, lr}
3000d588:	e28db004 	add	fp, sp, #4
3000d58c:	e24dd018 	sub	sp, sp, #24
3000d590:	e50b0010 	str	r0, [fp, #-16]
3000d594:	e50b1014 	str	r1, [fp, #-20]	; 0xffffffec
3000d598:	e28b3004 	add	r3, fp, #4
3000d59c:	e2833004 	add	r3, r3, #4
3000d5a0:	e50b300c 	str	r3, [fp, #-12]
3000d5a4:	e59b3004 	ldr	r3, [fp, #4]
3000d5a8:	e51b0010 	ldr	r0, [fp, #-16]
3000d5ac:	e51b1014 	ldr	r1, [fp, #-20]	; 0xffffffec
3000d5b0:	e1a02003 	mov	r2, r3
3000d5b4:	e51b300c 	ldr	r3, [fp, #-12]
3000d5b8:	ebfffcdb 	bl	3000c92c <vsnprintf>
3000d5bc:	e1a03000 	mov	r3, r0
3000d5c0:	e50b3008 	str	r3, [fp, #-8]
3000d5c4:	e51b2008 	ldr	r2, [fp, #-8]
3000d5c8:	e51b3014 	ldr	r3, [fp, #-20]	; 0xffffffec
3000d5cc:	e1520003 	cmp	r2, r3
3000d5d0:	3a000003 	bcc	3000d5e4 <scnprintf+0x64>
3000d5d4:	e51b3014 	ldr	r3, [fp, #-20]	; 0xffffffec
3000d5d8:	e2433001 	sub	r3, r3, #1
3000d5dc:	e50b3018 	str	r3, [fp, #-24]	; 0xffffffe8
3000d5e0:	ea000001 	b	3000d5ec <scnprintf+0x6c>
3000d5e4:	e51b3008 	ldr	r3, [fp, #-8]
3000d5e8:	e50b3018 	str	r3, [fp, #-24]	; 0xffffffe8
3000d5ec:	e51b3018 	ldr	r3, [fp, #-24]	; 0xffffffe8
3000d5f0:	e1a00003 	mov	r0, r3
3000d5f4:	e24bd004 	sub	sp, fp, #4
3000d5f8:	e8bd4800 	pop	{fp, lr}
3000d5fc:	e28dd008 	add	sp, sp, #8
3000d600:	e12fff1e 	bx	lr

3000d604 <vsprintf>:
3000d604:	e92d4800 	push	{fp, lr}
3000d608:	e28db004 	add	fp, sp, #4
3000d60c:	e24dd010 	sub	sp, sp, #16
3000d610:	e50b0008 	str	r0, [fp, #-8]
3000d614:	e50b100c 	str	r1, [fp, #-12]
3000d618:	e50b2010 	str	r2, [fp, #-16]
3000d61c:	e51b0008 	ldr	r0, [fp, #-8]
3000d620:	e3e01102 	mvn	r1, #-2147483648	; 0x80000000
3000d624:	e51b200c 	ldr	r2, [fp, #-12]
3000d628:	e51b3010 	ldr	r3, [fp, #-16]
3000d62c:	ebfffcbe 	bl	3000c92c <vsnprintf>
3000d630:	e1a03000 	mov	r3, r0
3000d634:	e1a00003 	mov	r0, r3
3000d638:	e24bd004 	sub	sp, fp, #4
3000d63c:	e8bd4800 	pop	{fp, lr}
3000d640:	e12fff1e 	bx	lr

3000d644 <sprintf>:
3000d644:	e92d000e 	push	{r1, r2, r3}
3000d648:	e92d4800 	push	{fp, lr}
3000d64c:	e28db004 	add	fp, sp, #4
3000d650:	e24dd014 	sub	sp, sp, #20
3000d654:	e50b0014 	str	r0, [fp, #-20]	; 0xffffffec
3000d658:	e28b3004 	add	r3, fp, #4
3000d65c:	e2833004 	add	r3, r3, #4
3000d660:	e50b3010 	str	r3, [fp, #-16]
3000d664:	e59b3004 	ldr	r3, [fp, #4]
3000d668:	e51b0014 	ldr	r0, [fp, #-20]	; 0xffffffec
3000d66c:	e1a01003 	mov	r1, r3
3000d670:	e51b2010 	ldr	r2, [fp, #-16]
3000d674:	ebffffe2 	bl	3000d604 <vsprintf>
3000d678:	e1a03000 	mov	r3, r0
3000d67c:	e50b300c 	str	r3, [fp, #-12]
3000d680:	e51b300c 	ldr	r3, [fp, #-12]
3000d684:	e1a00003 	mov	r0, r3
3000d688:	e24bd004 	sub	sp, fp, #4
3000d68c:	e8bd4800 	pop	{fp, lr}
3000d690:	e28dd00c 	add	sp, sp, #12
3000d694:	e12fff1e 	bx	lr

3000d698 <vsscanf>:
3000d698:	e92d4810 	push	{r4, fp, lr}
3000d69c:	e28db008 	add	fp, sp, #8
3000d6a0:	e24dd06c 	sub	sp, sp, #108	; 0x6c
3000d6a4:	e50b0068 	str	r0, [fp, #-104]	; 0xffffff98
3000d6a8:	e50b106c 	str	r1, [fp, #-108]	; 0xffffff94
3000d6ac:	e50b2070 	str	r2, [fp, #-112]	; 0xffffff90
3000d6b0:	e51b3068 	ldr	r3, [fp, #-104]	; 0xffffff98
3000d6b4:	e50b3060 	str	r3, [fp, #-96]	; 0xffffffa0
3000d6b8:	e3a03000 	mov	r3, #0
3000d6bc:	e50b3058 	str	r3, [fp, #-88]	; 0xffffffa8
3000d6c0:	e3a03000 	mov	r3, #0
3000d6c4:	e50b3048 	str	r3, [fp, #-72]	; 0xffffffb8
3000d6c8:	ea0002e5 	b	3000e264 <vsscanf+0xbcc>
3000d6cc:	e51b306c 	ldr	r3, [fp, #-108]	; 0xffffff94
3000d6d0:	e5d33000 	ldrb	r3, [r3]
3000d6d4:	e1a02003 	mov	r2, r3
3000d6d8:	e59f3bc0 	ldr	r3, [pc, #3008]	; 3000e2a0 <vsscanf+0xc08>
3000d6dc:	e7d33002 	ldrb	r3, [r3, r2]
3000d6e0:	e2033020 	and	r3, r3, #32
3000d6e4:	e3530000 	cmp	r3, #0
3000d6e8:	0a000017 	beq	3000d74c <vsscanf+0xb4>
3000d6ec:	ea000002 	b	3000d6fc <vsscanf+0x64>
3000d6f0:	e51b306c 	ldr	r3, [fp, #-108]	; 0xffffff94
3000d6f4:	e2833001 	add	r3, r3, #1
3000d6f8:	e50b306c 	str	r3, [fp, #-108]	; 0xffffff94
3000d6fc:	e51b306c 	ldr	r3, [fp, #-108]	; 0xffffff94
3000d700:	e5d33000 	ldrb	r3, [r3]
3000d704:	e1a02003 	mov	r2, r3
3000d708:	e59f3b90 	ldr	r3, [pc, #2960]	; 3000e2a0 <vsscanf+0xc08>
3000d70c:	e7d33002 	ldrb	r3, [r3, r2]
3000d710:	e2033020 	and	r3, r3, #32
3000d714:	e3530000 	cmp	r3, #0
3000d718:	1afffff4 	bne	3000d6f0 <vsscanf+0x58>
3000d71c:	ea000002 	b	3000d72c <vsscanf+0x94>
3000d720:	e51b3060 	ldr	r3, [fp, #-96]	; 0xffffffa0
3000d724:	e2833001 	add	r3, r3, #1
3000d728:	e50b3060 	str	r3, [fp, #-96]	; 0xffffffa0
3000d72c:	e51b3060 	ldr	r3, [fp, #-96]	; 0xffffffa0
3000d730:	e5d33000 	ldrb	r3, [r3]
3000d734:	e1a02003 	mov	r2, r3
3000d738:	e59f3b60 	ldr	r3, [pc, #2912]	; 3000e2a0 <vsscanf+0xc08>
3000d73c:	e7d33002 	ldrb	r3, [r3, r2]
3000d740:	e2033020 	and	r3, r3, #32
3000d744:	e3530000 	cmp	r3, #0
3000d748:	1afffff4 	bne	3000d720 <vsscanf+0x88>
3000d74c:	e51b306c 	ldr	r3, [fp, #-108]	; 0xffffff94
3000d750:	e5d33000 	ldrb	r3, [r3]
3000d754:	e3530025 	cmp	r3, #37	; 0x25
3000d758:	0a000013 	beq	3000d7ac <vsscanf+0x114>
3000d75c:	e51b306c 	ldr	r3, [fp, #-108]	; 0xffffff94
3000d760:	e5d33000 	ldrb	r3, [r3]
3000d764:	e3530000 	cmp	r3, #0
3000d768:	0a00000f 	beq	3000d7ac <vsscanf+0x114>
3000d76c:	e51b106c 	ldr	r1, [fp, #-108]	; 0xffffff94
3000d770:	e5d12000 	ldrb	r2, [r1]
3000d774:	e51b3060 	ldr	r3, [fp, #-96]	; 0xffffffa0
3000d778:	e5d33000 	ldrb	r3, [r3]
3000d77c:	e1520003 	cmp	r2, r3
3000d780:	03a03000 	moveq	r3, #0
3000d784:	13a03001 	movne	r3, #1
3000d788:	e20320ff 	and	r2, r3, #255	; 0xff
3000d78c:	e2813001 	add	r3, r1, #1
3000d790:	e50b306c 	str	r3, [fp, #-108]	; 0xffffff94
3000d794:	e51b3060 	ldr	r3, [fp, #-96]	; 0xffffffa0
3000d798:	e2833001 	add	r3, r3, #1
3000d79c:	e50b3060 	str	r3, [fp, #-96]	; 0xffffffa0
3000d7a0:	e3520000 	cmp	r2, #0
3000d7a4:	1a0002b6 	bne	3000e284 <vsscanf+0xbec>
3000d7a8:	ea0002ad 	b	3000e264 <vsscanf+0xbcc>
3000d7ac:	e51b306c 	ldr	r3, [fp, #-108]	; 0xffffff94
3000d7b0:	e5d33000 	ldrb	r3, [r3]
3000d7b4:	e3530000 	cmp	r3, #0
3000d7b8:	0a0002b1 	beq	3000e284 <vsscanf+0xbec>
3000d7bc:	e51b306c 	ldr	r3, [fp, #-108]	; 0xffffff94
3000d7c0:	e2833001 	add	r3, r3, #1
3000d7c4:	e50b306c 	str	r3, [fp, #-108]	; 0xffffff94
3000d7c8:	e51b306c 	ldr	r3, [fp, #-108]	; 0xffffff94
3000d7cc:	e5d33000 	ldrb	r3, [r3]
3000d7d0:	e353002a 	cmp	r3, #42	; 0x2a
3000d7d4:	1a000020 	bne	3000d85c <vsscanf+0x1c4>
3000d7d8:	ea000002 	b	3000d7e8 <vsscanf+0x150>
3000d7dc:	e51b306c 	ldr	r3, [fp, #-108]	; 0xffffff94
3000d7e0:	e2833001 	add	r3, r3, #1
3000d7e4:	e50b306c 	str	r3, [fp, #-108]	; 0xffffff94
3000d7e8:	e51b306c 	ldr	r3, [fp, #-108]	; 0xffffff94
3000d7ec:	e5d33000 	ldrb	r3, [r3]
3000d7f0:	e1a02003 	mov	r2, r3
3000d7f4:	e59f3aa4 	ldr	r3, [pc, #2724]	; 3000e2a0 <vsscanf+0xc08>
3000d7f8:	e7d33002 	ldrb	r3, [r3, r2]
3000d7fc:	e2033020 	and	r3, r3, #32
3000d800:	e3530000 	cmp	r3, #0
3000d804:	1a000007 	bne	3000d828 <vsscanf+0x190>
3000d808:	e51b306c 	ldr	r3, [fp, #-108]	; 0xffffff94
3000d80c:	e5d33000 	ldrb	r3, [r3]
3000d810:	e3530000 	cmp	r3, #0
3000d814:	1afffff0 	bne	3000d7dc <vsscanf+0x144>
3000d818:	ea000002 	b	3000d828 <vsscanf+0x190>
3000d81c:	e51b3060 	ldr	r3, [fp, #-96]	; 0xffffffa0
3000d820:	e2833001 	add	r3, r3, #1
3000d824:	e50b3060 	str	r3, [fp, #-96]	; 0xffffffa0
3000d828:	e51b3060 	ldr	r3, [fp, #-96]	; 0xffffffa0
3000d82c:	e5d33000 	ldrb	r3, [r3]
3000d830:	e1a02003 	mov	r2, r3
3000d834:	e59f3a64 	ldr	r3, [pc, #2660]	; 3000e2a0 <vsscanf+0xc08>
3000d838:	e7d33002 	ldrb	r3, [r3, r2]
3000d83c:	e2033020 	and	r3, r3, #32
3000d840:	e3530000 	cmp	r3, #0
3000d844:	1a000286 	bne	3000e264 <vsscanf+0xbcc>
3000d848:	e51b3060 	ldr	r3, [fp, #-96]	; 0xffffffa0
3000d84c:	e5d33000 	ldrb	r3, [r3]
3000d850:	e3530000 	cmp	r3, #0
3000d854:	1afffff0 	bne	3000d81c <vsscanf+0x184>
3000d858:	ea000281 	b	3000e264 <vsscanf+0xbcc>
3000d85c:	e3e03000 	mvn	r3, #0
3000d860:	e50b304c 	str	r3, [fp, #-76]	; 0xffffffb4
3000d864:	e51b306c 	ldr	r3, [fp, #-108]	; 0xffffff94
3000d868:	e5d33000 	ldrb	r3, [r3]
3000d86c:	e1a02003 	mov	r2, r3
3000d870:	e59f3a28 	ldr	r3, [pc, #2600]	; 3000e2a0 <vsscanf+0xc08>
3000d874:	e7d33002 	ldrb	r3, [r3, r2]
3000d878:	e2033004 	and	r3, r3, #4
3000d87c:	e3530000 	cmp	r3, #0
3000d880:	0a000004 	beq	3000d898 <vsscanf+0x200>
3000d884:	e24b306c 	sub	r3, fp, #108	; 0x6c
3000d888:	e1a00003 	mov	r0, r3
3000d88c:	ebfffaa3 	bl	3000c320 <skip_atoi>
3000d890:	e1a03000 	mov	r3, r0
3000d894:	e50b304c 	str	r3, [fp, #-76]	; 0xffffffb4
3000d898:	e3e03000 	mvn	r3, #0
3000d89c:	e50b3054 	str	r3, [fp, #-84]	; 0xffffffac
3000d8a0:	e51b306c 	ldr	r3, [fp, #-108]	; 0xffffff94
3000d8a4:	e5d33000 	ldrb	r3, [r3]
3000d8a8:	e3530068 	cmp	r3, #104	; 0x68
3000d8ac:	0a00000f 	beq	3000d8f0 <vsscanf+0x258>
3000d8b0:	e51b306c 	ldr	r3, [fp, #-108]	; 0xffffff94
3000d8b4:	e5d33000 	ldrb	r3, [r3]
3000d8b8:	e353006c 	cmp	r3, #108	; 0x6c
3000d8bc:	0a00000b 	beq	3000d8f0 <vsscanf+0x258>
3000d8c0:	e51b306c 	ldr	r3, [fp, #-108]	; 0xffffff94
3000d8c4:	e5d33000 	ldrb	r3, [r3]
3000d8c8:	e353004c 	cmp	r3, #76	; 0x4c
3000d8cc:	0a000007 	beq	3000d8f0 <vsscanf+0x258>
3000d8d0:	e51b306c 	ldr	r3, [fp, #-108]	; 0xffffff94
3000d8d4:	e5d33000 	ldrb	r3, [r3]
3000d8d8:	e353005a 	cmp	r3, #90	; 0x5a
3000d8dc:	0a000003 	beq	3000d8f0 <vsscanf+0x258>
3000d8e0:	e51b306c 	ldr	r3, [fp, #-108]	; 0xffffff94
3000d8e4:	e5d33000 	ldrb	r3, [r3]
3000d8e8:	e353007a 	cmp	r3, #122	; 0x7a
3000d8ec:	1a00001e 	bne	3000d96c <vsscanf+0x2d4>
3000d8f0:	e51b206c 	ldr	r2, [fp, #-108]	; 0xffffff94
3000d8f4:	e5d23000 	ldrb	r3, [r2]
3000d8f8:	e50b3054 	str	r3, [fp, #-84]	; 0xffffffac
3000d8fc:	e2823001 	add	r3, r2, #1
3000d900:	e50b306c 	str	r3, [fp, #-108]	; 0xffffff94
3000d904:	e51b306c 	ldr	r3, [fp, #-108]	; 0xffffff94
3000d908:	e5d33000 	ldrb	r3, [r3]
3000d90c:	e1a02003 	mov	r2, r3
3000d910:	e51b3054 	ldr	r3, [fp, #-84]	; 0xffffffac
3000d914:	e1520003 	cmp	r2, r3
3000d918:	13a03000 	movne	r3, #0
3000d91c:	03a03001 	moveq	r3, #1
3000d920:	e3530000 	cmp	r3, #0
3000d924:	0a000010 	beq	3000d96c <vsscanf+0x2d4>
3000d928:	e51b3054 	ldr	r3, [fp, #-84]	; 0xffffffac
3000d92c:	e3530068 	cmp	r3, #104	; 0x68
3000d930:	1a000005 	bne	3000d94c <vsscanf+0x2b4>
3000d934:	e3a03048 	mov	r3, #72	; 0x48
3000d938:	e50b3054 	str	r3, [fp, #-84]	; 0xffffffac
3000d93c:	e51b306c 	ldr	r3, [fp, #-108]	; 0xffffff94
3000d940:	e2833001 	add	r3, r3, #1
3000d944:	e50b306c 	str	r3, [fp, #-108]	; 0xffffff94
3000d948:	ea000007 	b	3000d96c <vsscanf+0x2d4>
3000d94c:	e51b3054 	ldr	r3, [fp, #-84]	; 0xffffffac
3000d950:	e353006c 	cmp	r3, #108	; 0x6c
3000d954:	1a000004 	bne	3000d96c <vsscanf+0x2d4>
3000d958:	e3a0304c 	mov	r3, #76	; 0x4c
3000d95c:	e50b3054 	str	r3, [fp, #-84]	; 0xffffffac
3000d960:	e51b306c 	ldr	r3, [fp, #-108]	; 0xffffff94
3000d964:	e2833001 	add	r3, r3, #1
3000d968:	e50b306c 	str	r3, [fp, #-108]	; 0xffffff94
3000d96c:	e3a0300a 	mov	r3, #10
3000d970:	e50b3050 	str	r3, [fp, #-80]	; 0xffffffb0
3000d974:	e3a03000 	mov	r3, #0
3000d978:	e50b3048 	str	r3, [fp, #-72]	; 0xffffffb8
3000d97c:	e51b306c 	ldr	r3, [fp, #-108]	; 0xffffff94
3000d980:	e5d33000 	ldrb	r3, [r3]
3000d984:	e3530000 	cmp	r3, #0
3000d988:	0a00023d 	beq	3000e284 <vsscanf+0xbec>
3000d98c:	e51b3060 	ldr	r3, [fp, #-96]	; 0xffffffa0
3000d990:	e5d33000 	ldrb	r3, [r3]
3000d994:	e3530000 	cmp	r3, #0
3000d998:	0a000239 	beq	3000e284 <vsscanf+0xbec>
3000d99c:	e51b206c 	ldr	r2, [fp, #-108]	; 0xffffff94
3000d9a0:	e5d23000 	ldrb	r3, [r2]
3000d9a4:	e1a01003 	mov	r1, r3
3000d9a8:	e2823001 	add	r3, r2, #1
3000d9ac:	e50b306c 	str	r3, [fp, #-108]	; 0xffffff94
3000d9b0:	e2413025 	sub	r3, r1, #37	; 0x25
3000d9b4:	e3530053 	cmp	r3, #83	; 0x53
3000d9b8:	979ff103 	ldrls	pc, [pc, r3, lsl #2]
3000d9bc:	ea0000dd 	b	3000dd38 <vsscanf+0x6a0>
3000d9c0:	3000dd00 	andcc	sp, r0, r0, lsl #26
3000d9c4:	3000dd38 	andcc	sp, r0, r8, lsr sp
3000d9c8:	3000dd38 	andcc	sp, r0, r8, lsr sp
3000d9cc:	3000dd38 	andcc	sp, r0, r8, lsr sp
3000d9d0:	3000dd38 	andcc	sp, r0, r8, lsr sp
3000d9d4:	3000dd38 	andcc	sp, r0, r8, lsr sp
3000d9d8:	3000dd38 	andcc	sp, r0, r8, lsr sp
3000d9dc:	3000dd38 	andcc	sp, r0, r8, lsr sp
3000d9e0:	3000dd38 	andcc	sp, r0, r8, lsr sp
3000d9e4:	3000dd38 	andcc	sp, r0, r8, lsr sp
3000d9e8:	3000dd38 	andcc	sp, r0, r8, lsr sp
3000d9ec:	3000dd38 	andcc	sp, r0, r8, lsr sp
3000d9f0:	3000dd38 	andcc	sp, r0, r8, lsr sp
3000d9f4:	3000dd38 	andcc	sp, r0, r8, lsr sp
3000d9f8:	3000dd38 	andcc	sp, r0, r8, lsr sp
3000d9fc:	3000dd38 	andcc	sp, r0, r8, lsr sp
3000da00:	3000dd38 	andcc	sp, r0, r8, lsr sp
3000da04:	3000dd38 	andcc	sp, r0, r8, lsr sp
3000da08:	3000dd38 	andcc	sp, r0, r8, lsr sp
3000da0c:	3000dd38 	andcc	sp, r0, r8, lsr sp
3000da10:	3000dd38 	andcc	sp, r0, r8, lsr sp
3000da14:	3000dd38 	andcc	sp, r0, r8, lsr sp
3000da18:	3000dd38 	andcc	sp, r0, r8, lsr sp
3000da1c:	3000dd38 	andcc	sp, r0, r8, lsr sp
3000da20:	3000dd38 	andcc	sp, r0, r8, lsr sp
3000da24:	3000dd38 	andcc	sp, r0, r8, lsr sp
3000da28:	3000dd38 	andcc	sp, r0, r8, lsr sp
3000da2c:	3000dd38 	andcc	sp, r0, r8, lsr sp
3000da30:	3000dd38 	andcc	sp, r0, r8, lsr sp
3000da34:	3000dd38 	andcc	sp, r0, r8, lsr sp
3000da38:	3000dd38 	andcc	sp, r0, r8, lsr sp
3000da3c:	3000dd38 	andcc	sp, r0, r8, lsr sp
3000da40:	3000dd38 	andcc	sp, r0, r8, lsr sp
3000da44:	3000dd38 	andcc	sp, r0, r8, lsr sp
3000da48:	3000dd38 	andcc	sp, r0, r8, lsr sp
3000da4c:	3000dd38 	andcc	sp, r0, r8, lsr sp
3000da50:	3000dd38 	andcc	sp, r0, r8, lsr sp
3000da54:	3000dd38 	andcc	sp, r0, r8, lsr sp
3000da58:	3000dd38 	andcc	sp, r0, r8, lsr sp
3000da5c:	3000dd38 	andcc	sp, r0, r8, lsr sp
3000da60:	3000dd38 	andcc	sp, r0, r8, lsr sp
3000da64:	3000dd38 	andcc	sp, r0, r8, lsr sp
3000da68:	3000dd38 	andcc	sp, r0, r8, lsr sp
3000da6c:	3000dd38 	andcc	sp, r0, r8, lsr sp
3000da70:	3000dd38 	andcc	sp, r0, r8, lsr sp
3000da74:	3000dd38 	andcc	sp, r0, r8, lsr sp
3000da78:	3000dd38 	andcc	sp, r0, r8, lsr sp
3000da7c:	3000dd38 	andcc	sp, r0, r8, lsr sp
3000da80:	3000dd38 	andcc	sp, r0, r8, lsr sp
3000da84:	3000dd38 	andcc	sp, r0, r8, lsr sp
3000da88:	3000dd38 	andcc	sp, r0, r8, lsr sp
3000da8c:	3000dce0 	andcc	sp, r0, r0, ror #25
3000da90:	3000dd38 	andcc	sp, r0, r8, lsr sp
3000da94:	3000dd38 	andcc	sp, r0, r8, lsr sp
3000da98:	3000dd38 	andcc	sp, r0, r8, lsr sp
3000da9c:	3000dd38 	andcc	sp, r0, r8, lsr sp
3000daa0:	3000dd38 	andcc	sp, r0, r8, lsr sp
3000daa4:	3000dd38 	andcc	sp, r0, r8, lsr sp
3000daa8:	3000dd38 	andcc	sp, r0, r8, lsr sp
3000daac:	3000dd38 	andcc	sp, r0, r8, lsr sp
3000dab0:	3000dd38 	andcc	sp, r0, r8, lsr sp
3000dab4:	3000dd38 	andcc	sp, r0, r8, lsr sp
3000dab8:	3000db10 	andcc	sp, r0, r0, lsl fp
3000dabc:	3000dcf4 	strdcc	sp, [r0], -r4
3000dac0:	3000dd38 	andcc	sp, r0, r8, lsr sp
3000dac4:	3000dd38 	andcc	sp, r0, r8, lsr sp
3000dac8:	3000dd38 	andcc	sp, r0, r8, lsr sp
3000dacc:	3000dd38 	andcc	sp, r0, r8, lsr sp
3000dad0:	3000dcec 	andcc	sp, r0, ip, ror #25
3000dad4:	3000dd38 	andcc	sp, r0, r8, lsr sp
3000dad8:	3000dd38 	andcc	sp, r0, r8, lsr sp
3000dadc:	3000dd38 	andcc	sp, r0, r8, lsr sp
3000dae0:	3000dd38 	andcc	sp, r0, r8, lsr sp
3000dae4:	3000dca0 	andcc	sp, r0, r0, lsr #25
3000dae8:	3000dcd4 	ldrdcc	sp, [r0], -r4
3000daec:	3000dd38 	andcc	sp, r0, r8, lsr sp
3000daf0:	3000dd38 	andcc	sp, r0, r8, lsr sp
3000daf4:	3000dd38 	andcc	sp, r0, r8, lsr sp
3000daf8:	3000dba0 	andcc	sp, r0, r0, lsr #23
3000dafc:	3000dd38 	andcc	sp, r0, r8, lsr sp
3000db00:	3000dd50 	andcc	sp, r0, r0, asr sp
3000db04:	3000dd38 	andcc	sp, r0, r8, lsr sp
3000db08:	3000dd38 	andcc	sp, r0, r8, lsr sp
3000db0c:	3000dce0 	andcc	sp, r0, r0, ror #25
3000db10:	e51b3070 	ldr	r3, [fp, #-112]	; 0xffffff90
3000db14:	e2833004 	add	r3, r3, #4
3000db18:	e50b3070 	str	r3, [fp, #-112]	; 0xffffff90
3000db1c:	e51b3070 	ldr	r3, [fp, #-112]	; 0xffffff90
3000db20:	e2433004 	sub	r3, r3, #4
3000db24:	e5933000 	ldr	r3, [r3]
3000db28:	e50b3044 	str	r3, [fp, #-68]	; 0xffffffbc
3000db2c:	e51b304c 	ldr	r3, [fp, #-76]	; 0xffffffb4
3000db30:	e3730001 	cmn	r3, #1
3000db34:	1a000001 	bne	3000db40 <vsscanf+0x4a8>
3000db38:	e3a03001 	mov	r3, #1
3000db3c:	e50b304c 	str	r3, [fp, #-76]	; 0xffffffb4
3000db40:	e51b3060 	ldr	r3, [fp, #-96]	; 0xffffffa0
3000db44:	e5d33000 	ldrb	r3, [r3]
3000db48:	e51b2044 	ldr	r2, [fp, #-68]	; 0xffffffbc
3000db4c:	e5c23000 	strb	r3, [r2]
3000db50:	e51b3044 	ldr	r3, [fp, #-68]	; 0xffffffbc
3000db54:	e2833001 	add	r3, r3, #1
3000db58:	e50b3044 	str	r3, [fp, #-68]	; 0xffffffbc
3000db5c:	e51b3060 	ldr	r3, [fp, #-96]	; 0xffffffa0
3000db60:	e2833001 	add	r3, r3, #1
3000db64:	e50b3060 	str	r3, [fp, #-96]	; 0xffffffa0
3000db68:	e51b304c 	ldr	r3, [fp, #-76]	; 0xffffffb4
3000db6c:	e2433001 	sub	r3, r3, #1
3000db70:	e50b304c 	str	r3, [fp, #-76]	; 0xffffffb4
3000db74:	e51b304c 	ldr	r3, [fp, #-76]	; 0xffffffb4
3000db78:	e3530000 	cmp	r3, #0
3000db7c:	da000003 	ble	3000db90 <vsscanf+0x4f8>
3000db80:	e51b3060 	ldr	r3, [fp, #-96]	; 0xffffffa0
3000db84:	e5d33000 	ldrb	r3, [r3]
3000db88:	e3530000 	cmp	r3, #0
3000db8c:	1affffeb 	bne	3000db40 <vsscanf+0x4a8>
3000db90:	e51b3058 	ldr	r3, [fp, #-88]	; 0xffffffa8
3000db94:	e2833001 	add	r3, r3, #1
3000db98:	e50b3058 	str	r3, [fp, #-88]	; 0xffffffa8
3000db9c:	ea0001b0 	b	3000e264 <vsscanf+0xbcc>
3000dba0:	e51b3070 	ldr	r3, [fp, #-112]	; 0xffffff90
3000dba4:	e2833004 	add	r3, r3, #4
3000dba8:	e50b3070 	str	r3, [fp, #-112]	; 0xffffff90
3000dbac:	e51b3070 	ldr	r3, [fp, #-112]	; 0xffffff90
3000dbb0:	e2433004 	sub	r3, r3, #4
3000dbb4:	e5933000 	ldr	r3, [r3]
3000dbb8:	e50b3040 	str	r3, [fp, #-64]	; 0xffffffc0
3000dbbc:	e51b304c 	ldr	r3, [fp, #-76]	; 0xffffffb4
3000dbc0:	e3730001 	cmn	r3, #1
3000dbc4:	1a000005 	bne	3000dbe0 <vsscanf+0x548>
3000dbc8:	e3e03102 	mvn	r3, #-2147483648	; 0x80000000
3000dbcc:	e50b304c 	str	r3, [fp, #-76]	; 0xffffffb4
3000dbd0:	ea000002 	b	3000dbe0 <vsscanf+0x548>
3000dbd4:	e51b3060 	ldr	r3, [fp, #-96]	; 0xffffffa0
3000dbd8:	e2833001 	add	r3, r3, #1
3000dbdc:	e50b3060 	str	r3, [fp, #-96]	; 0xffffffa0
3000dbe0:	e51b3060 	ldr	r3, [fp, #-96]	; 0xffffffa0
3000dbe4:	e5d33000 	ldrb	r3, [r3]
3000dbe8:	e1a02003 	mov	r2, r3
3000dbec:	e59f36ac 	ldr	r3, [pc, #1708]	; 3000e2a0 <vsscanf+0xc08>
3000dbf0:	e7d33002 	ldrb	r3, [r3, r2]
3000dbf4:	e2033020 	and	r3, r3, #32
3000dbf8:	e3530000 	cmp	r3, #0
3000dbfc:	1afffff4 	bne	3000dbd4 <vsscanf+0x53c>
3000dc00:	ea000009 	b	3000dc2c <vsscanf+0x594>
3000dc04:	e51b3060 	ldr	r3, [fp, #-96]	; 0xffffffa0
3000dc08:	e5d33000 	ldrb	r3, [r3]
3000dc0c:	e51b2040 	ldr	r2, [fp, #-64]	; 0xffffffc0
3000dc10:	e5c23000 	strb	r3, [r2]
3000dc14:	e51b3040 	ldr	r3, [fp, #-64]	; 0xffffffc0
3000dc18:	e2833001 	add	r3, r3, #1
3000dc1c:	e50b3040 	str	r3, [fp, #-64]	; 0xffffffc0
3000dc20:	e51b3060 	ldr	r3, [fp, #-96]	; 0xffffffa0
3000dc24:	e2833001 	add	r3, r3, #1
3000dc28:	e50b3060 	str	r3, [fp, #-96]	; 0xffffffa0
3000dc2c:	e51b3060 	ldr	r3, [fp, #-96]	; 0xffffffa0
3000dc30:	e5d33000 	ldrb	r3, [r3]
3000dc34:	e3530000 	cmp	r3, #0
3000dc38:	0a000011 	beq	3000dc84 <vsscanf+0x5ec>
3000dc3c:	e51b3060 	ldr	r3, [fp, #-96]	; 0xffffffa0
3000dc40:	e5d33000 	ldrb	r3, [r3]
3000dc44:	e1a02003 	mov	r2, r3
3000dc48:	e59f3650 	ldr	r3, [pc, #1616]	; 3000e2a0 <vsscanf+0xc08>
3000dc4c:	e7d33002 	ldrb	r3, [r3, r2]
3000dc50:	e2033020 	and	r3, r3, #32
3000dc54:	e3530000 	cmp	r3, #0
3000dc58:	1a000009 	bne	3000dc84 <vsscanf+0x5ec>
3000dc5c:	e51b304c 	ldr	r3, [fp, #-76]	; 0xffffffb4
3000dc60:	e3530000 	cmp	r3, #0
3000dc64:	03a03000 	moveq	r3, #0
3000dc68:	13a03001 	movne	r3, #1
3000dc6c:	e20320ff 	and	r2, r3, #255	; 0xff
3000dc70:	e51b304c 	ldr	r3, [fp, #-76]	; 0xffffffb4
3000dc74:	e2433001 	sub	r3, r3, #1
3000dc78:	e50b304c 	str	r3, [fp, #-76]	; 0xffffffb4
3000dc7c:	e3520000 	cmp	r2, #0
3000dc80:	1affffdf 	bne	3000dc04 <vsscanf+0x56c>
3000dc84:	e51b2040 	ldr	r2, [fp, #-64]	; 0xffffffc0
3000dc88:	e3a03000 	mov	r3, #0
3000dc8c:	e5c23000 	strb	r3, [r2]
3000dc90:	e51b3058 	ldr	r3, [fp, #-88]	; 0xffffffa8
3000dc94:	e2833001 	add	r3, r3, #1
3000dc98:	e50b3058 	str	r3, [fp, #-88]	; 0xffffffa8
3000dc9c:	ea000170 	b	3000e264 <vsscanf+0xbcc>
3000dca0:	e51b3070 	ldr	r3, [fp, #-112]	; 0xffffff90
3000dca4:	e2833004 	add	r3, r3, #4
3000dca8:	e50b3070 	str	r3, [fp, #-112]	; 0xffffff90
3000dcac:	e51b3070 	ldr	r3, [fp, #-112]	; 0xffffff90
3000dcb0:	e2433004 	sub	r3, r3, #4
3000dcb4:	e5933000 	ldr	r3, [r3]
3000dcb8:	e50b303c 	str	r3, [fp, #-60]	; 0xffffffc4
3000dcbc:	e51b2060 	ldr	r2, [fp, #-96]	; 0xffffffa0
3000dcc0:	e51b3068 	ldr	r3, [fp, #-104]	; 0xffffff98
3000dcc4:	e0632002 	rsb	r2, r3, r2
3000dcc8:	e51b303c 	ldr	r3, [fp, #-60]	; 0xffffffc4
3000dccc:	e5832000 	str	r2, [r3]
3000dcd0:	ea000163 	b	3000e264 <vsscanf+0xbcc>
3000dcd4:	e3a03008 	mov	r3, #8
3000dcd8:	e50b3050 	str	r3, [fp, #-80]	; 0xffffffb0
3000dcdc:	ea00001b 	b	3000dd50 <vsscanf+0x6b8>
3000dce0:	e3a03010 	mov	r3, #16
3000dce4:	e50b3050 	str	r3, [fp, #-80]	; 0xffffffb0
3000dce8:	ea000018 	b	3000dd50 <vsscanf+0x6b8>
3000dcec:	e3a03000 	mov	r3, #0
3000dcf0:	e50b3050 	str	r3, [fp, #-80]	; 0xffffffb0
3000dcf4:	e3a03001 	mov	r3, #1
3000dcf8:	e50b3048 	str	r3, [fp, #-72]	; 0xffffffb8
3000dcfc:	ea000013 	b	3000dd50 <vsscanf+0x6b8>
3000dd00:	e51b3060 	ldr	r3, [fp, #-96]	; 0xffffffa0
3000dd04:	e5d33000 	ldrb	r3, [r3]
3000dd08:	e3530025 	cmp	r3, #37	; 0x25
3000dd0c:	03a03000 	moveq	r3, #0
3000dd10:	13a03001 	movne	r3, #1
3000dd14:	e20320ff 	and	r2, r3, #255	; 0xff
3000dd18:	e51b3060 	ldr	r3, [fp, #-96]	; 0xffffffa0
3000dd1c:	e2833001 	add	r3, r3, #1
3000dd20:	e50b3060 	str	r3, [fp, #-96]	; 0xffffffa0
3000dd24:	e3520000 	cmp	r2, #0
3000dd28:	0a00014d 	beq	3000e264 <vsscanf+0xbcc>
3000dd2c:	e51b3058 	ldr	r3, [fp, #-88]	; 0xffffffa8
3000dd30:	e50b3074 	str	r3, [fp, #-116]	; 0xffffff8c
3000dd34:	ea000154 	b	3000e28c <vsscanf+0xbf4>
3000dd38:	e51b3058 	ldr	r3, [fp, #-88]	; 0xffffffa8
3000dd3c:	e50b3074 	str	r3, [fp, #-116]	; 0xffffff8c
3000dd40:	ea000151 	b	3000e28c <vsscanf+0xbf4>
3000dd44:	e51b3060 	ldr	r3, [fp, #-96]	; 0xffffffa0
3000dd48:	e2833001 	add	r3, r3, #1
3000dd4c:	e50b3060 	str	r3, [fp, #-96]	; 0xffffffa0
3000dd50:	e51b3060 	ldr	r3, [fp, #-96]	; 0xffffffa0
3000dd54:	e5d33000 	ldrb	r3, [r3]
3000dd58:	e1a02003 	mov	r2, r3
3000dd5c:	e59f353c 	ldr	r3, [pc, #1340]	; 3000e2a0 <vsscanf+0xc08>
3000dd60:	e7d33002 	ldrb	r3, [r3, r2]
3000dd64:	e2033020 	and	r3, r3, #32
3000dd68:	e3530000 	cmp	r3, #0
3000dd6c:	1afffff4 	bne	3000dd44 <vsscanf+0x6ac>
3000dd70:	e51b3060 	ldr	r3, [fp, #-96]	; 0xffffffa0
3000dd74:	e5d33000 	ldrb	r3, [r3]
3000dd78:	e54b3059 	strb	r3, [fp, #-89]	; 0xffffffa7
3000dd7c:	e51b3048 	ldr	r3, [fp, #-72]	; 0xffffffb8
3000dd80:	e3530000 	cmp	r3, #0
3000dd84:	0a000006 	beq	3000dda4 <vsscanf+0x70c>
3000dd88:	e55b3059 	ldrb	r3, [fp, #-89]	; 0xffffffa7
3000dd8c:	e353002d 	cmp	r3, #45	; 0x2d
3000dd90:	1a000003 	bne	3000dda4 <vsscanf+0x70c>
3000dd94:	e51b3060 	ldr	r3, [fp, #-96]	; 0xffffffa0
3000dd98:	e2833001 	add	r3, r3, #1
3000dd9c:	e5d33000 	ldrb	r3, [r3]
3000dda0:	e54b3059 	strb	r3, [fp, #-89]	; 0xffffffa7
3000dda4:	e55b3059 	ldrb	r3, [fp, #-89]	; 0xffffffa7
3000dda8:	e3530000 	cmp	r3, #0
3000ddac:	0a000134 	beq	3000e284 <vsscanf+0xbec>
3000ddb0:	e51b3050 	ldr	r3, [fp, #-80]	; 0xffffffb0
3000ddb4:	e3530010 	cmp	r3, #16
3000ddb8:	1a000005 	bne	3000ddd4 <vsscanf+0x73c>
3000ddbc:	e55b2059 	ldrb	r2, [fp, #-89]	; 0xffffffa7
3000ddc0:	e59f34d8 	ldr	r3, [pc, #1240]	; 3000e2a0 <vsscanf+0xc08>
3000ddc4:	e7d33002 	ldrb	r3, [r3, r2]
3000ddc8:	e2033044 	and	r3, r3, #68	; 0x44
3000ddcc:	e3530000 	cmp	r3, #0
3000ddd0:	0a00012b 	beq	3000e284 <vsscanf+0xbec>
3000ddd4:	e51b3050 	ldr	r3, [fp, #-80]	; 0xffffffb0
3000ddd8:	e353000a 	cmp	r3, #10
3000dddc:	1a000005 	bne	3000ddf8 <vsscanf+0x760>
3000dde0:	e55b2059 	ldrb	r2, [fp, #-89]	; 0xffffffa7
3000dde4:	e59f34b4 	ldr	r3, [pc, #1204]	; 3000e2a0 <vsscanf+0xc08>
3000dde8:	e7d33002 	ldrb	r3, [r3, r2]
3000ddec:	e2033004 	and	r3, r3, #4
3000ddf0:	e3530000 	cmp	r3, #0
3000ddf4:	0a000122 	beq	3000e284 <vsscanf+0xbec>
3000ddf8:	e51b3050 	ldr	r3, [fp, #-80]	; 0xffffffb0
3000ddfc:	e3530008 	cmp	r3, #8
3000de00:	1a000008 	bne	3000de28 <vsscanf+0x790>
3000de04:	e55b2059 	ldrb	r2, [fp, #-89]	; 0xffffffa7
3000de08:	e59f3490 	ldr	r3, [pc, #1168]	; 3000e2a0 <vsscanf+0xc08>
3000de0c:	e7d33002 	ldrb	r3, [r3, r2]
3000de10:	e2033004 	and	r3, r3, #4
3000de14:	e3530000 	cmp	r3, #0
3000de18:	0a000119 	beq	3000e284 <vsscanf+0xbec>
3000de1c:	e55b3059 	ldrb	r3, [fp, #-89]	; 0xffffffa7
3000de20:	e3530037 	cmp	r3, #55	; 0x37
3000de24:	8a000116 	bhi	3000e284 <vsscanf+0xbec>
3000de28:	e51b3050 	ldr	r3, [fp, #-80]	; 0xffffffb0
3000de2c:	e3530000 	cmp	r3, #0
3000de30:	1a000005 	bne	3000de4c <vsscanf+0x7b4>
3000de34:	e55b2059 	ldrb	r2, [fp, #-89]	; 0xffffffa7
3000de38:	e59f3460 	ldr	r3, [pc, #1120]	; 3000e2a0 <vsscanf+0xc08>
3000de3c:	e7d33002 	ldrb	r3, [r3, r2]
3000de40:	e2033004 	and	r3, r3, #4
3000de44:	e3530000 	cmp	r3, #0
3000de48:	0a00010d 	beq	3000e284 <vsscanf+0xbec>
3000de4c:	e51b3054 	ldr	r3, [fp, #-84]	; 0xffffffac
3000de50:	e2433048 	sub	r3, r3, #72	; 0x48
3000de54:	e3530032 	cmp	r3, #50	; 0x32
3000de58:	979ff103 	ldrls	pc, [pc, r3, lsl #2]
3000de5c:	ea0000d6 	b	3000e1bc <vsscanf+0xb24>
3000de60:	3000df2c 	andcc	sp, r0, ip, lsr #30
3000de64:	3000e1bc 			; <UNDEFINED> instruction: 0x3000e1bc
3000de68:	3000e1bc 			; <UNDEFINED> instruction: 0x3000e1bc
3000de6c:	3000e1bc 			; <UNDEFINED> instruction: 0x3000e1bc
3000de70:	3000e0e8 	andcc	lr, r0, r8, ror #1
3000de74:	3000e1bc 			; <UNDEFINED> instruction: 0x3000e1bc
3000de78:	3000e1bc 			; <UNDEFINED> instruction: 0x3000e1bc
3000de7c:	3000e1bc 			; <UNDEFINED> instruction: 0x3000e1bc
3000de80:	3000e1bc 			; <UNDEFINED> instruction: 0x3000e1bc
3000de84:	3000e1bc 			; <UNDEFINED> instruction: 0x3000e1bc
3000de88:	3000e1bc 			; <UNDEFINED> instruction: 0x3000e1bc
3000de8c:	3000e1bc 			; <UNDEFINED> instruction: 0x3000e1bc
3000de90:	3000e1bc 			; <UNDEFINED> instruction: 0x3000e1bc
3000de94:	3000e1bc 			; <UNDEFINED> instruction: 0x3000e1bc
3000de98:	3000e1bc 			; <UNDEFINED> instruction: 0x3000e1bc
3000de9c:	3000e1bc 			; <UNDEFINED> instruction: 0x3000e1bc
3000dea0:	3000e1bc 			; <UNDEFINED> instruction: 0x3000e1bc
3000dea4:	3000e1bc 			; <UNDEFINED> instruction: 0x3000e1bc
3000dea8:	3000e17c 	andcc	lr, r0, ip, ror r1
3000deac:	3000e1bc 			; <UNDEFINED> instruction: 0x3000e1bc
3000deb0:	3000e1bc 			; <UNDEFINED> instruction: 0x3000e1bc
3000deb4:	3000e1bc 			; <UNDEFINED> instruction: 0x3000e1bc
3000deb8:	3000e1bc 			; <UNDEFINED> instruction: 0x3000e1bc
3000debc:	3000e1bc 			; <UNDEFINED> instruction: 0x3000e1bc
3000dec0:	3000e1bc 			; <UNDEFINED> instruction: 0x3000e1bc
3000dec4:	3000e1bc 			; <UNDEFINED> instruction: 0x3000e1bc
3000dec8:	3000e1bc 			; <UNDEFINED> instruction: 0x3000e1bc
3000decc:	3000e1bc 			; <UNDEFINED> instruction: 0x3000e1bc
3000ded0:	3000e1bc 			; <UNDEFINED> instruction: 0x3000e1bc
3000ded4:	3000e1bc 			; <UNDEFINED> instruction: 0x3000e1bc
3000ded8:	3000e1bc 			; <UNDEFINED> instruction: 0x3000e1bc
3000dedc:	3000e1bc 			; <UNDEFINED> instruction: 0x3000e1bc
3000dee0:	3000dfc0 	andcc	sp, r0, r0, asr #31
3000dee4:	3000e1bc 			; <UNDEFINED> instruction: 0x3000e1bc
3000dee8:	3000e1bc 			; <UNDEFINED> instruction: 0x3000e1bc
3000deec:	3000e1bc 			; <UNDEFINED> instruction: 0x3000e1bc
3000def0:	3000e05c 	andcc	lr, r0, ip, asr r0
3000def4:	3000e1bc 			; <UNDEFINED> instruction: 0x3000e1bc
3000def8:	3000e1bc 			; <UNDEFINED> instruction: 0x3000e1bc
3000defc:	3000e1bc 			; <UNDEFINED> instruction: 0x3000e1bc
3000df00:	3000e1bc 			; <UNDEFINED> instruction: 0x3000e1bc
3000df04:	3000e1bc 			; <UNDEFINED> instruction: 0x3000e1bc
3000df08:	3000e1bc 			; <UNDEFINED> instruction: 0x3000e1bc
3000df0c:	3000e1bc 			; <UNDEFINED> instruction: 0x3000e1bc
3000df10:	3000e1bc 			; <UNDEFINED> instruction: 0x3000e1bc
3000df14:	3000e1bc 			; <UNDEFINED> instruction: 0x3000e1bc
3000df18:	3000e1bc 			; <UNDEFINED> instruction: 0x3000e1bc
3000df1c:	3000e1bc 			; <UNDEFINED> instruction: 0x3000e1bc
3000df20:	3000e1bc 			; <UNDEFINED> instruction: 0x3000e1bc
3000df24:	3000e1bc 			; <UNDEFINED> instruction: 0x3000e1bc
3000df28:	3000e17c 	andcc	lr, r0, ip, ror r1
3000df2c:	e51b3048 	ldr	r3, [fp, #-72]	; 0xffffffb8
3000df30:	e3530000 	cmp	r3, #0
3000df34:	0a000010 	beq	3000df7c <vsscanf+0x8e4>
3000df38:	e51b3070 	ldr	r3, [fp, #-112]	; 0xffffff90
3000df3c:	e2833004 	add	r3, r3, #4
3000df40:	e50b3070 	str	r3, [fp, #-112]	; 0xffffff90
3000df44:	e51b3070 	ldr	r3, [fp, #-112]	; 0xffffff90
3000df48:	e2433004 	sub	r3, r3, #4
3000df4c:	e5933000 	ldr	r3, [r3]
3000df50:	e50b3038 	str	r3, [fp, #-56]	; 0xffffffc8
3000df54:	e51b2050 	ldr	r2, [fp, #-80]	; 0xffffffb0
3000df58:	e24b3064 	sub	r3, fp, #100	; 0x64
3000df5c:	e51b0060 	ldr	r0, [fp, #-96]	; 0xffffffa0
3000df60:	e1a01003 	mov	r1, r3
3000df64:	ebfff7ff 	bl	3000bf68 <simple_strtol>
3000df68:	e1a03000 	mov	r3, r0
3000df6c:	e20330ff 	and	r3, r3, #255	; 0xff
3000df70:	e51b2038 	ldr	r2, [fp, #-56]	; 0xffffffc8
3000df74:	e5c23000 	strb	r3, [r2]
3000df78:	ea0000b1 	b	3000e244 <vsscanf+0xbac>
3000df7c:	e51b3070 	ldr	r3, [fp, #-112]	; 0xffffff90
3000df80:	e2833004 	add	r3, r3, #4
3000df84:	e50b3070 	str	r3, [fp, #-112]	; 0xffffff90
3000df88:	e51b3070 	ldr	r3, [fp, #-112]	; 0xffffff90
3000df8c:	e2433004 	sub	r3, r3, #4
3000df90:	e5933000 	ldr	r3, [r3]
3000df94:	e50b3034 	str	r3, [fp, #-52]	; 0xffffffcc
3000df98:	e51b2050 	ldr	r2, [fp, #-80]	; 0xffffffb0
3000df9c:	e24b3064 	sub	r3, fp, #100	; 0x64
3000dfa0:	e51b0060 	ldr	r0, [fp, #-96]	; 0xffffffa0
3000dfa4:	e1a01003 	mov	r1, r3
3000dfa8:	ebfff764 	bl	3000bd40 <simple_strtoul>
3000dfac:	e1a03000 	mov	r3, r0
3000dfb0:	e20330ff 	and	r3, r3, #255	; 0xff
3000dfb4:	e51b2034 	ldr	r2, [fp, #-52]	; 0xffffffcc
3000dfb8:	e5c23000 	strb	r3, [r2]
3000dfbc:	ea0000a0 	b	3000e244 <vsscanf+0xbac>
3000dfc0:	e51b3048 	ldr	r3, [fp, #-72]	; 0xffffffb8
3000dfc4:	e3530000 	cmp	r3, #0
3000dfc8:	0a000011 	beq	3000e014 <vsscanf+0x97c>
3000dfcc:	e51b3070 	ldr	r3, [fp, #-112]	; 0xffffff90
3000dfd0:	e2833004 	add	r3, r3, #4
3000dfd4:	e50b3070 	str	r3, [fp, #-112]	; 0xffffff90
3000dfd8:	e51b3070 	ldr	r3, [fp, #-112]	; 0xffffff90
3000dfdc:	e2433004 	sub	r3, r3, #4
3000dfe0:	e5933000 	ldr	r3, [r3]
3000dfe4:	e50b3030 	str	r3, [fp, #-48]	; 0xffffffd0
3000dfe8:	e51b2050 	ldr	r2, [fp, #-80]	; 0xffffffb0
3000dfec:	e24b3064 	sub	r3, fp, #100	; 0x64
3000dff0:	e51b0060 	ldr	r0, [fp, #-96]	; 0xffffffa0
3000dff4:	e1a01003 	mov	r1, r3
3000dff8:	ebfff7da 	bl	3000bf68 <simple_strtol>
3000dffc:	e1a03000 	mov	r3, r0
3000e000:	e1a03803 	lsl	r3, r3, #16
3000e004:	e1a02823 	lsr	r2, r3, #16
3000e008:	e51b3030 	ldr	r3, [fp, #-48]	; 0xffffffd0
3000e00c:	e1c320b0 	strh	r2, [r3]
3000e010:	ea00008b 	b	3000e244 <vsscanf+0xbac>
3000e014:	e51b3070 	ldr	r3, [fp, #-112]	; 0xffffff90
3000e018:	e2833004 	add	r3, r3, #4
3000e01c:	e50b3070 	str	r3, [fp, #-112]	; 0xffffff90
3000e020:	e51b3070 	ldr	r3, [fp, #-112]	; 0xffffff90
3000e024:	e2433004 	sub	r3, r3, #4
3000e028:	e5933000 	ldr	r3, [r3]
3000e02c:	e50b302c 	str	r3, [fp, #-44]	; 0xffffffd4
3000e030:	e51b2050 	ldr	r2, [fp, #-80]	; 0xffffffb0
3000e034:	e24b3064 	sub	r3, fp, #100	; 0x64
3000e038:	e51b0060 	ldr	r0, [fp, #-96]	; 0xffffffa0
3000e03c:	e1a01003 	mov	r1, r3
3000e040:	ebfff73e 	bl	3000bd40 <simple_strtoul>
3000e044:	e1a03000 	mov	r3, r0
3000e048:	e1a03803 	lsl	r3, r3, #16
3000e04c:	e1a02823 	lsr	r2, r3, #16
3000e050:	e51b302c 	ldr	r3, [fp, #-44]	; 0xffffffd4
3000e054:	e1c320b0 	strh	r2, [r3]
3000e058:	ea000079 	b	3000e244 <vsscanf+0xbac>
3000e05c:	e51b3048 	ldr	r3, [fp, #-72]	; 0xffffffb8
3000e060:	e3530000 	cmp	r3, #0
3000e064:	0a00000f 	beq	3000e0a8 <vsscanf+0xa10>
3000e068:	e51b3070 	ldr	r3, [fp, #-112]	; 0xffffff90
3000e06c:	e2833004 	add	r3, r3, #4
3000e070:	e50b3070 	str	r3, [fp, #-112]	; 0xffffff90
3000e074:	e51b3070 	ldr	r3, [fp, #-112]	; 0xffffff90
3000e078:	e2433004 	sub	r3, r3, #4
3000e07c:	e5933000 	ldr	r3, [r3]
3000e080:	e50b3028 	str	r3, [fp, #-40]	; 0xffffffd8
3000e084:	e51b2050 	ldr	r2, [fp, #-80]	; 0xffffffb0
3000e088:	e24b3064 	sub	r3, fp, #100	; 0x64
3000e08c:	e51b0060 	ldr	r0, [fp, #-96]	; 0xffffffa0
3000e090:	e1a01003 	mov	r1, r3
3000e094:	ebfff7b3 	bl	3000bf68 <simple_strtol>
3000e098:	e1a02000 	mov	r2, r0
3000e09c:	e51b3028 	ldr	r3, [fp, #-40]	; 0xffffffd8
3000e0a0:	e5832000 	str	r2, [r3]
3000e0a4:	ea000066 	b	3000e244 <vsscanf+0xbac>
3000e0a8:	e51b3070 	ldr	r3, [fp, #-112]	; 0xffffff90
3000e0ac:	e2833004 	add	r3, r3, #4
3000e0b0:	e50b3070 	str	r3, [fp, #-112]	; 0xffffff90
3000e0b4:	e51b3070 	ldr	r3, [fp, #-112]	; 0xffffff90
3000e0b8:	e2433004 	sub	r3, r3, #4
3000e0bc:	e5933000 	ldr	r3, [r3]
3000e0c0:	e50b3024 	str	r3, [fp, #-36]	; 0xffffffdc
3000e0c4:	e51b2050 	ldr	r2, [fp, #-80]	; 0xffffffb0
3000e0c8:	e24b3064 	sub	r3, fp, #100	; 0x64
3000e0cc:	e51b0060 	ldr	r0, [fp, #-96]	; 0xffffffa0
3000e0d0:	e1a01003 	mov	r1, r3
3000e0d4:	ebfff719 	bl	3000bd40 <simple_strtoul>
3000e0d8:	e1a02000 	mov	r2, r0
3000e0dc:	e51b3024 	ldr	r3, [fp, #-36]	; 0xffffffdc
3000e0e0:	e5832000 	str	r2, [r3]
3000e0e4:	ea000056 	b	3000e244 <vsscanf+0xbac>
3000e0e8:	e51b3048 	ldr	r3, [fp, #-72]	; 0xffffffb8
3000e0ec:	e3530000 	cmp	r3, #0
3000e0f0:	0a000010 	beq	3000e138 <vsscanf+0xaa0>
3000e0f4:	e51b3070 	ldr	r3, [fp, #-112]	; 0xffffff90
3000e0f8:	e2833004 	add	r3, r3, #4
3000e0fc:	e50b3070 	str	r3, [fp, #-112]	; 0xffffff90
3000e100:	e51b3070 	ldr	r3, [fp, #-112]	; 0xffffff90
3000e104:	e2433004 	sub	r3, r3, #4
3000e108:	e5933000 	ldr	r3, [r3]
3000e10c:	e50b3020 	str	r3, [fp, #-32]	; 0xffffffe0
3000e110:	e51b2050 	ldr	r2, [fp, #-80]	; 0xffffffb0
3000e114:	e24b3064 	sub	r3, fp, #100	; 0x64
3000e118:	e51b0060 	ldr	r0, [fp, #-96]	; 0xffffffa0
3000e11c:	e1a01003 	mov	r1, r3
3000e120:	ebfff858 	bl	3000c288 <simple_strtoll>
3000e124:	e1a03000 	mov	r3, r0
3000e128:	e1a04001 	mov	r4, r1
3000e12c:	e51b2020 	ldr	r2, [fp, #-32]	; 0xffffffe0
3000e130:	e8820018 	stm	r2, {r3, r4}
3000e134:	ea000042 	b	3000e244 <vsscanf+0xbac>
3000e138:	e51b3070 	ldr	r3, [fp, #-112]	; 0xffffff90
3000e13c:	e2833004 	add	r3, r3, #4
3000e140:	e50b3070 	str	r3, [fp, #-112]	; 0xffffff90
3000e144:	e51b3070 	ldr	r3, [fp, #-112]	; 0xffffff90
3000e148:	e2433004 	sub	r3, r3, #4
3000e14c:	e5933000 	ldr	r3, [r3]
3000e150:	e50b301c 	str	r3, [fp, #-28]	; 0xffffffe4
3000e154:	e51b2050 	ldr	r2, [fp, #-80]	; 0xffffffb0
3000e158:	e24b3064 	sub	r3, fp, #100	; 0x64
3000e15c:	e51b0060 	ldr	r0, [fp, #-96]	; 0xffffffa0
3000e160:	e1a01003 	mov	r1, r3
3000e164:	ebfff79e 	bl	3000bfe4 <simple_strtoull>
3000e168:	e1a03000 	mov	r3, r0
3000e16c:	e1a04001 	mov	r4, r1
3000e170:	e51b201c 	ldr	r2, [fp, #-28]	; 0xffffffe4
3000e174:	e8820018 	stm	r2, {r3, r4}
3000e178:	ea000031 	b	3000e244 <vsscanf+0xbac>
3000e17c:	e51b3070 	ldr	r3, [fp, #-112]	; 0xffffff90
3000e180:	e2833004 	add	r3, r3, #4
3000e184:	e50b3070 	str	r3, [fp, #-112]	; 0xffffff90
3000e188:	e51b3070 	ldr	r3, [fp, #-112]	; 0xffffff90
3000e18c:	e2433004 	sub	r3, r3, #4
3000e190:	e5933000 	ldr	r3, [r3]
3000e194:	e50b3018 	str	r3, [fp, #-24]	; 0xffffffe8
3000e198:	e51b2050 	ldr	r2, [fp, #-80]	; 0xffffffb0
3000e19c:	e24b3064 	sub	r3, fp, #100	; 0x64
3000e1a0:	e51b0060 	ldr	r0, [fp, #-96]	; 0xffffffa0
3000e1a4:	e1a01003 	mov	r1, r3
3000e1a8:	ebfff6e4 	bl	3000bd40 <simple_strtoul>
3000e1ac:	e1a02000 	mov	r2, r0
3000e1b0:	e51b3018 	ldr	r3, [fp, #-24]	; 0xffffffe8
3000e1b4:	e5832000 	str	r2, [r3]
3000e1b8:	ea000021 	b	3000e244 <vsscanf+0xbac>
3000e1bc:	e51b3048 	ldr	r3, [fp, #-72]	; 0xffffffb8
3000e1c0:	e3530000 	cmp	r3, #0
3000e1c4:	0a00000f 	beq	3000e208 <vsscanf+0xb70>
3000e1c8:	e51b3070 	ldr	r3, [fp, #-112]	; 0xffffff90
3000e1cc:	e2833004 	add	r3, r3, #4
3000e1d0:	e50b3070 	str	r3, [fp, #-112]	; 0xffffff90
3000e1d4:	e51b3070 	ldr	r3, [fp, #-112]	; 0xffffff90
3000e1d8:	e2433004 	sub	r3, r3, #4
3000e1dc:	e5933000 	ldr	r3, [r3]
3000e1e0:	e50b3014 	str	r3, [fp, #-20]	; 0xffffffec
3000e1e4:	e51b2050 	ldr	r2, [fp, #-80]	; 0xffffffb0
3000e1e8:	e24b3064 	sub	r3, fp, #100	; 0x64
3000e1ec:	e51b0060 	ldr	r0, [fp, #-96]	; 0xffffffa0
3000e1f0:	e1a01003 	mov	r1, r3
3000e1f4:	ebfff75b 	bl	3000bf68 <simple_strtol>
3000e1f8:	e1a02000 	mov	r2, r0
3000e1fc:	e51b3014 	ldr	r3, [fp, #-20]	; 0xffffffec
3000e200:	e5832000 	str	r2, [r3]
3000e204:	ea00000e 	b	3000e244 <vsscanf+0xbac>
3000e208:	e51b3070 	ldr	r3, [fp, #-112]	; 0xffffff90
3000e20c:	e2833004 	add	r3, r3, #4
3000e210:	e50b3070 	str	r3, [fp, #-112]	; 0xffffff90
3000e214:	e51b3070 	ldr	r3, [fp, #-112]	; 0xffffff90
3000e218:	e2433004 	sub	r3, r3, #4
3000e21c:	e5933000 	ldr	r3, [r3]
3000e220:	e50b3010 	str	r3, [fp, #-16]
3000e224:	e51b2050 	ldr	r2, [fp, #-80]	; 0xffffffb0
3000e228:	e24b3064 	sub	r3, fp, #100	; 0x64
3000e22c:	e51b0060 	ldr	r0, [fp, #-96]	; 0xffffffa0
3000e230:	e1a01003 	mov	r1, r3
3000e234:	ebfff6c1 	bl	3000bd40 <simple_strtoul>
3000e238:	e1a02000 	mov	r2, r0
3000e23c:	e51b3010 	ldr	r3, [fp, #-16]
3000e240:	e5832000 	str	r2, [r3]
3000e244:	e51b3058 	ldr	r3, [fp, #-88]	; 0xffffffa8
3000e248:	e2833001 	add	r3, r3, #1
3000e24c:	e50b3058 	str	r3, [fp, #-88]	; 0xffffffa8
3000e250:	e51b3064 	ldr	r3, [fp, #-100]	; 0xffffff9c
3000e254:	e3530000 	cmp	r3, #0
3000e258:	0a000009 	beq	3000e284 <vsscanf+0xbec>
3000e25c:	e51b3064 	ldr	r3, [fp, #-100]	; 0xffffff9c
3000e260:	e50b3060 	str	r3, [fp, #-96]	; 0xffffffa0
3000e264:	e51b306c 	ldr	r3, [fp, #-108]	; 0xffffff94
3000e268:	e5d33000 	ldrb	r3, [r3]
3000e26c:	e3530000 	cmp	r3, #0
3000e270:	0a000003 	beq	3000e284 <vsscanf+0xbec>
3000e274:	e51b3060 	ldr	r3, [fp, #-96]	; 0xffffffa0
3000e278:	e5d33000 	ldrb	r3, [r3]
3000e27c:	e3530000 	cmp	r3, #0
3000e280:	1afffd11 	bne	3000d6cc <vsscanf+0x34>
3000e284:	e51b3058 	ldr	r3, [fp, #-88]	; 0xffffffa8
3000e288:	e50b3074 	str	r3, [fp, #-116]	; 0xffffff8c
3000e28c:	e51b3074 	ldr	r3, [fp, #-116]	; 0xffffff8c
3000e290:	e1a00003 	mov	r0, r3
3000e294:	e24bd008 	sub	sp, fp, #8
3000e298:	e8bd4810 	pop	{r4, fp, lr}
3000e29c:	e12fff1e 	bx	lr
3000e2a0:	300102a4 	andcc	r0, r1, r4, lsr #5

3000e2a4 <sscanf>:
3000e2a4:	e92d000e 	push	{r1, r2, r3}
3000e2a8:	e92d4800 	push	{fp, lr}
3000e2ac:	e28db004 	add	fp, sp, #4
3000e2b0:	e24dd014 	sub	sp, sp, #20
3000e2b4:	e50b0014 	str	r0, [fp, #-20]	; 0xffffffec
3000e2b8:	e28b3004 	add	r3, fp, #4
3000e2bc:	e2833004 	add	r3, r3, #4
3000e2c0:	e50b3010 	str	r3, [fp, #-16]
3000e2c4:	e59b3004 	ldr	r3, [fp, #4]
3000e2c8:	e51b0014 	ldr	r0, [fp, #-20]	; 0xffffffec
3000e2cc:	e1a01003 	mov	r1, r3
3000e2d0:	e51b2010 	ldr	r2, [fp, #-16]
3000e2d4:	ebfffcef 	bl	3000d698 <vsscanf>
3000e2d8:	e1a03000 	mov	r3, r0
3000e2dc:	e50b300c 	str	r3, [fp, #-12]
3000e2e0:	e51b300c 	ldr	r3, [fp, #-12]
3000e2e4:	e1a00003 	mov	r0, r3
3000e2e8:	e24bd004 	sub	sp, fp, #4
3000e2ec:	e8bd4800 	pop	{fp, lr}
3000e2f0:	e28dd00c 	add	sp, sp, #12
3000e2f4:	e12fff1e 	bx	lr

3000e2f8 <arp_request>:
3000e2f8:	e92d4800 	push	{fp, lr}
3000e2fc:	e28db004 	add	fp, sp, #4
3000e300:	e59f00c0 	ldr	r0, [pc, #192]	; 3000e3c8 <arp_request+0xd0>
3000e304:	e59f10c0 	ldr	r1, [pc, #192]	; 3000e3cc <arp_request+0xd4>
3000e308:	e3a02006 	mov	r2, #6
3000e30c:	ebfff57c 	bl	3000b904 <memcpy>
3000e310:	e59f00b8 	ldr	r0, [pc, #184]	; 3000e3d0 <arp_request+0xd8>
3000e314:	e59f10b8 	ldr	r1, [pc, #184]	; 3000e3d4 <arp_request+0xdc>
3000e318:	e3a02006 	mov	r2, #6
3000e31c:	ebfff578 	bl	3000b904 <memcpy>
3000e320:	e59f20a0 	ldr	r2, [pc, #160]	; 3000e3c8 <arp_request+0xd0>
3000e324:	e3a03c06 	mov	r3, #1536	; 0x600
3000e328:	e2833008 	add	r3, r3, #8
3000e32c:	e1c230bc 	strh	r3, [r2, #12]
3000e330:	e59f2090 	ldr	r2, [pc, #144]	; 3000e3c8 <arp_request+0xd0>
3000e334:	e3a03c01 	mov	r3, #256	; 0x100
3000e338:	e1c230be 	strh	r3, [r2, #14]
3000e33c:	e59f2084 	ldr	r2, [pc, #132]	; 3000e3c8 <arp_request+0xd0>
3000e340:	e3a03008 	mov	r3, #8
3000e344:	e1c231b0 	strh	r3, [r2, #16]
3000e348:	e59f2078 	ldr	r2, [pc, #120]	; 3000e3c8 <arp_request+0xd0>
3000e34c:	e3a03006 	mov	r3, #6
3000e350:	e5c23012 	strb	r3, [r2, #18]
3000e354:	e59f206c 	ldr	r2, [pc, #108]	; 3000e3c8 <arp_request+0xd0>
3000e358:	e3a03004 	mov	r3, #4
3000e35c:	e5c23013 	strb	r3, [r2, #19]
3000e360:	e59f2060 	ldr	r2, [pc, #96]	; 3000e3c8 <arp_request+0xd0>
3000e364:	e3a03c01 	mov	r3, #256	; 0x100
3000e368:	e1c231b4 	strh	r3, [r2, #20]
3000e36c:	e59f0064 	ldr	r0, [pc, #100]	; 3000e3d8 <arp_request+0xe0>
3000e370:	e59f105c 	ldr	r1, [pc, #92]	; 3000e3d4 <arp_request+0xdc>
3000e374:	e3a02006 	mov	r2, #6
3000e378:	ebfff561 	bl	3000b904 <memcpy>
3000e37c:	e59f0058 	ldr	r0, [pc, #88]	; 3000e3dc <arp_request+0xe4>
3000e380:	e59f1058 	ldr	r1, [pc, #88]	; 3000e3e0 <arp_request+0xe8>
3000e384:	e3a02004 	mov	r2, #4
3000e388:	ebfff55d 	bl	3000b904 <memcpy>
3000e38c:	e59f0050 	ldr	r0, [pc, #80]	; 3000e3e4 <arp_request+0xec>
3000e390:	e59f1050 	ldr	r1, [pc, #80]	; 3000e3e8 <arp_request+0xf0>
3000e394:	e3a02004 	mov	r2, #4
3000e398:	ebfff559 	bl	3000b904 <memcpy>
3000e39c:	e59f2048 	ldr	r2, [pc, #72]	; 3000e3ec <arp_request+0xf4>
3000e3a0:	e3a0302a 	mov	r3, #42	; 0x2a
3000e3a4:	e1c230b0 	strh	r3, [r2]
3000e3a8:	e59f303c 	ldr	r3, [pc, #60]	; 3000e3ec <arp_request+0xf4>
3000e3ac:	e1d330b0 	ldrh	r3, [r3]
3000e3b0:	e59f0010 	ldr	r0, [pc, #16]	; 3000e3c8 <arp_request+0xd0>
3000e3b4:	e1a01003 	mov	r1, r3
3000e3b8:	ebffefe1 	bl	3000a344 <dm9000_tx>
3000e3bc:	e24bd004 	sub	sp, fp, #4
3000e3c0:	e8bd4800 	pop	{fp, lr}
3000e3c4:	e12fff1e 	bx	lr
3000e3c8:	300109aa 	andcc	r0, r1, sl, lsr #19
3000e3cc:	30010290 	mulcc	r1, r0, r2
3000e3d0:	300109b0 			; <UNDEFINED> instruction: 0x300109b0
3000e3d4:	30010296 	mulcc	r1, r6, r2
3000e3d8:	300109c0 	andcc	r0, r1, r0, asr #19
3000e3dc:	300109c6 	andcc	r0, r1, r6, asr #19
3000e3e0:	3001029c 	mulcc	r1, ip, r2
3000e3e4:	300109d0 	ldrdcc	r0, [r1], -r0	; <UNPREDICTABLE>
3000e3e8:	300102a0 	andcc	r0, r1, r0, lsr #5
3000e3ec:	300109a8 	andcc	r0, r1, r8, lsr #19

3000e3f0 <arp_process>:
3000e3f0:	e92d4800 	push	{fp, lr}
3000e3f4:	e28db004 	add	fp, sp, #4
3000e3f8:	e24dd018 	sub	sp, sp, #24
3000e3fc:	e50b0010 	str	r0, [fp, #-16]
3000e400:	e1a03001 	mov	r3, r1
3000e404:	e14b31b2 	strh	r3, [fp, #-18]	; 0xffffffee
3000e408:	e51b3010 	ldr	r3, [fp, #-16]
3000e40c:	e50b3008 	str	r3, [fp, #-8]
3000e410:	e59f3228 	ldr	r3, [pc, #552]	; 3000e640 <arp_process+0x250>
3000e414:	e1d330b0 	ldrh	r3, [r3]
3000e418:	e353001b 	cmp	r3, #27
3000e41c:	8a000002 	bhi	3000e42c <arp_process+0x3c>
3000e420:	e3a03000 	mov	r3, #0
3000e424:	e50b301c 	str	r3, [fp, #-28]	; 0xffffffe4
3000e428:	ea00007f 	b	3000e62c <arp_process+0x23c>
3000e42c:	e51b3008 	ldr	r3, [fp, #-8]
3000e430:	e1d331b4 	ldrh	r3, [r3, #20]
3000e434:	e1a03403 	lsl	r3, r3, #8
3000e438:	e1a02803 	lsl	r2, r3, #16
3000e43c:	e1a02822 	lsr	r2, r2, #16
3000e440:	e51b3008 	ldr	r3, [fp, #-8]
3000e444:	e1d331b4 	ldrh	r3, [r3, #20]
3000e448:	e1a03423 	lsr	r3, r3, #8
3000e44c:	e1a03803 	lsl	r3, r3, #16
3000e450:	e1a03823 	lsr	r3, r3, #16
3000e454:	e1822003 	orr	r2, r2, r3
3000e458:	e50b2018 	str	r2, [fp, #-24]	; 0xffffffe8
3000e45c:	e51b3018 	ldr	r3, [fp, #-24]	; 0xffffffe8
3000e460:	e3530001 	cmp	r3, #1
3000e464:	0a000035 	beq	3000e540 <arp_process+0x150>
3000e468:	e51b3018 	ldr	r3, [fp, #-24]	; 0xffffffe8
3000e46c:	e3530002 	cmp	r3, #2
3000e470:	1a00006b 	bne	3000e624 <arp_process+0x234>
3000e474:	e51b3008 	ldr	r3, [fp, #-8]
3000e478:	e283301c 	add	r3, r3, #28
3000e47c:	e59f01c0 	ldr	r0, [pc, #448]	; 3000e644 <arp_process+0x254>
3000e480:	e1a01003 	mov	r1, r3
3000e484:	e3a02004 	mov	r2, #4
3000e488:	ebfff51d 	bl	3000b904 <memcpy>
3000e48c:	e59f01b4 	ldr	r0, [pc, #436]	; 3000e648 <arp_process+0x258>
3000e490:	ebfff1f7 	bl	3000ac74 <printf>
3000e494:	e3a03000 	mov	r3, #0
3000e498:	e50b300c 	str	r3, [fp, #-12]
3000e49c:	ea000008 	b	3000e4c4 <arp_process+0xd4>
3000e4a0:	e51b200c 	ldr	r2, [fp, #-12]
3000e4a4:	e59f3198 	ldr	r3, [pc, #408]	; 3000e644 <arp_process+0x254>
3000e4a8:	e7d33002 	ldrb	r3, [r3, r2]
3000e4ac:	e59f0198 	ldr	r0, [pc, #408]	; 3000e64c <arp_process+0x25c>
3000e4b0:	e1a01003 	mov	r1, r3
3000e4b4:	ebfff1ee 	bl	3000ac74 <printf>
3000e4b8:	e51b300c 	ldr	r3, [fp, #-12]
3000e4bc:	e2833001 	add	r3, r3, #1
3000e4c0:	e50b300c 	str	r3, [fp, #-12]
3000e4c4:	e51b300c 	ldr	r3, [fp, #-12]
3000e4c8:	e3530003 	cmp	r3, #3
3000e4cc:	9afffff3 	bls	3000e4a0 <arp_process+0xb0>
3000e4d0:	e59f0178 	ldr	r0, [pc, #376]	; 3000e650 <arp_process+0x260>
3000e4d4:	ebfff1e6 	bl	3000ac74 <printf>
3000e4d8:	e51b3008 	ldr	r3, [fp, #-8]
3000e4dc:	e2833016 	add	r3, r3, #22
3000e4e0:	e59f016c 	ldr	r0, [pc, #364]	; 3000e654 <arp_process+0x264>
3000e4e4:	e1a01003 	mov	r1, r3
3000e4e8:	e3a02006 	mov	r2, #6
3000e4ec:	ebfff504 	bl	3000b904 <memcpy>
3000e4f0:	e59f0160 	ldr	r0, [pc, #352]	; 3000e658 <arp_process+0x268>
3000e4f4:	ebfff1de 	bl	3000ac74 <printf>
3000e4f8:	e3a03000 	mov	r3, #0
3000e4fc:	e50b300c 	str	r3, [fp, #-12]
3000e500:	ea000008 	b	3000e528 <arp_process+0x138>
3000e504:	e51b200c 	ldr	r2, [fp, #-12]
3000e508:	e59f3144 	ldr	r3, [pc, #324]	; 3000e654 <arp_process+0x264>
3000e50c:	e7d33002 	ldrb	r3, [r3, r2]
3000e510:	e59f0144 	ldr	r0, [pc, #324]	; 3000e65c <arp_process+0x26c>
3000e514:	e1a01003 	mov	r1, r3
3000e518:	ebfff1d5 	bl	3000ac74 <printf>
3000e51c:	e51b300c 	ldr	r3, [fp, #-12]
3000e520:	e2833001 	add	r3, r3, #1
3000e524:	e50b300c 	str	r3, [fp, #-12]
3000e528:	e51b300c 	ldr	r3, [fp, #-12]
3000e52c:	e3530005 	cmp	r3, #5
3000e530:	9afffff3 	bls	3000e504 <arp_process+0x114>
3000e534:	e59f0114 	ldr	r0, [pc, #276]	; 3000e650 <arp_process+0x260>
3000e538:	ebfff1cd 	bl	3000ac74 <printf>
3000e53c:	ea000038 	b	3000e624 <arp_process+0x234>
3000e540:	e51b3008 	ldr	r3, [fp, #-8]
3000e544:	e2833006 	add	r3, r3, #6
3000e548:	e59f0110 	ldr	r0, [pc, #272]	; 3000e660 <arp_process+0x270>
3000e54c:	e1a01003 	mov	r1, r3
3000e550:	e3a02006 	mov	r2, #6
3000e554:	ebfff4ea 	bl	3000b904 <memcpy>
3000e558:	e59f0104 	ldr	r0, [pc, #260]	; 3000e664 <arp_process+0x274>
3000e55c:	e59f1104 	ldr	r1, [pc, #260]	; 3000e668 <arp_process+0x278>
3000e560:	e3a02006 	mov	r2, #6
3000e564:	ebfff4e6 	bl	3000b904 <memcpy>
3000e568:	e59f20f0 	ldr	r2, [pc, #240]	; 3000e660 <arp_process+0x270>
3000e56c:	e3a03c06 	mov	r3, #1536	; 0x600
3000e570:	e2833008 	add	r3, r3, #8
3000e574:	e1c230bc 	strh	r3, [r2, #12]
3000e578:	e59f20e0 	ldr	r2, [pc, #224]	; 3000e660 <arp_process+0x270>
3000e57c:	e3a03c01 	mov	r3, #256	; 0x100
3000e580:	e1c230be 	strh	r3, [r2, #14]
3000e584:	e59f20d4 	ldr	r2, [pc, #212]	; 3000e660 <arp_process+0x270>
3000e588:	e3a03008 	mov	r3, #8
3000e58c:	e1c231b0 	strh	r3, [r2, #16]
3000e590:	e59f20c8 	ldr	r2, [pc, #200]	; 3000e660 <arp_process+0x270>
3000e594:	e3a03006 	mov	r3, #6
3000e598:	e5c23012 	strb	r3, [r2, #18]
3000e59c:	e59f20bc 	ldr	r2, [pc, #188]	; 3000e660 <arp_process+0x270>
3000e5a0:	e3a03004 	mov	r3, #4
3000e5a4:	e5c23013 	strb	r3, [r2, #19]
3000e5a8:	e59f20b0 	ldr	r2, [pc, #176]	; 3000e660 <arp_process+0x270>
3000e5ac:	e3a03c02 	mov	r3, #512	; 0x200
3000e5b0:	e1c231b4 	strh	r3, [r2, #20]
3000e5b4:	e59f00b0 	ldr	r0, [pc, #176]	; 3000e66c <arp_process+0x27c>
3000e5b8:	e59f10a8 	ldr	r1, [pc, #168]	; 3000e668 <arp_process+0x278>
3000e5bc:	e3a02006 	mov	r2, #6
3000e5c0:	ebfff4cf 	bl	3000b904 <memcpy>
3000e5c4:	e59f00a4 	ldr	r0, [pc, #164]	; 3000e670 <arp_process+0x280>
3000e5c8:	e59f10a4 	ldr	r1, [pc, #164]	; 3000e674 <arp_process+0x284>
3000e5cc:	e3a02004 	mov	r2, #4
3000e5d0:	ebfff4cb 	bl	3000b904 <memcpy>
3000e5d4:	e51b3008 	ldr	r3, [fp, #-8]
3000e5d8:	e2833006 	add	r3, r3, #6
3000e5dc:	e59f0094 	ldr	r0, [pc, #148]	; 3000e678 <arp_process+0x288>
3000e5e0:	e1a01003 	mov	r1, r3
3000e5e4:	e3a02006 	mov	r2, #6
3000e5e8:	ebfff4c5 	bl	3000b904 <memcpy>
3000e5ec:	e51b3008 	ldr	r3, [fp, #-8]
3000e5f0:	e283301c 	add	r3, r3, #28
3000e5f4:	e59f0080 	ldr	r0, [pc, #128]	; 3000e67c <arp_process+0x28c>
3000e5f8:	e1a01003 	mov	r1, r3
3000e5fc:	e3a02004 	mov	r2, #4
3000e600:	ebfff4bf 	bl	3000b904 <memcpy>
3000e604:	e59f2034 	ldr	r2, [pc, #52]	; 3000e640 <arp_process+0x250>
3000e608:	e3a0302a 	mov	r3, #42	; 0x2a
3000e60c:	e1c230b0 	strh	r3, [r2]
3000e610:	e59f3028 	ldr	r3, [pc, #40]	; 3000e640 <arp_process+0x250>
3000e614:	e1d330b0 	ldrh	r3, [r3]
3000e618:	e59f0040 	ldr	r0, [pc, #64]	; 3000e660 <arp_process+0x270>
3000e61c:	e1a01003 	mov	r1, r3
3000e620:	ebffef47 	bl	3000a344 <dm9000_tx>
3000e624:	e3a03001 	mov	r3, #1
3000e628:	e50b301c 	str	r3, [fp, #-28]	; 0xffffffe4
3000e62c:	e51b301c 	ldr	r3, [fp, #-28]	; 0xffffffe4
3000e630:	e1a00003 	mov	r0, r3
3000e634:	e24bd004 	sub	sp, fp, #4
3000e638:	e8bd4800 	pop	{fp, lr}
3000e63c:	e12fff1e 	bx	lr
3000e640:	300109a8 	andcc	r0, r1, r8, lsr #19
3000e644:	300102a0 	andcc	r0, r1, r0, lsr #5
3000e648:	30010234 	andcc	r0, r1, r4, lsr r2
3000e64c:	30010244 	andcc	r0, r1, r4, asr #4
3000e650:	3001024c 	andcc	r0, r1, ip, asr #4
3000e654:	30010290 	mulcc	r1, r0, r2
3000e658:	30010250 	andcc	r0, r1, r0, asr r2
3000e65c:	30010260 	andcc	r0, r1, r0, ror #4
3000e660:	300109aa 	andcc	r0, r1, sl, lsr #19
3000e664:	300109b0 			; <UNDEFINED> instruction: 0x300109b0
3000e668:	30010296 	mulcc	r1, r6, r2
3000e66c:	300109c0 	andcc	r0, r1, r0, asr #19
3000e670:	300109c6 	andcc	r0, r1, r6, asr #19
3000e674:	3001029c 	mulcc	r1, ip, r2
3000e678:	300109ca 	andcc	r0, r1, sl, asr #19
3000e67c:	300109d0 	ldrdcc	r0, [r1], -r0	; <UNPREDICTABLE>

3000e680 <udp_process>:
3000e680:	e92d4800 	push	{fp, lr}
3000e684:	e28db004 	add	fp, sp, #4
3000e688:	e24dd010 	sub	sp, sp, #16
3000e68c:	e50b0010 	str	r0, [fp, #-16]
3000e690:	e1a03001 	mov	r3, r1
3000e694:	e14b31b2 	strh	r3, [fp, #-18]	; 0xffffffee
3000e698:	e51b3010 	ldr	r3, [fp, #-16]
3000e69c:	e50b3008 	str	r3, [fp, #-8]
3000e6a0:	e15b21b2 	ldrh	r2, [fp, #-18]	; 0xffffffee
3000e6a4:	e51b3008 	ldr	r3, [fp, #-8]
3000e6a8:	e1d332b2 	ldrh	r3, [r3, #34]	; 0x22
3000e6ac:	e51b0010 	ldr	r0, [fp, #-16]
3000e6b0:	e1a01002 	mov	r1, r2
3000e6b4:	e1a02003 	mov	r2, r3
3000e6b8:	eb0001d3 	bl	3000ee0c <tftp_process>
3000e6bc:	e24bd004 	sub	sp, fp, #4
3000e6c0:	e8bd4800 	pop	{fp, lr}
3000e6c4:	e12fff1e 	bx	lr

3000e6c8 <ip_process>:
3000e6c8:	e92d4800 	push	{fp, lr}
3000e6cc:	e28db004 	add	fp, sp, #4
3000e6d0:	e24dd010 	sub	sp, sp, #16
3000e6d4:	e50b0010 	str	r0, [fp, #-16]
3000e6d8:	e1a03001 	mov	r3, r1
3000e6dc:	e14b31b2 	strh	r3, [fp, #-18]	; 0xffffffee
3000e6e0:	e51b3010 	ldr	r3, [fp, #-16]
3000e6e4:	e50b3008 	str	r3, [fp, #-8]
3000e6e8:	e51b3008 	ldr	r3, [fp, #-8]
3000e6ec:	e5d33017 	ldrb	r3, [r3, #23]
3000e6f0:	e3530011 	cmp	r3, #17
3000e6f4:	1a000003 	bne	3000e708 <ip_process+0x40>
3000e6f8:	e15b31b2 	ldrh	r3, [fp, #-18]	; 0xffffffee
3000e6fc:	e51b0010 	ldr	r0, [fp, #-16]
3000e700:	e1a01003 	mov	r1, r3
3000e704:	ebffffdd 	bl	3000e680 <udp_process>
3000e708:	e24bd004 	sub	sp, fp, #4
3000e70c:	e8bd4800 	pop	{fp, lr}
3000e710:	e12fff1e 	bx	lr

3000e714 <net_handle>:
3000e714:	e92d4800 	push	{fp, lr}
3000e718:	e28db004 	add	fp, sp, #4
3000e71c:	e24dd018 	sub	sp, sp, #24
3000e720:	e50b0010 	str	r0, [fp, #-16]
3000e724:	e50b1014 	str	r1, [fp, #-20]	; 0xffffffec
3000e728:	e51b3010 	ldr	r3, [fp, #-16]
3000e72c:	e50b3008 	str	r3, [fp, #-8]
3000e730:	e51b3008 	ldr	r3, [fp, #-8]
3000e734:	e1d330bc 	ldrh	r3, [r3, #12]
3000e738:	e1a03403 	lsl	r3, r3, #8
3000e73c:	e1a02803 	lsl	r2, r3, #16
3000e740:	e1a02822 	lsr	r2, r2, #16
3000e744:	e51b3008 	ldr	r3, [fp, #-8]
3000e748:	e1d330bc 	ldrh	r3, [r3, #12]
3000e74c:	e1a03423 	lsr	r3, r3, #8
3000e750:	e1a03803 	lsl	r3, r3, #16
3000e754:	e1a03823 	lsr	r3, r3, #16
3000e758:	e1822003 	orr	r2, r2, r3
3000e75c:	e50b2018 	str	r2, [fp, #-24]	; 0xffffffe8
3000e760:	e51b2018 	ldr	r2, [fp, #-24]	; 0xffffffe8
3000e764:	e3520b02 	cmp	r2, #2048	; 0x800
3000e768:	0a00000b 	beq	3000e79c <net_handle+0x88>
3000e76c:	e3a03b02 	mov	r3, #2048	; 0x800
3000e770:	e2833006 	add	r3, r3, #6
3000e774:	e51b2018 	ldr	r2, [fp, #-24]	; 0xffffffe8
3000e778:	e1520003 	cmp	r2, r3
3000e77c:	1a00000c 	bne	3000e7b4 <net_handle+0xa0>
3000e780:	e51b3014 	ldr	r3, [fp, #-20]	; 0xffffffec
3000e784:	e1a03803 	lsl	r3, r3, #16
3000e788:	e1a03823 	lsr	r3, r3, #16
3000e78c:	e51b0010 	ldr	r0, [fp, #-16]
3000e790:	e1a01003 	mov	r1, r3
3000e794:	ebffff15 	bl	3000e3f0 <arp_process>
3000e798:	ea000005 	b	3000e7b4 <net_handle+0xa0>
3000e79c:	e51b3014 	ldr	r3, [fp, #-20]	; 0xffffffec
3000e7a0:	e1a03803 	lsl	r3, r3, #16
3000e7a4:	e1a03823 	lsr	r3, r3, #16
3000e7a8:	e51b0010 	ldr	r0, [fp, #-16]
3000e7ac:	e1a01003 	mov	r1, r3
3000e7b0:	ebffffc4 	bl	3000e6c8 <ip_process>
3000e7b4:	e24bd004 	sub	sp, fp, #4
3000e7b8:	e8bd4800 	pop	{fp, lr}
3000e7bc:	e12fff1e 	bx	lr

3000e7c0 <checksum>:
3000e7c0:	e52db004 	push	{fp}		; (str fp, [sp, #-4]!)
3000e7c4:	e28db000 	add	fp, sp, #0
3000e7c8:	e24dd014 	sub	sp, sp, #20
3000e7cc:	e50b0010 	str	r0, [fp, #-16]
3000e7d0:	e50b1014 	str	r1, [fp, #-20]	; 0xffffffec
3000e7d4:	e3a03000 	mov	r3, #0
3000e7d8:	e50b300c 	str	r3, [fp, #-12]
3000e7dc:	e51b3010 	ldr	r3, [fp, #-16]
3000e7e0:	e50b3008 	str	r3, [fp, #-8]
3000e7e4:	ea00000b 	b	3000e818 <checksum+0x58>
3000e7e8:	e51b3008 	ldr	r3, [fp, #-8]
3000e7ec:	e1d330b0 	ldrh	r3, [r3]
3000e7f0:	e1a02003 	mov	r2, r3
3000e7f4:	e51b300c 	ldr	r3, [fp, #-12]
3000e7f8:	e0833002 	add	r3, r3, r2
3000e7fc:	e50b300c 	str	r3, [fp, #-12]
3000e800:	e51b3008 	ldr	r3, [fp, #-8]
3000e804:	e2833002 	add	r3, r3, #2
3000e808:	e50b3008 	str	r3, [fp, #-8]
3000e80c:	e51b3014 	ldr	r3, [fp, #-20]	; 0xffffffec
3000e810:	e2433002 	sub	r3, r3, #2
3000e814:	e50b3014 	str	r3, [fp, #-20]	; 0xffffffec
3000e818:	e51b3014 	ldr	r3, [fp, #-20]	; 0xffffffec
3000e81c:	e3530001 	cmp	r3, #1
3000e820:	cafffff0 	bgt	3000e7e8 <checksum+0x28>
3000e824:	e51b3014 	ldr	r3, [fp, #-20]	; 0xffffffec
3000e828:	e3530001 	cmp	r3, #1
3000e82c:	1a00000d 	bne	3000e868 <checksum+0xa8>
3000e830:	e51b3008 	ldr	r3, [fp, #-8]
3000e834:	e5d33000 	ldrb	r3, [r3]
3000e838:	e1a02003 	mov	r2, r3
3000e83c:	e51b300c 	ldr	r3, [fp, #-12]
3000e840:	e0833002 	add	r3, r3, r2
3000e844:	e50b300c 	str	r3, [fp, #-12]
3000e848:	ea000006 	b	3000e868 <checksum+0xa8>
3000e84c:	e51b300c 	ldr	r3, [fp, #-12]
3000e850:	e1a03803 	lsl	r3, r3, #16
3000e854:	e1a03823 	lsr	r3, r3, #16
3000e858:	e51b200c 	ldr	r2, [fp, #-12]
3000e85c:	e1a02822 	lsr	r2, r2, #16
3000e860:	e0833002 	add	r3, r3, r2
3000e864:	e50b300c 	str	r3, [fp, #-12]
3000e868:	e51b300c 	ldr	r3, [fp, #-12]
3000e86c:	e1a03823 	lsr	r3, r3, #16
3000e870:	e3530000 	cmp	r3, #0
3000e874:	1afffff4 	bne	3000e84c <checksum+0x8c>
3000e878:	e51b300c 	ldr	r3, [fp, #-12]
3000e87c:	e1a03803 	lsl	r3, r3, #16
3000e880:	e1a03823 	lsr	r3, r3, #16
3000e884:	e1e03003 	mvn	r3, r3
3000e888:	e1a03803 	lsl	r3, r3, #16
3000e88c:	e1a03823 	lsr	r3, r3, #16
3000e890:	e1a00003 	mov	r0, r3
3000e894:	e28bd000 	add	sp, fp, #0
3000e898:	e8bd0800 	ldmfd	sp!, {fp}
3000e89c:	e12fff1e 	bx	lr

3000e8a0 <tftp_send_request>:
3000e8a0:	e92d4800 	push	{fp, lr}
3000e8a4:	e28db004 	add	fp, sp, #4
3000e8a8:	e24dd018 	sub	sp, sp, #24
3000e8ac:	e50b0018 	str	r0, [fp, #-24]	; 0xffffffe8
3000e8b0:	e59f32b4 	ldr	r3, [pc, #692]	; 3000eb6c <tftp_send_request+0x2cc>
3000e8b4:	e50b3014 	str	r3, [fp, #-20]	; 0xffffffec
3000e8b8:	e3a03000 	mov	r3, #0
3000e8bc:	e50b3010 	str	r3, [fp, #-16]
3000e8c0:	e51b2014 	ldr	r2, [fp, #-20]	; 0xffffffec
3000e8c4:	e3a03000 	mov	r3, #0
3000e8c8:	e5c23000 	strb	r3, [r2]
3000e8cc:	e51b3014 	ldr	r3, [fp, #-20]	; 0xffffffec
3000e8d0:	e2832001 	add	r2, r3, #1
3000e8d4:	e3a03001 	mov	r3, #1
3000e8d8:	e5c23000 	strb	r3, [r2]
3000e8dc:	e51b3010 	ldr	r3, [fp, #-16]
3000e8e0:	e2833002 	add	r3, r3, #2
3000e8e4:	e50b3010 	str	r3, [fp, #-16]
3000e8e8:	e51b2014 	ldr	r2, [fp, #-20]	; 0xffffffec
3000e8ec:	e51b3010 	ldr	r3, [fp, #-16]
3000e8f0:	e0823003 	add	r3, r2, r3
3000e8f4:	e1a00003 	mov	r0, r3
3000e8f8:	e59f1270 	ldr	r1, [pc, #624]	; 3000eb70 <tftp_send_request+0x2d0>
3000e8fc:	e51b2018 	ldr	r2, [fp, #-24]	; 0xffffffe8
3000e900:	ebfffb4f 	bl	3000d644 <sprintf>
3000e904:	e51b0018 	ldr	r0, [fp, #-24]	; 0xffffffe8
3000e908:	ebfff2c0 	bl	3000b410 <strlen>
3000e90c:	e1a02000 	mov	r2, r0
3000e910:	e51b3010 	ldr	r3, [fp, #-16]
3000e914:	e0833002 	add	r3, r3, r2
3000e918:	e50b3010 	str	r3, [fp, #-16]
3000e91c:	e51b2014 	ldr	r2, [fp, #-20]	; 0xffffffec
3000e920:	e51b3010 	ldr	r3, [fp, #-16]
3000e924:	e0822003 	add	r2, r2, r3
3000e928:	e3a03000 	mov	r3, #0
3000e92c:	e5c23000 	strb	r3, [r2]
3000e930:	e51b3010 	ldr	r3, [fp, #-16]
3000e934:	e2833001 	add	r3, r3, #1
3000e938:	e50b3010 	str	r3, [fp, #-16]
3000e93c:	e51b2014 	ldr	r2, [fp, #-20]	; 0xffffffec
3000e940:	e51b3010 	ldr	r3, [fp, #-16]
3000e944:	e0823003 	add	r3, r2, r3
3000e948:	e1a00003 	mov	r0, r3
3000e94c:	e59f121c 	ldr	r1, [pc, #540]	; 3000eb70 <tftp_send_request+0x2d0>
3000e950:	e59f221c 	ldr	r2, [pc, #540]	; 3000eb74 <tftp_send_request+0x2d4>
3000e954:	ebfffb3a 	bl	3000d644 <sprintf>
3000e958:	e59f0214 	ldr	r0, [pc, #532]	; 3000eb74 <tftp_send_request+0x2d4>
3000e95c:	ebfff2ab 	bl	3000b410 <strlen>
3000e960:	e1a02000 	mov	r2, r0
3000e964:	e51b3010 	ldr	r3, [fp, #-16]
3000e968:	e0833002 	add	r3, r3, r2
3000e96c:	e50b3010 	str	r3, [fp, #-16]
3000e970:	e51b2014 	ldr	r2, [fp, #-20]	; 0xffffffec
3000e974:	e51b3010 	ldr	r3, [fp, #-16]
3000e978:	e0822003 	add	r2, r2, r3
3000e97c:	e3a03000 	mov	r3, #0
3000e980:	e5c23000 	strb	r3, [r2]
3000e984:	e51b3010 	ldr	r3, [fp, #-16]
3000e988:	e2833001 	add	r3, r3, #1
3000e98c:	e50b3010 	str	r3, [fp, #-16]
3000e990:	e51b3014 	ldr	r3, [fp, #-20]	; 0xffffffec
3000e994:	e243302a 	sub	r3, r3, #42	; 0x2a
3000e998:	e50b300c 	str	r3, [fp, #-12]
3000e99c:	e51b3014 	ldr	r3, [fp, #-20]	; 0xffffffec
3000e9a0:	e243301c 	sub	r3, r3, #28
3000e9a4:	e50b3008 	str	r3, [fp, #-8]
3000e9a8:	e51b200c 	ldr	r2, [fp, #-12]
3000e9ac:	e3a03d4e 	mov	r3, #4992	; 0x1380
3000e9b0:	e283303f 	add	r3, r3, #63	; 0x3f
3000e9b4:	e1c232b2 	strh	r3, [r2, #34]	; 0x22
3000e9b8:	e51b200c 	ldr	r2, [fp, #-12]
3000e9bc:	e3a03c45 	mov	r3, #17664	; 0x4500
3000e9c0:	e1c232b4 	strh	r3, [r2, #36]	; 0x24
3000e9c4:	e51b3010 	ldr	r3, [fp, #-16]
3000e9c8:	e1a03803 	lsl	r3, r3, #16
3000e9cc:	e1a03823 	lsr	r3, r3, #16
3000e9d0:	e2833008 	add	r3, r3, #8
3000e9d4:	e1a03803 	lsl	r3, r3, #16
3000e9d8:	e1a03823 	lsr	r3, r3, #16
3000e9dc:	e1a03403 	lsl	r3, r3, #8
3000e9e0:	e1a03803 	lsl	r3, r3, #16
3000e9e4:	e1a02823 	lsr	r2, r3, #16
3000e9e8:	e51b3010 	ldr	r3, [fp, #-16]
3000e9ec:	e2833008 	add	r3, r3, #8
3000e9f0:	e2033cff 	and	r3, r3, #65280	; 0xff00
3000e9f4:	e1a03423 	lsr	r3, r3, #8
3000e9f8:	e1a03803 	lsl	r3, r3, #16
3000e9fc:	e1a03823 	lsr	r3, r3, #16
3000ea00:	e1823003 	orr	r3, r2, r3
3000ea04:	e1a03803 	lsl	r3, r3, #16
3000ea08:	e1a02823 	lsr	r2, r3, #16
3000ea0c:	e51b300c 	ldr	r3, [fp, #-12]
3000ea10:	e1c322b6 	strh	r2, [r3, #38]	; 0x26
3000ea14:	e51b200c 	ldr	r2, [fp, #-12]
3000ea18:	e3a03000 	mov	r3, #0
3000ea1c:	e1c232b8 	strh	r3, [r2, #40]	; 0x28
3000ea20:	e51b200c 	ldr	r2, [fp, #-12]
3000ea24:	e3a03045 	mov	r3, #69	; 0x45
3000ea28:	e5c2300e 	strb	r3, [r2, #14]
3000ea2c:	e51b200c 	ldr	r2, [fp, #-12]
3000ea30:	e3a03000 	mov	r3, #0
3000ea34:	e5c2300f 	strb	r3, [r2, #15]
3000ea38:	e51b3010 	ldr	r3, [fp, #-16]
3000ea3c:	e1a03803 	lsl	r3, r3, #16
3000ea40:	e1a03823 	lsr	r3, r3, #16
3000ea44:	e283301c 	add	r3, r3, #28
3000ea48:	e1a03803 	lsl	r3, r3, #16
3000ea4c:	e1a03823 	lsr	r3, r3, #16
3000ea50:	e1a03403 	lsl	r3, r3, #8
3000ea54:	e1a03803 	lsl	r3, r3, #16
3000ea58:	e1a02823 	lsr	r2, r3, #16
3000ea5c:	e51b3010 	ldr	r3, [fp, #-16]
3000ea60:	e283301c 	add	r3, r3, #28
3000ea64:	e2033cff 	and	r3, r3, #65280	; 0xff00
3000ea68:	e1a03423 	lsr	r3, r3, #8
3000ea6c:	e1a03803 	lsl	r3, r3, #16
3000ea70:	e1a03823 	lsr	r3, r3, #16
3000ea74:	e1823003 	orr	r3, r2, r3
3000ea78:	e1a03803 	lsl	r3, r3, #16
3000ea7c:	e1a02823 	lsr	r2, r3, #16
3000ea80:	e51b300c 	ldr	r3, [fp, #-12]
3000ea84:	e1c321b0 	strh	r2, [r3, #16]
3000ea88:	e51b200c 	ldr	r2, [fp, #-12]
3000ea8c:	e3a03000 	mov	r3, #0
3000ea90:	e1c231b2 	strh	r3, [r2, #18]
3000ea94:	e51b200c 	ldr	r2, [fp, #-12]
3000ea98:	e3a03040 	mov	r3, #64	; 0x40
3000ea9c:	e1c231b4 	strh	r3, [r2, #20]
3000eaa0:	e51b200c 	ldr	r2, [fp, #-12]
3000eaa4:	e3e03000 	mvn	r3, #0
3000eaa8:	e5c23016 	strb	r3, [r2, #22]
3000eaac:	e51b200c 	ldr	r2, [fp, #-12]
3000eab0:	e3a03011 	mov	r3, #17
3000eab4:	e5c23017 	strb	r3, [r2, #23]
3000eab8:	e51b300c 	ldr	r3, [fp, #-12]
3000eabc:	e283301a 	add	r3, r3, #26
3000eac0:	e1a00003 	mov	r0, r3
3000eac4:	e59f10ac 	ldr	r1, [pc, #172]	; 3000eb78 <tftp_send_request+0x2d8>
3000eac8:	e3a02004 	mov	r2, #4
3000eacc:	ebfff38c 	bl	3000b904 <memcpy>
3000ead0:	e51b300c 	ldr	r3, [fp, #-12]
3000ead4:	e283301e 	add	r3, r3, #30
3000ead8:	e1a00003 	mov	r0, r3
3000eadc:	e59f1098 	ldr	r1, [pc, #152]	; 3000eb7c <tftp_send_request+0x2dc>
3000eae0:	e3a02004 	mov	r2, #4
3000eae4:	ebfff386 	bl	3000b904 <memcpy>
3000eae8:	e51b200c 	ldr	r2, [fp, #-12]
3000eaec:	e3a03000 	mov	r3, #0
3000eaf0:	e1c231b8 	strh	r3, [r2, #24]
3000eaf4:	e51b0008 	ldr	r0, [fp, #-8]
3000eaf8:	e3a01014 	mov	r1, #20
3000eafc:	ebffff2f 	bl	3000e7c0 <checksum>
3000eb00:	e1a03000 	mov	r3, r0
3000eb04:	e1a02003 	mov	r2, r3
3000eb08:	e51b300c 	ldr	r3, [fp, #-12]
3000eb0c:	e1c321b8 	strh	r2, [r3, #24]
3000eb10:	e51b300c 	ldr	r3, [fp, #-12]
3000eb14:	e2833006 	add	r3, r3, #6
3000eb18:	e1a00003 	mov	r0, r3
3000eb1c:	e59f105c 	ldr	r1, [pc, #92]	; 3000eb80 <tftp_send_request+0x2e0>
3000eb20:	e3a02006 	mov	r2, #6
3000eb24:	ebfff376 	bl	3000b904 <memcpy>
3000eb28:	e51b300c 	ldr	r3, [fp, #-12]
3000eb2c:	e1a00003 	mov	r0, r3
3000eb30:	e59f104c 	ldr	r1, [pc, #76]	; 3000eb84 <tftp_send_request+0x2e4>
3000eb34:	e3a02006 	mov	r2, #6
3000eb38:	ebfff371 	bl	3000b904 <memcpy>
3000eb3c:	e51b200c 	ldr	r2, [fp, #-12]
3000eb40:	e3a03008 	mov	r3, #8
3000eb44:	e1c230bc 	strh	r3, [r2, #12]
3000eb48:	e51b200c 	ldr	r2, [fp, #-12]
3000eb4c:	e51b3010 	ldr	r3, [fp, #-16]
3000eb50:	e283302a 	add	r3, r3, #42	; 0x2a
3000eb54:	e1a00002 	mov	r0, r2
3000eb58:	e1a01003 	mov	r1, r3
3000eb5c:	ebffedf8 	bl	3000a344 <dm9000_tx>
3000eb60:	e24bd004 	sub	sp, fp, #4
3000eb64:	e8bd4800 	pop	{fp, lr}
3000eb68:	e12fff1e 	bx	lr
3000eb6c:	300112a0 	andcc	r1, r1, r0, lsr #5
3000eb70:	30010268 	andcc	r0, r1, r8, ror #4
3000eb74:	3001026c 	andcc	r0, r1, ip, ror #4
3000eb78:	3001029c 	mulcc	r1, ip, r2
3000eb7c:	300102a0 	andcc	r0, r1, r0, lsr #5
3000eb80:	30010296 	mulcc	r1, r6, r2
3000eb84:	30010290 	mulcc	r1, r0, r2

3000eb88 <tftp_send_ack>:
3000eb88:	e92d4800 	push	{fp, lr}
3000eb8c:	e28db004 	add	fp, sp, #4
3000eb90:	e24dd018 	sub	sp, sp, #24
3000eb94:	e1a03000 	mov	r3, r0
3000eb98:	e1a02001 	mov	r2, r1
3000eb9c:	e14b31b6 	strh	r3, [fp, #-22]	; 0xffffffea
3000eba0:	e14b21b8 	strh	r2, [fp, #-24]	; 0xffffffe8
3000eba4:	e59f324c 	ldr	r3, [pc, #588]	; 3000edf8 <tftp_send_ack+0x270>
3000eba8:	e50b3014 	str	r3, [fp, #-20]	; 0xffffffec
3000ebac:	e3a03000 	mov	r3, #0
3000ebb0:	e50b3010 	str	r3, [fp, #-16]
3000ebb4:	e51b2014 	ldr	r2, [fp, #-20]	; 0xffffffec
3000ebb8:	e3a03000 	mov	r3, #0
3000ebbc:	e5c23000 	strb	r3, [r2]
3000ebc0:	e51b3014 	ldr	r3, [fp, #-20]	; 0xffffffec
3000ebc4:	e2832001 	add	r2, r3, #1
3000ebc8:	e3a03004 	mov	r3, #4
3000ebcc:	e5c23000 	strb	r3, [r2]
3000ebd0:	e51b3010 	ldr	r3, [fp, #-16]
3000ebd4:	e2833002 	add	r3, r3, #2
3000ebd8:	e50b3010 	str	r3, [fp, #-16]
3000ebdc:	e51b3014 	ldr	r3, [fp, #-20]	; 0xffffffec
3000ebe0:	e2832002 	add	r2, r3, #2
3000ebe4:	e15b31b6 	ldrh	r3, [fp, #-22]	; 0xffffffea
3000ebe8:	e1a03423 	lsr	r3, r3, #8
3000ebec:	e1a03803 	lsl	r3, r3, #16
3000ebf0:	e1a03823 	lsr	r3, r3, #16
3000ebf4:	e20330ff 	and	r3, r3, #255	; 0xff
3000ebf8:	e5c23000 	strb	r3, [r2]
3000ebfc:	e51b3014 	ldr	r3, [fp, #-20]	; 0xffffffec
3000ec00:	e2832003 	add	r2, r3, #3
3000ec04:	e15b31b6 	ldrh	r3, [fp, #-22]	; 0xffffffea
3000ec08:	e20330ff 	and	r3, r3, #255	; 0xff
3000ec0c:	e5c23000 	strb	r3, [r2]
3000ec10:	e51b3010 	ldr	r3, [fp, #-16]
3000ec14:	e2833002 	add	r3, r3, #2
3000ec18:	e50b3010 	str	r3, [fp, #-16]
3000ec1c:	e51b3014 	ldr	r3, [fp, #-20]	; 0xffffffec
3000ec20:	e243302a 	sub	r3, r3, #42	; 0x2a
3000ec24:	e50b300c 	str	r3, [fp, #-12]
3000ec28:	e51b3014 	ldr	r3, [fp, #-20]	; 0xffffffec
3000ec2c:	e243301c 	sub	r3, r3, #28
3000ec30:	e50b3008 	str	r3, [fp, #-8]
3000ec34:	e51b200c 	ldr	r2, [fp, #-12]
3000ec38:	e3a03d4e 	mov	r3, #4992	; 0x1380
3000ec3c:	e283303f 	add	r3, r3, #63	; 0x3f
3000ec40:	e1c232b2 	strh	r3, [r2, #34]	; 0x22
3000ec44:	e51b200c 	ldr	r2, [fp, #-12]
3000ec48:	e15b31b8 	ldrh	r3, [fp, #-24]	; 0xffffffe8
3000ec4c:	e1c232b4 	strh	r3, [r2, #36]	; 0x24
3000ec50:	e51b3010 	ldr	r3, [fp, #-16]
3000ec54:	e1a03803 	lsl	r3, r3, #16
3000ec58:	e1a03823 	lsr	r3, r3, #16
3000ec5c:	e2833008 	add	r3, r3, #8
3000ec60:	e1a03803 	lsl	r3, r3, #16
3000ec64:	e1a03823 	lsr	r3, r3, #16
3000ec68:	e1a03403 	lsl	r3, r3, #8
3000ec6c:	e1a03803 	lsl	r3, r3, #16
3000ec70:	e1a02823 	lsr	r2, r3, #16
3000ec74:	e51b3010 	ldr	r3, [fp, #-16]
3000ec78:	e2833008 	add	r3, r3, #8
3000ec7c:	e2033cff 	and	r3, r3, #65280	; 0xff00
3000ec80:	e1a03423 	lsr	r3, r3, #8
3000ec84:	e1a03803 	lsl	r3, r3, #16
3000ec88:	e1a03823 	lsr	r3, r3, #16
3000ec8c:	e1823003 	orr	r3, r2, r3
3000ec90:	e1a03803 	lsl	r3, r3, #16
3000ec94:	e1a02823 	lsr	r2, r3, #16
3000ec98:	e51b300c 	ldr	r3, [fp, #-12]
3000ec9c:	e1c322b6 	strh	r2, [r3, #38]	; 0x26
3000eca0:	e51b200c 	ldr	r2, [fp, #-12]
3000eca4:	e3a03000 	mov	r3, #0
3000eca8:	e1c232b8 	strh	r3, [r2, #40]	; 0x28
3000ecac:	e51b200c 	ldr	r2, [fp, #-12]
3000ecb0:	e3a03045 	mov	r3, #69	; 0x45
3000ecb4:	e5c2300e 	strb	r3, [r2, #14]
3000ecb8:	e51b200c 	ldr	r2, [fp, #-12]
3000ecbc:	e3a03000 	mov	r3, #0
3000ecc0:	e5c2300f 	strb	r3, [r2, #15]
3000ecc4:	e51b3010 	ldr	r3, [fp, #-16]
3000ecc8:	e1a03803 	lsl	r3, r3, #16
3000eccc:	e1a03823 	lsr	r3, r3, #16
3000ecd0:	e283301c 	add	r3, r3, #28
3000ecd4:	e1a03803 	lsl	r3, r3, #16
3000ecd8:	e1a03823 	lsr	r3, r3, #16
3000ecdc:	e1a03403 	lsl	r3, r3, #8
3000ece0:	e1a03803 	lsl	r3, r3, #16
3000ece4:	e1a02823 	lsr	r2, r3, #16
3000ece8:	e51b3010 	ldr	r3, [fp, #-16]
3000ecec:	e283301c 	add	r3, r3, #28
3000ecf0:	e2033cff 	and	r3, r3, #65280	; 0xff00
3000ecf4:	e1a03423 	lsr	r3, r3, #8
3000ecf8:	e1a03803 	lsl	r3, r3, #16
3000ecfc:	e1a03823 	lsr	r3, r3, #16
3000ed00:	e1823003 	orr	r3, r2, r3
3000ed04:	e1a03803 	lsl	r3, r3, #16
3000ed08:	e1a02823 	lsr	r2, r3, #16
3000ed0c:	e51b300c 	ldr	r3, [fp, #-12]
3000ed10:	e1c321b0 	strh	r2, [r3, #16]
3000ed14:	e51b200c 	ldr	r2, [fp, #-12]
3000ed18:	e3a03000 	mov	r3, #0
3000ed1c:	e1c231b2 	strh	r3, [r2, #18]
3000ed20:	e51b200c 	ldr	r2, [fp, #-12]
3000ed24:	e3a03040 	mov	r3, #64	; 0x40
3000ed28:	e1c231b4 	strh	r3, [r2, #20]
3000ed2c:	e51b200c 	ldr	r2, [fp, #-12]
3000ed30:	e3e03000 	mvn	r3, #0
3000ed34:	e5c23016 	strb	r3, [r2, #22]
3000ed38:	e51b200c 	ldr	r2, [fp, #-12]
3000ed3c:	e3a03011 	mov	r3, #17
3000ed40:	e5c23017 	strb	r3, [r2, #23]
3000ed44:	e51b300c 	ldr	r3, [fp, #-12]
3000ed48:	e283301a 	add	r3, r3, #26
3000ed4c:	e1a00003 	mov	r0, r3
3000ed50:	e59f10a4 	ldr	r1, [pc, #164]	; 3000edfc <tftp_send_ack+0x274>
3000ed54:	e3a02004 	mov	r2, #4
3000ed58:	ebfff2e9 	bl	3000b904 <memcpy>
3000ed5c:	e51b300c 	ldr	r3, [fp, #-12]
3000ed60:	e283301e 	add	r3, r3, #30
3000ed64:	e1a00003 	mov	r0, r3
3000ed68:	e59f1090 	ldr	r1, [pc, #144]	; 3000ee00 <tftp_send_ack+0x278>
3000ed6c:	e3a02004 	mov	r2, #4
3000ed70:	ebfff2e3 	bl	3000b904 <memcpy>
3000ed74:	e51b200c 	ldr	r2, [fp, #-12]
3000ed78:	e3a03000 	mov	r3, #0
3000ed7c:	e1c231b8 	strh	r3, [r2, #24]
3000ed80:	e51b0008 	ldr	r0, [fp, #-8]
3000ed84:	e3a01014 	mov	r1, #20
3000ed88:	ebfffe8c 	bl	3000e7c0 <checksum>
3000ed8c:	e1a03000 	mov	r3, r0
3000ed90:	e1a02003 	mov	r2, r3
3000ed94:	e51b300c 	ldr	r3, [fp, #-12]
3000ed98:	e1c321b8 	strh	r2, [r3, #24]
3000ed9c:	e51b300c 	ldr	r3, [fp, #-12]
3000eda0:	e2833006 	add	r3, r3, #6
3000eda4:	e1a00003 	mov	r0, r3
3000eda8:	e59f1054 	ldr	r1, [pc, #84]	; 3000ee04 <tftp_send_ack+0x27c>
3000edac:	e3a02006 	mov	r2, #6
3000edb0:	ebfff2d3 	bl	3000b904 <memcpy>
3000edb4:	e51b300c 	ldr	r3, [fp, #-12]
3000edb8:	e1a00003 	mov	r0, r3
3000edbc:	e59f1044 	ldr	r1, [pc, #68]	; 3000ee08 <tftp_send_ack+0x280>
3000edc0:	e3a02006 	mov	r2, #6
3000edc4:	ebfff2ce 	bl	3000b904 <memcpy>
3000edc8:	e51b200c 	ldr	r2, [fp, #-12]
3000edcc:	e3a03008 	mov	r3, #8
3000edd0:	e1c230bc 	strh	r3, [r2, #12]
3000edd4:	e51b200c 	ldr	r2, [fp, #-12]
3000edd8:	e51b3010 	ldr	r3, [fp, #-16]
3000eddc:	e283302a 	add	r3, r3, #42	; 0x2a
3000ede0:	e1a00002 	mov	r0, r2
3000ede4:	e1a01003 	mov	r1, r3
3000ede8:	ebffed55 	bl	3000a344 <dm9000_tx>
3000edec:	e24bd004 	sub	sp, fp, #4
3000edf0:	e8bd4800 	pop	{fp, lr}
3000edf4:	e12fff1e 	bx	lr
3000edf8:	300112a0 	andcc	r1, r1, r0, lsr #5
3000edfc:	3001029c 	mulcc	r1, ip, r2
3000ee00:	300102a0 	andcc	r0, r1, r0, lsr #5
3000ee04:	30010296 	mulcc	r1, r6, r2
3000ee08:	30010290 	mulcc	r1, r0, r2

3000ee0c <tftp_process>:
3000ee0c:	e92d4800 	push	{fp, lr}
3000ee10:	e28db004 	add	fp, sp, #4
3000ee14:	e24dd018 	sub	sp, sp, #24
3000ee18:	e50b0018 	str	r0, [fp, #-24]	; 0xffffffe8
3000ee1c:	e1a03001 	mov	r3, r1
3000ee20:	e14b31ba 	strh	r3, [fp, #-26]	; 0xffffffe6
3000ee24:	e14b21bc 	strh	r2, [fp, #-28]	; 0xffffffe4
3000ee28:	e3a03202 	mov	r3, #536870912	; 0x20000000
3000ee2c:	e2833902 	add	r3, r3, #32768	; 0x8000
3000ee30:	e50b300c 	str	r3, [fp, #-12]
3000ee34:	e51b3018 	ldr	r3, [fp, #-24]	; 0xffffffe8
3000ee38:	e283302a 	add	r3, r3, #42	; 0x2a
3000ee3c:	e50b3008 	str	r3, [fp, #-8]
3000ee40:	e15b31ba 	ldrh	r3, [fp, #-26]	; 0xffffffe6
3000ee44:	e243302a 	sub	r3, r3, #42	; 0x2a
3000ee48:	e50b3010 	str	r3, [fp, #-16]
3000ee4c:	e51b3008 	ldr	r3, [fp, #-8]
3000ee50:	e1d330b0 	ldrh	r3, [r3]
3000ee54:	e1a03403 	lsl	r3, r3, #8
3000ee58:	e1a02803 	lsl	r2, r3, #16
3000ee5c:	e1a02822 	lsr	r2, r2, #16
3000ee60:	e51b3008 	ldr	r3, [fp, #-8]
3000ee64:	e1d330b0 	ldrh	r3, [r3]
3000ee68:	e1a03423 	lsr	r3, r3, #8
3000ee6c:	e1a03803 	lsl	r3, r3, #16
3000ee70:	e1a03823 	lsr	r3, r3, #16
3000ee74:	e1823003 	orr	r3, r2, r3
3000ee78:	e3530003 	cmp	r3, #3
3000ee7c:	1a00004e 	bne	3000efbc <tftp_process+0x1b0>
3000ee80:	e51b3008 	ldr	r3, [fp, #-8]
3000ee84:	e1d330b2 	ldrh	r3, [r3, #2]
3000ee88:	e1a03403 	lsl	r3, r3, #8
3000ee8c:	e1a02803 	lsl	r2, r3, #16
3000ee90:	e1a02822 	lsr	r2, r2, #16
3000ee94:	e51b3008 	ldr	r3, [fp, #-8]
3000ee98:	e1d330b2 	ldrh	r3, [r3, #2]
3000ee9c:	e1a03423 	lsr	r3, r3, #8
3000eea0:	e1a03803 	lsl	r3, r3, #16
3000eea4:	e1a03823 	lsr	r3, r3, #16
3000eea8:	e1822003 	orr	r2, r2, r3
3000eeac:	e59f3114 	ldr	r3, [pc, #276]	; 3000efc8 <tftp_process+0x1bc>
3000eeb0:	e1d330b0 	ldrh	r3, [r3]
3000eeb4:	e1520003 	cmp	r2, r3
3000eeb8:	1a00003f 	bne	3000efbc <tftp_process+0x1b0>
3000eebc:	e59f3104 	ldr	r3, [pc, #260]	; 3000efc8 <tftp_process+0x1bc>
3000eec0:	e1d330b0 	ldrh	r3, [r3]
3000eec4:	e2833601 	add	r3, r3, #1048576	; 0x100000
3000eec8:	e283303f 	add	r3, r3, #63	; 0x3f
3000eecc:	e1a03483 	lsl	r3, r3, #9
3000eed0:	e50b300c 	str	r3, [fp, #-12]
3000eed4:	e3a03000 	mov	r3, #0
3000eed8:	e50b3014 	str	r3, [fp, #-20]	; 0xffffffec
3000eedc:	ea00000c 	b	3000ef14 <tftp_process+0x108>
3000eee0:	e51b3008 	ldr	r3, [fp, #-8]
3000eee4:	e2832004 	add	r2, r3, #4
3000eee8:	e51b3014 	ldr	r3, [fp, #-20]	; 0xffffffec
3000eeec:	e0823003 	add	r3, r2, r3
3000eef0:	e5d33000 	ldrb	r3, [r3]
3000eef4:	e51b200c 	ldr	r2, [fp, #-12]
3000eef8:	e5c23000 	strb	r3, [r2]
3000eefc:	e51b300c 	ldr	r3, [fp, #-12]
3000ef00:	e2833001 	add	r3, r3, #1
3000ef04:	e50b300c 	str	r3, [fp, #-12]
3000ef08:	e51b3014 	ldr	r3, [fp, #-20]	; 0xffffffec
3000ef0c:	e2833001 	add	r3, r3, #1
3000ef10:	e50b3014 	str	r3, [fp, #-20]	; 0xffffffec
3000ef14:	e51b3010 	ldr	r3, [fp, #-16]
3000ef18:	e2432004 	sub	r2, r3, #4
3000ef1c:	e51b3014 	ldr	r3, [fp, #-20]	; 0xffffffec
3000ef20:	e1520003 	cmp	r2, r3
3000ef24:	8affffed 	bhi	3000eee0 <tftp_process+0xd4>
3000ef28:	e51b3008 	ldr	r3, [fp, #-8]
3000ef2c:	e1d330b2 	ldrh	r3, [r3, #2]
3000ef30:	e1a03403 	lsl	r3, r3, #8
3000ef34:	e1a03803 	lsl	r3, r3, #16
3000ef38:	e1a02823 	lsr	r2, r3, #16
3000ef3c:	e51b3008 	ldr	r3, [fp, #-8]
3000ef40:	e1d330b2 	ldrh	r3, [r3, #2]
3000ef44:	e1a03423 	lsr	r3, r3, #8
3000ef48:	e1a03803 	lsl	r3, r3, #16
3000ef4c:	e1a03823 	lsr	r3, r3, #16
3000ef50:	e1823003 	orr	r3, r2, r3
3000ef54:	e1a03803 	lsl	r3, r3, #16
3000ef58:	e1a03823 	lsr	r3, r3, #16
3000ef5c:	e1a03803 	lsl	r3, r3, #16
3000ef60:	e1a03823 	lsr	r3, r3, #16
3000ef64:	e15b21bc 	ldrh	r2, [fp, #-28]	; 0xffffffe4
3000ef68:	e1a00003 	mov	r0, r3
3000ef6c:	e1a01002 	mov	r1, r2
3000ef70:	ebffff04 	bl	3000eb88 <tftp_send_ack>
3000ef74:	e59f304c 	ldr	r3, [pc, #76]	; 3000efc8 <tftp_process+0x1bc>
3000ef78:	e1d330b0 	ldrh	r3, [r3]
3000ef7c:	e2833001 	add	r3, r3, #1
3000ef80:	e1a03803 	lsl	r3, r3, #16
3000ef84:	e1a02823 	lsr	r2, r3, #16
3000ef88:	e59f3038 	ldr	r3, [pc, #56]	; 3000efc8 <tftp_process+0x1bc>
3000ef8c:	e1c320b0 	strh	r2, [r3]
3000ef90:	e51b3010 	ldr	r3, [fp, #-16]
3000ef94:	e2432004 	sub	r2, r3, #4
3000ef98:	e3a03f7f 	mov	r3, #508	; 0x1fc
3000ef9c:	e2833003 	add	r3, r3, #3
3000efa0:	e1520003 	cmp	r2, r3
3000efa4:	8a000004 	bhi	3000efbc <tftp_process+0x1b0>
3000efa8:	e59f3018 	ldr	r3, [pc, #24]	; 3000efc8 <tftp_process+0x1bc>
3000efac:	e3a02001 	mov	r2, #1
3000efb0:	e1c320b0 	strh	r2, [r3]
3000efb4:	e59f0010 	ldr	r0, [pc, #16]	; 3000efcc <tftp_process+0x1c0>
3000efb8:	ebffef2d 	bl	3000ac74 <printf>
3000efbc:	e24bd004 	sub	sp, fp, #4
3000efc0:	e8bd4800 	pop	{fp, lr}
3000efc4:	e12fff1e 	bx	lr
3000efc8:	300103a8 	andcc	r0, r1, r8, lsr #7
3000efcc:	30010274 	andcc	r0, r1, r4, ror r2

Disassembly of section .rodata:

3000efd0 <fontdata_8x16-0x1e0>:
3000efd0:	73726946 	cmnvc	r2, #1146880	; 0x118000
3000efd4:	72772074 	rsbsvc	r2, r7, #116	; 0x74
3000efd8:	20657469 	rsbcs	r7, r5, r9, ror #8
3000efdc:	72646461 	rsbvc	r6, r4, #1627389952	; 0x61000000
3000efe0:	20737365 	rsbscs	r7, r3, r5, ror #6
3000efe4:	3020666f 	eorcc	r6, r0, pc, ror #12
3000efe8:	002c3078 	eoreq	r3, ip, r8, ror r0
3000efec:	20656874 	rsbcs	r6, r5, r4, ror r8
3000eff0:	756c6176 	strbvc	r6, [ip, #-374]!	; 0xfffffe8a
3000eff4:	6e692065 	cdpvs	0, 6, cr2, cr9, cr5, {3}
3000eff8:	64646120 	strbtvs	r6, [r4], #-288	; 0xfffffee0
3000effc:	73736572 	cmnvc	r3, #478150656	; 0x1c800000
3000f000:	30783020 	rsbscc	r3, r8, r0, lsr #32
3000f004:	25203d20 	strcs	r3, [r0, #-3360]!	; 0xfffff2e0
3000f008:	000a0d78 	andeq	r0, sl, r8, ror sp
3000f00c:	6f636553 	svcvs	0x00636553
3000f010:	7720646e 	strvc	r6, [r0, -lr, ror #8]!
3000f014:	65746972 	ldrbvs	r6, [r4, #-2418]!	; 0xfffff68e
3000f018:	64646120 	strbtvs	r6, [r4], #-288	; 0xfffffee0
3000f01c:	73736572 	cmnvc	r3, #478150656	; 0x1c800000
3000f020:	20666f20 	rsbcs	r6, r6, r0, lsr #30
3000f024:	2c317830 	ldccs	8, cr7, [r1], #-192	; 0xffffff40
3000f028:	00000000 	andeq	r0, r0, r0
3000f02c:	20656874 	rsbcs	r6, r5, r4, ror r8
3000f030:	756c6176 	strbvc	r6, [ip, #-374]!	; 0xfffffe8a
3000f034:	6e692065 	cdpvs	0, 6, cr2, cr9, cr5, {3}
3000f038:	64646120 	strbtvs	r6, [r4], #-288	; 0xfffffee0
3000f03c:	73736572 	cmnvc	r3, #478150656	; 0x1c800000
3000f040:	31783020 	cmncc	r8, r0, lsr #32
3000f044:	25203d20 	strcs	r3, [r0, #-3360]!	; 0xfffff2e0
3000f048:	000a0d78 	andeq	r0, sl, r8, ror sp
3000f04c:	00000a0d 	andeq	r0, r0, sp, lsl #20
3000f050:	3d3d3d3d 	ldccc	13, cr3, [sp, #-244]!	; 0xffffff0c
3000f054:	3d3d3d3d 	ldccc	13, cr3, [sp, #-244]!	; 0xffffff0c
3000f058:	6f42203d 	svcvs	0x0042203d
3000f05c:	6620746f 	strtvs	r7, [r0], -pc, ror #8
3000f060:	5320726f 			; <UNDEFINED> instruction: 0x5320726f
3000f064:	32767035 	rsbscc	r7, r6, #53	; 0x35
3000f068:	4d203031 	stcmi	0, cr3, [r0, #-196]!	; 0xffffff3c
3000f06c:	206e6961 	rsbcs	r6, lr, r1, ror #18
3000f070:	756e654d 	strbvc	r6, [lr, #-1357]!	; 0xfffffab3
3000f074:	3d3d3d20 	ldccc	13, cr3, [sp, #-128]!	; 0xffffff80
3000f078:	3d3d3d3d 	ldccc	13, cr3, [sp, #-244]!	; 0xffffff0c
3000f07c:	0a0d3d3d 	beq	3035e578 <bss_end+0x34cfa0>
3000f080:	00000000 	andeq	r0, r0, r0
3000f084:	3d3d3d3d 	ldccc	13, cr3, [sp, #-244]!	; 0xffffff0c
3000f088:	3d3d3d3d 	ldccc	13, cr3, [sp, #-244]!	; 0xffffff0c
3000f08c:	6420203d 	strtvs	r2, [r0], #-61	; 0xffffffc3
3000f090:	67697365 	strbvs	r7, [r9, -r5, ror #6]!
3000f094:	2064656e 	rsbcs	r6, r4, lr, ror #10
3000f098:	4b207962 	blmi	3082d628 <bss_end+0x81c050>
3000f09c:	66676e75 			; <UNDEFINED> instruction: 0x66676e75
3000f0a0:	6e6f4d75 	mcrvs	13, 3, r4, cr15, cr5, {3}
3000f0a4:	2079656b 	rsbscs	r6, r9, fp, ror #10
3000f0a8:	3d3d3d20 	ldccc	13, cr3, [sp, #-128]!	; 0xffffff80
3000f0ac:	3d3d3d3d 	ldccc	13, cr3, [sp, #-244]!	; 0xffffff0c
3000f0b0:	0a0d3d3d 	beq	3035e5ac <bss_end+0x34cfd4>
3000f0b4:	00000000 	andeq	r0, r0, r0
3000f0b8:	52412e31 	subpl	r2, r1, #784	; 0x310
3000f0bc:	65522050 	ldrbvs	r2, [r2, #-80]	; 0xffffffb0
3000f0c0:	73657571 	cmnvc	r5, #473956352	; 0x1c400000
3000f0c4:	6f662074 	svcvs	0x00662074
3000f0c8:	43502072 	cmpmi	r0, #114	; 0x72
3000f0cc:	43414d20 	movtmi	r4, #7456	; 0x1d20
3000f0d0:	00000a0d 	andeq	r0, r0, sp, lsl #20
3000f0d4:	6f442e32 	svcvs	0x00442e32
3000f0d8:	6f6c6e77 	svcvs	0x006c6e77
3000f0dc:	4c206461 	cfstrsmi	mvf6, [r0], #-388	; 0xfffffe7c
3000f0e0:	78756e69 	ldmdavc	r5!, {r0, r3, r5, r6, r9, sl, fp, sp, lr}^
3000f0e4:	72654b20 	rsbvc	r4, r5, #32, 22	; 0x8000
3000f0e8:	206c656e 	rsbcs	r6, ip, lr, ror #10
3000f0ec:	53206f74 			; <UNDEFINED> instruction: 0x53206f74
3000f0f0:	4d415244 	sfmmi	f5, 2, [r1, #-272]	; 0xfffffef0
3000f0f4:	00000a0d 	andeq	r0, r0, sp, lsl #20
3000f0f8:	75522e33 	ldrbvc	r2, [r2, #-3635]	; 0xfffff1cd
3000f0fc:	6874206e 	ldmdavs	r4!, {r1, r2, r3, r5, r6, sp}^
3000f100:	696c2065 	stmdbvs	ip!, {r0, r2, r5, r6, sp}^
3000f104:	0d78756e 	cfldr64eq	mvdx7, [r8, #-440]!	; 0xfffffe48
3000f108:	0000000a 	andeq	r0, r0, sl
3000f10c:	0a0d6425 	beq	303681a8 <bss_end+0x356bd0>
3000f110:	00000000 	andeq	r0, r0, r0
3000f114:	616d497a 	smcvs	54426	; 0xd49a
3000f118:	00006567 	andeq	r6, r0, r7, ror #10
3000f11c:	6f727245 	svcvs	0x00727245
3000f120:	77203a72 			; <UNDEFINED> instruction: 0x77203a72
3000f124:	676e6f72 			; <UNDEFINED> instruction: 0x676e6f72
3000f128:	6c657320 	stclvs	3, cr7, [r5], #-128	; 0xffffff80
3000f12c:	69746365 	ldmdbvs	r4!, {r0, r2, r5, r6, r8, r9, sp, lr}^
3000f130:	0d216e6f 	stceq	14, cr6, [r1, #-444]!	; 0xfffffe44
3000f134:	0000000a 	andeq	r0, r0, sl
3000f138:	736e6f63 	cmnvc	lr, #396	; 0x18c
3000f13c:	3d656c6f 	stclcc	12, cr6, [r5, #-444]!	; 0xfffffe44
3000f140:	53797474 	cmnpl	r9, #116, 8	; 0x74000000
3000f144:	2c304341 	ldccs	3, cr4, [r0], #-260	; 0xfffffefc
3000f148:	32353131 	eorscc	r3, r5, #1073741836	; 0x4000000c
3000f14c:	00003030 	andeq	r3, r0, r0, lsr r0
3000f150:	65726f63 	ldrbvs	r6, [r2, #-3939]!	; 0xfffff09d
3000f154:	67726120 	ldrbvs	r6, [r2, -r0, lsr #2]!
3000f158:	6f642073 	svcvs	0x00642073
3000f15c:	0d21656e 	cfstr32eq	mvfx6, [r1, #-440]!	; 0xfffffe48
3000f160:	0000000a 	andeq	r0, r0, sl
3000f164:	206d656d 	rsbcs	r6, sp, sp, ror #10
3000f168:	73677261 	cmnvc	r7, #268435462	; 0x10000006
3000f16c:	6e6f6420 	cdpvs	4, 6, cr6, cr15, cr0, {1}
3000f170:	0a0d2165 	beq	3035770c <bss_end+0x346134>
3000f174:	00000000 	andeq	r0, r0, r0
3000f178:	20646d63 	rsbcs	r6, r4, r3, ror #26
3000f17c:	73677261 	cmnvc	r7, #268435462	; 0x10000006
3000f180:	6e6f6420 	cdpvs	4, 6, cr6, cr15, cr0, {1}
3000f184:	0a0d2165 	beq	30357720 <bss_end+0x346148>
3000f188:	00000000 	andeq	r0, r0, r0
3000f18c:	20646e65 	rsbcs	r6, r4, r5, ror #28
3000f190:	73677261 	cmnvc	r7, #268435462	; 0x10000006
3000f194:	000a0d21 	andeq	r0, sl, r1, lsr #26
3000f198:	746f6f62 	strbtvc	r6, [pc], #-3938	; 3000f1a0 <tftp_process+0x394>
3000f19c:	20676e69 	rsbcs	r6, r7, r9, ror #28
3000f1a0:	20656874 	rsbcs	r6, r5, r4, ror r8
3000f1a4:	6e72656b 	cdpvs	5, 7, cr6, cr2, cr11, {3}
3000f1a8:	0d216c65 	stceq	12, cr6, [r1, #-404]!	; 0xfffffe6c
3000f1ac:	0000000a 	andeq	r0, r0, sl

3000f1b0 <fontdata_8x16>:
	...
3000f1c0:	817e0000 	cmnhi	lr, r0
3000f1c4:	bd8181a5 	stfltd	f0, [r1, #660]	; 0x294
3000f1c8:	7e818199 	mcrvc	1, 4, r8, cr1, cr9, {4}
3000f1cc:	00000000 	andeq	r0, r0, r0
3000f1d0:	ff7e0000 			; <UNDEFINED> instruction: 0xff7e0000
3000f1d4:	c3ffffdb 	mvnsgt	pc, #876	; 0x36c
3000f1d8:	7effffe7 	cdpvc	15, 15, cr15, cr15, cr7, {7}
	...
3000f1e4:	fefefe6c 	cdp2	14, 15, cr15, cr14, cr12, {3}
3000f1e8:	10387cfe 	ldrshtne	r7, [r8], -lr
	...
3000f1f4:	fe7c3810 	vfmab.bf16	<illegal reg q9.5>, q6, d0[0]
3000f1f8:	0010387c 	andseq	r3, r0, ip, ror r8
3000f1fc:	00000000 	andeq	r0, r0, r0
3000f200:	18000000 	stmdane	r0, {}	; <UNPREDICTABLE>
3000f204:	e7e73c3c 			; <UNDEFINED> instruction: 0xe7e73c3c
3000f208:	3c1818e7 	ldccc	8, cr1, [r8], {231}	; 0xe7
3000f20c:	00000000 	andeq	r0, r0, r0
3000f210:	18000000 	stmdane	r0, {}	; <UNPREDICTABLE>
3000f214:	ffff7e3c 			; <UNDEFINED> instruction: 0xffff7e3c
3000f218:	3c18187e 	ldccc	8, cr1, [r8], {126}	; 0x7e
	...
3000f224:	3c180000 	ldccc	0, cr0, [r8], {-0}
3000f228:	0000183c 	andeq	r1, r0, ip, lsr r8
3000f22c:	00000000 	andeq	r0, r0, r0
3000f230:	ffffffff 			; <UNDEFINED> instruction: 0xffffffff
3000f234:	c3e7ffff 	mvngt	pc, #1020	; 0x3fc
3000f238:	ffffe7c3 			; <UNDEFINED> instruction: 0xffffe7c3
3000f23c:	ffffffff 			; <UNDEFINED> instruction: 0xffffffff
3000f240:	00000000 	andeq	r0, r0, r0
3000f244:	42663c00 	rsbmi	r3, r6, #0, 24
3000f248:	003c6642 	eorseq	r6, ip, r2, asr #12
3000f24c:	00000000 	andeq	r0, r0, r0
3000f250:	ffffffff 			; <UNDEFINED> instruction: 0xffffffff
3000f254:	bd99c3ff 	ldclt	3, cr12, [r9, #1020]	; 0x3fc
3000f258:	ffc399bd 			; <UNDEFINED> instruction: 0xffc399bd
3000f25c:	ffffffff 			; <UNDEFINED> instruction: 0xffffffff
3000f260:	0e1e0000 	cdpeq	0, 1, cr0, cr14, cr0, {0}
3000f264:	cc78321a 	lfmgt	f3, 2, [r8], #-104	; 0xffffff98
3000f268:	78cccccc 	stmiavc	ip, {r2, r3, r6, r7, sl, fp, lr, pc}^
3000f26c:	00000000 	andeq	r0, r0, r0
3000f270:	663c0000 	ldrtvs	r0, [ip], -r0
3000f274:	3c666666 	stclcc	6, cr6, [r6], #-408	; 0xfffffe68
3000f278:	18187e18 	ldmdane	r8, {r3, r4, r9, sl, fp, ip, sp, lr}
3000f27c:	00000000 	andeq	r0, r0, r0
3000f280:	333f0000 	teqcc	pc, #0
3000f284:	3030303f 	eorscc	r3, r0, pc, lsr r0
3000f288:	e0f07030 	rscs	r7, r0, r0, lsr r0
3000f28c:	00000000 	andeq	r0, r0, r0
3000f290:	637f0000 	cmnvs	pc, #0
3000f294:	6363637f 	cmnvs	r3, #-67108863	; 0xfc000001
3000f298:	e6e76763 	strbt	r6, [r7], r3, ror #14
3000f29c:	000000c0 	andeq	r0, r0, r0, asr #1
3000f2a0:	18000000 	stmdane	r0, {}	; <UNPREDICTABLE>
3000f2a4:	e73cdb18 			; <UNDEFINED> instruction: 0xe73cdb18
3000f2a8:	1818db3c 	ldmdane	r8, {r2, r3, r4, r5, r8, r9, fp, ip, lr, pc}
3000f2ac:	00000000 	andeq	r0, r0, r0
3000f2b0:	e0c08000 	sbc	r8, r0, r0
3000f2b4:	f8fef8f0 			; <UNDEFINED> instruction: 0xf8fef8f0
3000f2b8:	80c0e0f0 	strdhi	lr, [r0], #0
3000f2bc:	00000000 	andeq	r0, r0, r0
3000f2c0:	0e060200 	cdpeq	2, 0, cr0, cr6, cr0, {0}
3000f2c4:	3efe3e1e 	mrccc	14, 7, r3, cr14, cr14, {0}
3000f2c8:	02060e1e 	andeq	r0, r6, #480	; 0x1e0
3000f2cc:	00000000 	andeq	r0, r0, r0
3000f2d0:	3c180000 	ldccc	0, cr0, [r8], {-0}
3000f2d4:	1818187e 	ldmdane	r8, {r1, r2, r3, r4, r5, r6, fp, ip}
3000f2d8:	00183c7e 	andseq	r3, r8, lr, ror ip
3000f2dc:	00000000 	andeq	r0, r0, r0
3000f2e0:	66660000 	strbtvs	r0, [r6], -r0
3000f2e4:	66666666 	strbtvs	r6, [r6], -r6, ror #12
3000f2e8:	66660066 	strbtvs	r0, [r6], -r6, rrx
3000f2ec:	00000000 	andeq	r0, r0, r0
3000f2f0:	db7f0000 	blle	31fcf2f8 <bss_end+0x1fbdd20>
3000f2f4:	1b7bdbdb 	blne	31f06268 <bss_end+0x1ef4c90>
3000f2f8:	1b1b1b1b 	blne	306d5f6c <bss_end+0x6c4994>
3000f2fc:	00000000 	andeq	r0, r0, r0
3000f300:	60c67c00 	sbcvs	r7, r6, r0, lsl #24
3000f304:	c6c66c38 			; <UNDEFINED> instruction: 0xc6c66c38
3000f308:	c60c386c 	strgt	r3, [ip], -ip, ror #16
3000f30c:	0000007c 	andeq	r0, r0, ip, ror r0
	...
3000f318:	fefefefe 	mrc2	14, 7, pc, cr14, cr14, {7}
3000f31c:	00000000 	andeq	r0, r0, r0
3000f320:	3c180000 	ldccc	0, cr0, [r8], {-0}
3000f324:	1818187e 	ldmdane	r8, {r1, r2, r3, r4, r5, r6, fp, ip}
3000f328:	7e183c7e 	mrcvc	12, 0, r3, cr8, cr14, {3}
3000f32c:	00000000 	andeq	r0, r0, r0
3000f330:	3c180000 	ldccc	0, cr0, [r8], {-0}
3000f334:	1818187e 	ldmdane	r8, {r1, r2, r3, r4, r5, r6, fp, ip}
3000f338:	18181818 	ldmdane	r8, {r3, r4, fp, ip}
3000f33c:	00000000 	andeq	r0, r0, r0
3000f340:	18180000 	ldmdane	r8, {}	; <UNPREDICTABLE>
3000f344:	18181818 	ldmdane	r8, {r3, r4, fp, ip}
3000f348:	183c7e18 	ldmdane	ip!, {r3, r4, r9, sl, fp, ip, sp, lr}
	...
3000f354:	fe0c1800 	vcmla.f16	d1, d12, d0[0], #0
3000f358:	0000180c 	andeq	r1, r0, ip, lsl #16
	...
3000f364:	fe603000 	cdp2	0, 6, cr3, cr0, cr0, {0}
3000f368:	00003060 	andeq	r3, r0, r0, rrx
	...
3000f374:	c0c00000 	sbcgt	r0, r0, r0
3000f378:	0000fec0 	andeq	pc, r0, r0, asr #29
	...
3000f384:	fe6c2800 	vcmla.f16	d18, d12, d0[0], #180
3000f388:	0000286c 	andeq	r2, r0, ip, ror #16
	...
3000f394:	7c383810 	ldcvc	8, cr3, [r8], #-64	; 0xffffffc0
3000f398:	00fefe7c 	rscseq	pc, lr, ip, ror lr	; <UNPREDICTABLE>
	...
3000f3a4:	7c7cfefe 	ldclvc	14, cr15, [ip], #-1016	; 0xfffffc08
3000f3a8:	00103838 	andseq	r3, r0, r8, lsr r8
	...
3000f3c0:	3c180000 	ldccc	0, cr0, [r8], {-0}
3000f3c4:	18183c3c 	ldmdane	r8, {r2, r3, r4, r5, sl, fp, ip, sp}
3000f3c8:	18180018 	ldmdane	r8, {r3, r4}
3000f3cc:	00000000 	andeq	r0, r0, r0
3000f3d0:	66666600 	strbtvs	r6, [r6], -r0, lsl #12
3000f3d4:	00000024 	andeq	r0, r0, r4, lsr #32
	...
3000f3e0:	6c000000 	stcvs	0, cr0, [r0], {-0}
3000f3e4:	6c6cfe6c 	stclvs	14, cr15, [ip], #-432	; 0xfffffe50
3000f3e8:	6c6cfe6c 	stclvs	14, cr15, [ip], #-432	; 0xfffffe50
3000f3ec:	00000000 	andeq	r0, r0, r0
3000f3f0:	c67c1818 			; <UNDEFINED> instruction: 0xc67c1818
3000f3f4:	067cc0c2 	ldrbteq	ip, [ip], -r2, asr #1
3000f3f8:	7cc68606 	stclvc	6, cr8, [r6], {6}
3000f3fc:	00001818 	andeq	r1, r0, r8, lsl r8
3000f400:	00000000 	andeq	r0, r0, r0
3000f404:	180cc6c2 	stmdane	ip, {r1, r6, r7, r9, sl, lr, pc}
3000f408:	86c66030 			; <UNDEFINED> instruction: 0x86c66030
3000f40c:	00000000 	andeq	r0, r0, r0
3000f410:	6c380000 	ldcvs	0, cr0, [r8], #-0
3000f414:	dc76386c 	ldclle	8, cr3, [r6], #-432	; 0xfffffe50
3000f418:	76cccccc 	strbvc	ip, [ip], ip, asr #25
3000f41c:	00000000 	andeq	r0, r0, r0
3000f420:	30303000 	eorscc	r3, r0, r0
3000f424:	00000060 	andeq	r0, r0, r0, rrx
	...
3000f430:	180c0000 	stmdane	ip, {}	; <UNPREDICTABLE>
3000f434:	30303030 	eorscc	r3, r0, r0, lsr r0
3000f438:	0c183030 	ldceq	0, cr3, [r8], {48}	; 0x30
3000f43c:	00000000 	andeq	r0, r0, r0
3000f440:	18300000 	ldmdane	r0!, {}	; <UNPREDICTABLE>
3000f444:	0c0c0c0c 	stceq	12, cr0, [ip], {12}
3000f448:	30180c0c 	andscc	r0, r8, ip, lsl #24
	...
3000f454:	ff3c6600 			; <UNDEFINED> instruction: 0xff3c6600
3000f458:	0000663c 	andeq	r6, r0, ip, lsr r6
	...
3000f464:	7e181800 	cdpvc	8, 1, cr1, cr8, cr0, {0}
3000f468:	00001818 	andeq	r1, r0, r8, lsl r8
	...
3000f478:	18181800 	ldmdane	r8, {fp, ip}
3000f47c:	00000030 	andeq	r0, r0, r0, lsr r0
3000f480:	00000000 	andeq	r0, r0, r0
3000f484:	fe000000 	cdp2	0, 0, cr0, cr0, cr0, {0}
	...
3000f498:	18180000 	ldmdane	r8, {}	; <UNPREDICTABLE>
	...
3000f4a4:	180c0602 	stmdane	ip, {r1, r9, sl}
3000f4a8:	80c06030 	sbchi	r6, r0, r0, lsr r0
3000f4ac:	00000000 	andeq	r0, r0, r0
3000f4b0:	6c380000 	ldcvs	0, cr0, [r8], #-0
3000f4b4:	d6d6c6c6 	ldrble	ip, [r6], r6, asr #13
3000f4b8:	386cc6c6 	stmdacc	ip!, {r1, r2, r6, r7, r9, sl, lr, pc}^
3000f4bc:	00000000 	andeq	r0, r0, r0
3000f4c0:	38180000 	ldmdacc	r8, {}	; <UNPREDICTABLE>
3000f4c4:	18181878 	ldmdane	r8, {r3, r4, r5, r6, fp, ip}
3000f4c8:	7e181818 	mrcvc	8, 0, r1, cr8, cr8, {0}
3000f4cc:	00000000 	andeq	r0, r0, r0
3000f4d0:	c67c0000 	ldrbtgt	r0, [ip], -r0
3000f4d4:	30180c06 	andscc	r0, r8, r6, lsl #24
3000f4d8:	fec6c060 	cdp2	0, 12, cr12, cr6, cr0, {3}
3000f4dc:	00000000 	andeq	r0, r0, r0
3000f4e0:	c67c0000 	ldrbtgt	r0, [ip], -r0
3000f4e4:	063c0606 	ldrteq	r0, [ip], -r6, lsl #12
3000f4e8:	7cc60606 	stclvc	6, cr0, [r6], {6}
3000f4ec:	00000000 	andeq	r0, r0, r0
3000f4f0:	1c0c0000 	stcne	0, cr0, [ip], {-0}
3000f4f4:	fecc6c3c 	mcr2	12, 6, r6, cr12, cr12, {1}
3000f4f8:	1e0c0c0c 	cdpne	12, 0, cr0, cr12, cr12, {0}
3000f4fc:	00000000 	andeq	r0, r0, r0
3000f500:	c0fe0000 	rscsgt	r0, lr, r0
3000f504:	06fcc0c0 	ldrbteq	ip, [ip], r0, asr #1
3000f508:	7cc60606 	stclvc	6, cr0, [r6], {6}
3000f50c:	00000000 	andeq	r0, r0, r0
3000f510:	60380000 	eorsvs	r0, r8, r0
3000f514:	c6fcc0c0 	ldrbtgt	ip, [ip], r0, asr #1
3000f518:	7cc6c6c6 	stclvc	6, cr12, [r6], {198}	; 0xc6
3000f51c:	00000000 	andeq	r0, r0, r0
3000f520:	c6fe0000 	ldrbtgt	r0, [lr], r0
3000f524:	180c0606 	stmdane	ip, {r1, r2, r9, sl}
3000f528:	30303030 	eorscc	r3, r0, r0, lsr r0
3000f52c:	00000000 	andeq	r0, r0, r0
3000f530:	c67c0000 	ldrbtgt	r0, [ip], -r0
3000f534:	c67cc6c6 	ldrbtgt	ip, [ip], -r6, asr #13
3000f538:	7cc6c6c6 	stclvc	6, cr12, [r6], {198}	; 0xc6
3000f53c:	00000000 	andeq	r0, r0, r0
3000f540:	c67c0000 	ldrbtgt	r0, [ip], -r0
3000f544:	067ec6c6 	ldrbteq	ip, [lr], -r6, asr #13
3000f548:	780c0606 	stmdavc	ip, {r1, r2, r9, sl}
	...
3000f554:	00001818 	andeq	r1, r0, r8, lsl r8
3000f558:	00181800 	andseq	r1, r8, r0, lsl #16
	...
3000f564:	00001818 	andeq	r1, r0, r8, lsl r8
3000f568:	30181800 	andscc	r1, r8, r0, lsl #16
3000f56c:	00000000 	andeq	r0, r0, r0
3000f570:	06000000 	streq	r0, [r0], -r0
3000f574:	6030180c 	eorsvs	r1, r0, ip, lsl #16
3000f578:	060c1830 			; <UNDEFINED> instruction: 0x060c1830
	...
3000f584:	00007e00 	andeq	r7, r0, r0, lsl #28
3000f588:	0000007e 	andeq	r0, r0, lr, ror r0
3000f58c:	00000000 	andeq	r0, r0, r0
3000f590:	60000000 	andvs	r0, r0, r0
3000f594:	060c1830 			; <UNDEFINED> instruction: 0x060c1830
3000f598:	6030180c 	eorsvs	r1, r0, ip, lsl #16
3000f59c:	00000000 	andeq	r0, r0, r0
3000f5a0:	c67c0000 	ldrbtgt	r0, [ip], -r0
3000f5a4:	18180cc6 	ldmdane	r8, {r1, r2, r6, r7, sl, fp}
3000f5a8:	18180018 	ldmdane	r8, {r3, r4}
3000f5ac:	00000000 	andeq	r0, r0, r0
3000f5b0:	7c000000 	stcvc	0, cr0, [r0], {-0}
3000f5b4:	dedec6c6 	cdple	6, 13, cr12, cr14, cr6, {6}
3000f5b8:	7cc0dcde 	stclvc	12, cr13, [r0], {222}	; 0xde
3000f5bc:	00000000 	andeq	r0, r0, r0
3000f5c0:	38100000 	ldmdacc	r0, {}	; <UNPREDICTABLE>
3000f5c4:	fec6c66c 	cdp2	6, 12, cr12, cr6, cr12, {3}
3000f5c8:	c6c6c6c6 	strbgt	ip, [r6], r6, asr #13
3000f5cc:	00000000 	andeq	r0, r0, r0
3000f5d0:	66fc0000 	ldrbtvs	r0, [ip], r0
3000f5d4:	667c6666 	ldrbtvs	r6, [ip], -r6, ror #12
3000f5d8:	fc666666 	stc2l	6, cr6, [r6], #-408	; 0xfffffe68
3000f5dc:	00000000 	andeq	r0, r0, r0
3000f5e0:	663c0000 	ldrtvs	r0, [ip], -r0
3000f5e4:	c0c0c0c2 	sbcgt	ip, r0, r2, asr #1
3000f5e8:	3c66c2c0 	sfmcc	f4, 3, [r6], #-768	; 0xfffffd00
3000f5ec:	00000000 	andeq	r0, r0, r0
3000f5f0:	6cf80000 	ldclvs	0, cr0, [r8]
3000f5f4:	66666666 	strbtvs	r6, [r6], -r6, ror #12
3000f5f8:	f86c6666 			; <UNDEFINED> instruction: 0xf86c6666
3000f5fc:	00000000 	andeq	r0, r0, r0
3000f600:	66fe0000 	ldrbtvs	r0, [lr], r0
3000f604:	68786862 	ldmdavs	r8!, {r1, r5, r6, fp, sp, lr}^
3000f608:	fe666260 	cdp2	2, 6, cr6, cr6, cr0, {3}
3000f60c:	00000000 	andeq	r0, r0, r0
3000f610:	66fe0000 	ldrbtvs	r0, [lr], r0
3000f614:	68786862 	ldmdavs	r8!, {r1, r5, r6, fp, sp, lr}^
3000f618:	f0606060 			; <UNDEFINED> instruction: 0xf0606060
3000f61c:	00000000 	andeq	r0, r0, r0
3000f620:	663c0000 	ldrtvs	r0, [ip], -r0
3000f624:	dec0c0c2 	cdple	0, 12, cr12, cr0, cr2, {6}
3000f628:	3a66c6c6 	bcc	319c1148 <bss_end+0x19afb70>
3000f62c:	00000000 	andeq	r0, r0, r0
3000f630:	c6c60000 	strbgt	r0, [r6], r0
3000f634:	c6fec6c6 	ldrbtgt	ip, [lr], r6, asr #13
3000f638:	c6c6c6c6 	strbgt	ip, [r6], r6, asr #13
3000f63c:	00000000 	andeq	r0, r0, r0
3000f640:	183c0000 	ldmdane	ip!, {}	; <UNPREDICTABLE>
3000f644:	18181818 	ldmdane	r8, {r3, r4, fp, ip}
3000f648:	3c181818 	ldccc	8, cr1, [r8], {24}
3000f64c:	00000000 	andeq	r0, r0, r0
3000f650:	0c1e0000 	ldceq	0, cr0, [lr], {-0}
3000f654:	0c0c0c0c 	stceq	12, cr0, [ip], {12}
3000f658:	78cccccc 	stmiavc	ip, {r2, r3, r6, r7, sl, fp, lr, pc}^
3000f65c:	00000000 	andeq	r0, r0, r0
3000f660:	66e60000 	strbtvs	r0, [r6], r0
3000f664:	78786c66 	ldmdavc	r8!, {r1, r2, r5, r6, sl, fp, sp, lr}^
3000f668:	e666666c 	strbt	r6, [r6], -ip, ror #12
3000f66c:	00000000 	andeq	r0, r0, r0
3000f670:	60f00000 	rscsvs	r0, r0, r0
3000f674:	60606060 	rsbvs	r6, r0, r0, rrx
3000f678:	fe666260 	cdp2	2, 6, cr6, cr6, cr0, {3}
3000f67c:	00000000 	andeq	r0, r0, r0
3000f680:	eec60000 	cdp	0, 12, cr0, cr6, cr0, {0}
3000f684:	c6d6fefe 			; <UNDEFINED> instruction: 0xc6d6fefe
3000f688:	c6c6c6c6 	strbgt	ip, [r6], r6, asr #13
3000f68c:	00000000 	andeq	r0, r0, r0
3000f690:	e6c60000 	strb	r0, [r6], r0
3000f694:	cedefef6 	mrcgt	14, 6, APSR_nzcv, cr14, cr6, {7}
3000f698:	c6c6c6c6 	strbgt	ip, [r6], r6, asr #13
3000f69c:	00000000 	andeq	r0, r0, r0
3000f6a0:	c67c0000 	ldrbtgt	r0, [ip], -r0
3000f6a4:	c6c6c6c6 	strbgt	ip, [r6], r6, asr #13
3000f6a8:	7cc6c6c6 	stclvc	6, cr12, [r6], {198}	; 0xc6
3000f6ac:	00000000 	andeq	r0, r0, r0
3000f6b0:	66fc0000 	ldrbtvs	r0, [ip], r0
3000f6b4:	607c6666 	rsbsvs	r6, ip, r6, ror #12
3000f6b8:	f0606060 			; <UNDEFINED> instruction: 0xf0606060
3000f6bc:	00000000 	andeq	r0, r0, r0
3000f6c0:	c67c0000 	ldrbtgt	r0, [ip], -r0
3000f6c4:	c6c6c6c6 	strbgt	ip, [r6], r6, asr #13
3000f6c8:	7cded6c6 	ldclvc	6, cr13, [lr], {198}	; 0xc6
3000f6cc:	00000e0c 	andeq	r0, r0, ip, lsl #28
3000f6d0:	66fc0000 	ldrbtvs	r0, [ip], r0
3000f6d4:	6c7c6666 	ldclvs	6, cr6, [ip], #-408	; 0xfffffe68
3000f6d8:	e6666666 	strbt	r6, [r6], -r6, ror #12
3000f6dc:	00000000 	andeq	r0, r0, r0
3000f6e0:	c67c0000 	ldrbtgt	r0, [ip], -r0
3000f6e4:	0c3860c6 	ldceq	0, cr6, [r8], #-792	; 0xfffffce8
3000f6e8:	7cc6c606 	stclvc	6, cr12, [r6], {6}
3000f6ec:	00000000 	andeq	r0, r0, r0
3000f6f0:	7e7e0000 	cdpvc	0, 7, cr0, cr14, cr0, {0}
3000f6f4:	1818185a 	ldmdane	r8, {r1, r3, r4, r6, fp, ip}
3000f6f8:	3c181818 	ldccc	8, cr1, [r8], {24}
3000f6fc:	00000000 	andeq	r0, r0, r0
3000f700:	c6c60000 	strbgt	r0, [r6], r0
3000f704:	c6c6c6c6 	strbgt	ip, [r6], r6, asr #13
3000f708:	7cc6c6c6 	stclvc	6, cr12, [r6], {198}	; 0xc6
3000f70c:	00000000 	andeq	r0, r0, r0
3000f710:	c6c60000 	strbgt	r0, [r6], r0
3000f714:	c6c6c6c6 	strbgt	ip, [r6], r6, asr #13
3000f718:	10386cc6 	eorsne	r6, r8, r6, asr #25
3000f71c:	00000000 	andeq	r0, r0, r0
3000f720:	c6c60000 	strbgt	r0, [r6], r0
3000f724:	d6d6c6c6 	ldrble	ip, [r6], r6, asr #13
3000f728:	6ceefed6 	stclvs	14, cr15, [lr], #856	; 0x358
3000f72c:	00000000 	andeq	r0, r0, r0
3000f730:	c6c60000 	strbgt	r0, [r6], r0
3000f734:	38387c6c 	ldmdacc	r8!, {r2, r3, r5, r6, sl, fp, ip, sp, lr}
3000f738:	c6c66c7c 	uxtab16gt	r6, r6, ip, ROR #24
3000f73c:	00000000 	andeq	r0, r0, r0
3000f740:	66660000 	strbtvs	r0, [r6], -r0
3000f744:	183c6666 	ldmdane	ip!, {r1, r2, r5, r6, r9, sl, sp, lr}
3000f748:	3c181818 	ldccc	8, cr1, [r8], {24}
3000f74c:	00000000 	andeq	r0, r0, r0
3000f750:	c6fe0000 	ldrbtgt	r0, [lr], r0
3000f754:	30180c86 	andscc	r0, r8, r6, lsl #25
3000f758:	fec6c260 	cdp2	2, 12, cr12, cr6, cr0, {3}
3000f75c:	00000000 	andeq	r0, r0, r0
3000f760:	303c0000 	eorscc	r0, ip, r0
3000f764:	30303030 	eorscc	r3, r0, r0, lsr r0
3000f768:	3c303030 	ldccc	0, cr3, [r0], #-192	; 0xffffff40
3000f76c:	00000000 	andeq	r0, r0, r0
3000f770:	80000000 	andhi	r0, r0, r0
3000f774:	3870e0c0 	ldmdacc	r0!, {r6, r7, sp, lr, pc}^
3000f778:	02060e1c 	andeq	r0, r6, #28, 28	; 0x1c0
3000f77c:	00000000 	andeq	r0, r0, r0
3000f780:	0c3c0000 	ldceq	0, cr0, [ip], #-0
3000f784:	0c0c0c0c 	stceq	12, cr0, [ip], {12}
3000f788:	3c0c0c0c 	stccc	12, cr0, [ip], {12}
3000f78c:	00000000 	andeq	r0, r0, r0
3000f790:	c66c3810 			; <UNDEFINED> instruction: 0xc66c3810
	...
3000f7ac:	0000ff00 	andeq	pc, r0, r0, lsl #30
3000f7b0:	0c183000 	ldceq	0, cr3, [r8], {-0}
	...
3000f7c4:	7c0c7800 	stcvc	8, cr7, [ip], {-0}
3000f7c8:	76cccccc 	strbvc	ip, [ip], ip, asr #25
3000f7cc:	00000000 	andeq	r0, r0, r0
3000f7d0:	60e00000 	rscvs	r0, r0, r0
3000f7d4:	666c7860 	strbtvs	r7, [ip], -r0, ror #16
3000f7d8:	7c666666 	stclvc	6, cr6, [r6], #-408	; 0xfffffe68
	...
3000f7e4:	c0c67c00 	sbcgt	r7, r6, r0, lsl #24
3000f7e8:	7cc6c0c0 	stclvc	0, cr12, [r6], {192}	; 0xc0
3000f7ec:	00000000 	andeq	r0, r0, r0
3000f7f0:	0c1c0000 	ldceq	0, cr0, [ip], {-0}
3000f7f4:	cc6c3c0c 	stclgt	12, cr3, [ip], #-48	; 0xffffffd0
3000f7f8:	76cccccc 	strbvc	ip, [ip], ip, asr #25
	...
3000f804:	fec67c00 	cdp2	12, 12, cr7, cr6, cr0, {0}
3000f808:	7cc6c0c0 	stclvc	0, cr12, [r6], {192}	; 0xc0
3000f80c:	00000000 	andeq	r0, r0, r0
3000f810:	361c0000 	ldrcc	r0, [ip], -r0
3000f814:	30783032 	rsbscc	r3, r8, r2, lsr r0
3000f818:	78303030 	ldmdavc	r0!, {r4, r5, ip, sp}
	...
3000f824:	cccc7600 	stclgt	6, cr7, [ip], {0}
3000f828:	7ccccccc 	stclvc	12, cr12, [ip], {204}	; 0xcc
3000f82c:	0078cc0c 	rsbseq	ip, r8, ip, lsl #24
3000f830:	60e00000 	rscvs	r0, r0, r0
3000f834:	66766c60 	ldrbtvs	r6, [r6], -r0, ror #24
3000f838:	e6666666 	strbt	r6, [r6], -r6, ror #12
3000f83c:	00000000 	andeq	r0, r0, r0
3000f840:	18180000 	ldmdane	r8, {}	; <UNPREDICTABLE>
3000f844:	18183800 	ldmdane	r8, {fp, ip, sp}
3000f848:	3c181818 	ldccc	8, cr1, [r8], {24}
3000f84c:	00000000 	andeq	r0, r0, r0
3000f850:	06060000 	streq	r0, [r6], -r0
3000f854:	06060e00 	streq	r0, [r6], -r0, lsl #28
3000f858:	06060606 	streq	r0, [r6], -r6, lsl #12
3000f85c:	003c6666 	eorseq	r6, ip, r6, ror #12
3000f860:	60e00000 	rscvs	r0, r0, r0
3000f864:	786c6660 	stmdavc	ip!, {r5, r6, r9, sl, sp, lr}^
3000f868:	e6666c78 			; <UNDEFINED> instruction: 0xe6666c78
3000f86c:	00000000 	andeq	r0, r0, r0
3000f870:	18380000 	ldmdane	r8!, {}	; <UNPREDICTABLE>
3000f874:	18181818 	ldmdane	r8, {r3, r4, fp, ip}
3000f878:	3c181818 	ldccc	8, cr1, [r8], {24}
	...
3000f884:	d6feec00 	ldrbtle	lr, [lr], r0, lsl #24
3000f888:	c6d6d6d6 			; <UNDEFINED> instruction: 0xc6d6d6d6
	...
3000f894:	6666dc00 	strbtvs	sp, [r6], -r0, lsl #24
3000f898:	66666666 	strbtvs	r6, [r6], -r6, ror #12
	...
3000f8a4:	c6c67c00 	strbgt	r7, [r6], r0, lsl #24
3000f8a8:	7cc6c6c6 	stclvc	6, cr12, [r6], {198}	; 0xc6
	...
3000f8b4:	6666dc00 	strbtvs	sp, [r6], -r0, lsl #24
3000f8b8:	7c666666 	stclvc	6, cr6, [r6], #-408	; 0xfffffe68
3000f8bc:	00f06060 	rscseq	r6, r0, r0, rrx
3000f8c0:	00000000 	andeq	r0, r0, r0
3000f8c4:	cccc7600 	stclgt	6, cr7, [ip], {0}
3000f8c8:	7ccccccc 	stclvc	12, cr12, [ip], {204}	; 0xcc
3000f8cc:	001e0c0c 	andseq	r0, lr, ip, lsl #24
3000f8d0:	00000000 	andeq	r0, r0, r0
3000f8d4:	6676dc00 	ldrbtvs	sp, [r6], -r0, lsl #24
3000f8d8:	f0606060 			; <UNDEFINED> instruction: 0xf0606060
	...
3000f8e4:	60c67c00 	sbcvs	r7, r6, r0, lsl #24
3000f8e8:	7cc60c38 	stclvc	12, cr0, [r6], {56}	; 0x38
3000f8ec:	00000000 	andeq	r0, r0, r0
3000f8f0:	30100000 	andscc	r0, r0, r0
3000f8f4:	3030fc30 	eorscc	pc, r0, r0, lsr ip	; <UNPREDICTABLE>
3000f8f8:	1c363030 	ldcne	0, cr3, [r6], #-192	; 0xffffff40
	...
3000f904:	cccccc00 	stclgt	12, cr12, [ip], {0}
3000f908:	76cccccc 	strbvc	ip, [ip], ip, asr #25
	...
3000f914:	c6c6c600 	strbgt	ip, [r6], r0, lsl #12
3000f918:	386cc6c6 	stmdacc	ip!, {r1, r2, r6, r7, r9, sl, lr, pc}^
	...
3000f924:	d6c6c600 	strble	ip, [r6], r0, lsl #12
3000f928:	6cfed6d6 	ldclvs	6, cr13, [lr], #856	; 0x358
	...
3000f934:	386cc600 	stmdacc	ip!, {r9, sl, lr, pc}^
3000f938:	c66c3838 			; <UNDEFINED> instruction: 0xc66c3838
	...
3000f944:	c6c6c600 	strbgt	ip, [r6], r0, lsl #12
3000f948:	7ec6c6c6 	cdpvc	6, 12, cr12, cr6, cr6, {6}
3000f94c:	00f80c06 	rscseq	r0, r8, r6, lsl #24
3000f950:	00000000 	andeq	r0, r0, r0
3000f954:	18ccfe00 	stmiane	ip, {r9, sl, fp, ip, sp, lr, pc}^
3000f958:	fec66030 	mcr2	0, 6, r6, cr6, cr0, {1}
3000f95c:	00000000 	andeq	r0, r0, r0
3000f960:	180e0000 	stmdane	lr, {}	; <UNPREDICTABLE>
3000f964:	18701818 	ldmdane	r0!, {r3, r4, fp, ip}^
3000f968:	0e181818 	mrceq	8, 0, r1, cr8, cr8, {0}
3000f96c:	00000000 	andeq	r0, r0, r0
3000f970:	18180000 	ldmdane	r8, {}	; <UNPREDICTABLE>
3000f974:	18181818 	ldmdane	r8, {r3, r4, fp, ip}
3000f978:	18181818 	ldmdane	r8, {r3, r4, fp, ip}
3000f97c:	00000000 	andeq	r0, r0, r0
3000f980:	18700000 	ldmdane	r0!, {}^	; <UNPREDICTABLE>
3000f984:	180e1818 	stmdane	lr, {r3, r4, fp, ip}
3000f988:	70181818 	andsvc	r1, r8, r8, lsl r8
3000f98c:	00000000 	andeq	r0, r0, r0
3000f990:	00dc7600 	sbcseq	r7, ip, r0, lsl #12
	...
3000f9a4:	c66c3810 			; <UNDEFINED> instruction: 0xc66c3810
3000f9a8:	00fec6c6 	rscseq	ip, lr, r6, asr #13
3000f9ac:	00000000 	andeq	r0, r0, r0
3000f9b0:	663c0000 	ldrtvs	r0, [ip], -r0
3000f9b4:	c0c0c0c2 	sbcgt	ip, r0, r2, asr #1
3000f9b8:	3c66c2c0 	sfmcc	f4, 3, [r6], #-768	; 0xfffffd00
3000f9bc:	00007018 	andeq	r7, r0, r8, lsl r0
3000f9c0:	00cc0000 	sbceq	r0, ip, r0
3000f9c4:	cccccc00 	stclgt	12, cr12, [ip], {0}
3000f9c8:	76cccccc 	strbvc	ip, [ip], ip, asr #25
3000f9cc:	00000000 	andeq	r0, r0, r0
3000f9d0:	30180c00 	andscc	r0, r8, r0, lsl #24
3000f9d4:	fec67c00 	cdp2	12, 12, cr7, cr6, cr0, {0}
3000f9d8:	7cc6c0c0 	stclvc	0, cr12, [r6], {192}	; 0xc0
3000f9dc:	00000000 	andeq	r0, r0, r0
3000f9e0:	6c381000 	ldcvs	0, cr1, [r8], #-0
3000f9e4:	7c0c7800 	stcvc	8, cr7, [ip], {-0}
3000f9e8:	76cccccc 	strbvc	ip, [ip], ip, asr #25
3000f9ec:	00000000 	andeq	r0, r0, r0
3000f9f0:	00cc0000 	sbceq	r0, ip, r0
3000f9f4:	7c0c7800 	stcvc	8, cr7, [ip], {-0}
3000f9f8:	76cccccc 	strbvc	ip, [ip], ip, asr #25
3000f9fc:	00000000 	andeq	r0, r0, r0
3000fa00:	18306000 	ldmdane	r0!, {sp, lr}
3000fa04:	7c0c7800 	stcvc	8, cr7, [ip], {-0}
3000fa08:	76cccccc 	strbvc	ip, [ip], ip, asr #25
3000fa0c:	00000000 	andeq	r0, r0, r0
3000fa10:	386c3800 	stmdacc	ip!, {fp, ip, sp}^
3000fa14:	7c0c7800 	stcvc	8, cr7, [ip], {-0}
3000fa18:	76cccccc 	strbvc	ip, [ip], ip, asr #25
	...
3000fa24:	c0c67c00 	sbcgt	r7, r6, r0, lsl #24
3000fa28:	7cc6c0c0 	stclvc	0, cr12, [r6], {192}	; 0xc0
3000fa2c:	00007018 	andeq	r7, r0, r8, lsl r0
3000fa30:	6c381000 	ldcvs	0, cr1, [r8], #-0
3000fa34:	fec67c00 	cdp2	12, 12, cr7, cr6, cr0, {0}
3000fa38:	7cc6c0c0 	stclvc	0, cr12, [r6], {192}	; 0xc0
3000fa3c:	00000000 	andeq	r0, r0, r0
3000fa40:	00c60000 	sbceq	r0, r6, r0
3000fa44:	fec67c00 	cdp2	12, 12, cr7, cr6, cr0, {0}
3000fa48:	7cc6c0c0 	stclvc	0, cr12, [r6], {192}	; 0xc0
3000fa4c:	00000000 	andeq	r0, r0, r0
3000fa50:	18306000 	ldmdane	r0!, {sp, lr}
3000fa54:	fec67c00 	cdp2	12, 12, cr7, cr6, cr0, {0}
3000fa58:	7cc6c0c0 	stclvc	0, cr12, [r6], {192}	; 0xc0
3000fa5c:	00000000 	andeq	r0, r0, r0
3000fa60:	00660000 	rsbeq	r0, r6, r0
3000fa64:	18183800 	ldmdane	r8, {fp, ip, sp}
3000fa68:	3c181818 	ldccc	8, cr1, [r8], {24}
3000fa6c:	00000000 	andeq	r0, r0, r0
3000fa70:	663c1800 	ldrtvs	r1, [ip], -r0, lsl #16
3000fa74:	18183800 	ldmdane	r8, {fp, ip, sp}
3000fa78:	3c181818 	ldccc	8, cr1, [r8], {24}
3000fa7c:	00000000 	andeq	r0, r0, r0
3000fa80:	18306000 	ldmdane	r0!, {sp, lr}
3000fa84:	18183800 	ldmdane	r8, {fp, ip, sp}
3000fa88:	3c181818 	ldccc	8, cr1, [r8], {24}
3000fa8c:	00000000 	andeq	r0, r0, r0
3000fa90:	1000c600 	andne	ip, r0, r0, lsl #12
3000fa94:	c6c66c38 			; <UNDEFINED> instruction: 0xc6c66c38
3000fa98:	c6c6c6fe 			; <UNDEFINED> instruction: 0xc6c6c6fe
3000fa9c:	00000000 	andeq	r0, r0, r0
3000faa0:	10386c38 	eorsne	r6, r8, r8, lsr ip
3000faa4:	fec66c38 	mcr2	12, 6, r6, cr6, cr8, {1}
3000faa8:	c6c6c6c6 	strbgt	ip, [r6], r6, asr #13
3000faac:	00000000 	andeq	r0, r0, r0
3000fab0:	fe00180c 	vcmla.f16	d1, d0, d12[0], #0
3000fab4:	78686266 	stmdavc	r8!, {r1, r2, r5, r6, r9, sp, lr}^
3000fab8:	fe666268 	cdp2	2, 6, cr6, cr6, cr8, {3}
	...
3000fac4:	3636ec00 	ldrtcc	lr, [r6], -r0, lsl #24
3000fac8:	6ed8d87e 	mrcvs	8, 6, sp, cr8, cr14, {3}
3000facc:	00000000 	andeq	r0, r0, r0
3000fad0:	6c3e0000 	ldcvs	0, cr0, [lr], #-0
3000fad4:	ccfecccc 	ldclgt	12, cr12, [lr], #816	; 0x330
3000fad8:	cecccccc 	cdpgt	12, 12, cr12, cr12, cr12, {6}
3000fadc:	00000000 	andeq	r0, r0, r0
3000fae0:	6c381000 	ldcvs	0, cr1, [r8], #-0
3000fae4:	c6c67c00 	strbgt	r7, [r6], r0, lsl #24
3000fae8:	7cc6c6c6 	stclvc	6, cr12, [r6], {198}	; 0xc6
3000faec:	00000000 	andeq	r0, r0, r0
3000faf0:	00c60000 	sbceq	r0, r6, r0
3000faf4:	c6c67c00 	strbgt	r7, [r6], r0, lsl #24
3000faf8:	7cc6c6c6 	stclvc	6, cr12, [r6], {198}	; 0xc6
3000fafc:	00000000 	andeq	r0, r0, r0
3000fb00:	18306000 	ldmdane	r0!, {sp, lr}
3000fb04:	c6c67c00 	strbgt	r7, [r6], r0, lsl #24
3000fb08:	7cc6c6c6 	stclvc	6, cr12, [r6], {198}	; 0xc6
3000fb0c:	00000000 	andeq	r0, r0, r0
3000fb10:	cc783000 	ldclgt	0, cr3, [r8], #-0
3000fb14:	cccccc00 	stclgt	12, cr12, [ip], {0}
3000fb18:	76cccccc 	strbvc	ip, [ip], ip, asr #25
3000fb1c:	00000000 	andeq	r0, r0, r0
3000fb20:	18306000 	ldmdane	r0!, {sp, lr}
3000fb24:	cccccc00 	stclgt	12, cr12, [ip], {0}
3000fb28:	76cccccc 	strbvc	ip, [ip], ip, asr #25
3000fb2c:	00000000 	andeq	r0, r0, r0
3000fb30:	00c60000 	sbceq	r0, r6, r0
3000fb34:	c6c6c600 	strbgt	ip, [r6], r0, lsl #12
3000fb38:	7ec6c6c6 	cdpvc	6, 12, cr12, cr6, cr6, {6}
3000fb3c:	00780c06 	rsbseq	r0, r8, r6, lsl #24
3000fb40:	7c00c600 	stcvc	6, cr12, [r0], {-0}
3000fb44:	c6c6c6c6 	strbgt	ip, [r6], r6, asr #13
3000fb48:	7cc6c6c6 	stclvc	6, cr12, [r6], {198}	; 0xc6
3000fb4c:	00000000 	andeq	r0, r0, r0
3000fb50:	c600c600 	strgt	ip, [r0], -r0, lsl #12
3000fb54:	c6c6c6c6 	strbgt	ip, [r6], r6, asr #13
3000fb58:	7cc6c6c6 	stclvc	6, cr12, [r6], {198}	; 0xc6
3000fb5c:	00000000 	andeq	r0, r0, r0
3000fb60:	7c181800 	ldcvc	8, cr1, [r8], {-0}
3000fb64:	c0c0c0c6 	sbcgt	ip, r0, r6, asr #1
3000fb68:	18187cc6 	ldmdane	r8, {r1, r2, r6, r7, sl, fp, ip, sp, lr}
3000fb6c:	00000000 	andeq	r0, r0, r0
3000fb70:	646c3800 	strbtvs	r3, [ip], #-2048	; 0xfffff800
3000fb74:	6060f060 	rsbvs	pc, r0, r0, rrx
3000fb78:	fce66060 	stc2l	0, cr6, [r6], #384	; 0x180
3000fb7c:	00000000 	andeq	r0, r0, r0
3000fb80:	66660000 	strbtvs	r0, [r6], -r0
3000fb84:	187e183c 	ldmdane	lr!, {r2, r3, r4, r5, fp, ip}^
3000fb88:	1818187e 	ldmdane	r8, {r1, r2, r3, r4, r5, r6, fp, ip}
3000fb8c:	00000000 	andeq	r0, r0, r0
3000fb90:	ccccf800 	stclgt	8, cr15, [ip], {0}
3000fb94:	deccc4f8 	mcrle	4, 6, ip, cr12, cr8, {7}
3000fb98:	c6cccccc 	strbgt	ip, [ip], ip, asr #25
3000fb9c:	00000000 	andeq	r0, r0, r0
3000fba0:	181b0e00 	ldmdane	fp, {r9, sl, fp}
3000fba4:	187e1818 	ldmdane	lr!, {r3, r4, fp, ip}^
3000fba8:	70d81818 	sbcsvc	r1, r8, r8, lsl r8
3000fbac:	00000000 	andeq	r0, r0, r0
3000fbb0:	60301800 	eorsvs	r1, r0, r0, lsl #16
3000fbb4:	7c0c7800 	stcvc	8, cr7, [ip], {-0}
3000fbb8:	76cccccc 	strbvc	ip, [ip], ip, asr #25
3000fbbc:	00000000 	andeq	r0, r0, r0
3000fbc0:	30180c00 	andscc	r0, r8, r0, lsl #24
3000fbc4:	18183800 	ldmdane	r8, {fp, ip, sp}
3000fbc8:	3c181818 	ldccc	8, cr1, [r8], {24}
3000fbcc:	00000000 	andeq	r0, r0, r0
3000fbd0:	60301800 	eorsvs	r1, r0, r0, lsl #16
3000fbd4:	c6c67c00 	strbgt	r7, [r6], r0, lsl #24
3000fbd8:	7cc6c6c6 	stclvc	6, cr12, [r6], {198}	; 0xc6
3000fbdc:	00000000 	andeq	r0, r0, r0
3000fbe0:	60301800 	eorsvs	r1, r0, r0, lsl #16
3000fbe4:	cccccc00 	stclgt	12, cr12, [ip], {0}
3000fbe8:	76cccccc 	strbvc	ip, [ip], ip, asr #25
3000fbec:	00000000 	andeq	r0, r0, r0
3000fbf0:	dc760000 	ldclle	0, cr0, [r6], #-0
3000fbf4:	6666dc00 	strbtvs	sp, [r6], -r0, lsl #24
3000fbf8:	66666666 	strbtvs	r6, [r6], -r6, ror #12
3000fbfc:	00000000 	andeq	r0, r0, r0
3000fc00:	c600dc76 			; <UNDEFINED> instruction: 0xc600dc76
3000fc04:	defef6e6 	cdple	6, 15, cr15, cr14, cr6, {7}
3000fc08:	c6c6c6ce 	strbgt	ip, [r6], lr, asr #13
3000fc0c:	00000000 	andeq	r0, r0, r0
3000fc10:	6c3c0000 	ldcvs	0, cr0, [ip], #-0
3000fc14:	7e003e6c 	cdpvc	14, 0, cr3, cr0, cr12, {3}
	...
3000fc20:	6c380000 	ldcvs	0, cr0, [r8], #-0
3000fc24:	7c00386c 	stcvc	8, cr3, [r0], {108}	; 0x6c
	...
3000fc30:	30300000 	eorscc	r0, r0, r0
3000fc34:	60303000 	eorsvs	r3, r0, r0
3000fc38:	7cc6c6c0 	stclvc	6, cr12, [r6], {192}	; 0xc0
	...
3000fc44:	c0fe0000 	rscsgt	r0, lr, r0
3000fc48:	00c0c0c0 	sbceq	ip, r0, r0, asr #1
	...
3000fc54:	06fe0000 	ldrbteq	r0, [lr], r0
3000fc58:	00060606 	andeq	r0, r6, r6, lsl #12
3000fc5c:	00000000 	andeq	r0, r0, r0
3000fc60:	62e06000 	rscvs	r6, r0, #0
3000fc64:	30186c66 	andscc	r6, r8, r6, ror #24
3000fc68:	0c86dc60 	stceq	12, cr13, [r6], {96}	; 0x60
3000fc6c:	00003e18 	andeq	r3, r0, r8, lsl lr
3000fc70:	62e06000 	rscvs	r6, r0, #0
3000fc74:	30186c66 	andscc	r6, r8, r6, ror #24
3000fc78:	3f9ace66 	svccc	0x009ace66
3000fc7c:	00000606 	andeq	r0, r0, r6, lsl #12
3000fc80:	18180000 	ldmdane	r8, {}	; <UNPREDICTABLE>
3000fc84:	18181800 	ldmdane	r8, {fp, ip}
3000fc88:	183c3c3c 	ldmdane	ip!, {r2, r3, r4, r5, sl, fp, ip, sp}
	...
3000fc94:	d86c3600 	stmdale	ip!, {r9, sl, ip, sp}^
3000fc98:	0000366c 	andeq	r3, r0, ip, ror #12
	...
3000fca4:	366cd800 	strbtcc	sp, [ip], -r0, lsl #16
3000fca8:	0000d86c 	andeq	sp, r0, ip, ror #16
3000fcac:	00000000 	andeq	r0, r0, r0
3000fcb0:	44114411 	ldrmi	r4, [r1], #-1041	; 0xfffffbef
3000fcb4:	44114411 	ldrmi	r4, [r1], #-1041	; 0xfffffbef
3000fcb8:	44114411 	ldrmi	r4, [r1], #-1041	; 0xfffffbef
3000fcbc:	44114411 	ldrmi	r4, [r1], #-1041	; 0xfffffbef
3000fcc0:	aa55aa55 	bge	3157a61c <bss_end+0x1569044>
3000fcc4:	aa55aa55 	bge	3157a620 <bss_end+0x1569048>
3000fcc8:	aa55aa55 	bge	3157a624 <bss_end+0x156904c>
3000fccc:	aa55aa55 	bge	3157a628 <bss_end+0x1569050>
3000fcd0:	77dd77dd 			; <UNDEFINED> instruction: 0x77dd77dd
3000fcd4:	77dd77dd 			; <UNDEFINED> instruction: 0x77dd77dd
3000fcd8:	77dd77dd 			; <UNDEFINED> instruction: 0x77dd77dd
3000fcdc:	77dd77dd 			; <UNDEFINED> instruction: 0x77dd77dd
3000fce0:	18181818 	ldmdane	r8, {r3, r4, fp, ip}
3000fce4:	18181818 	ldmdane	r8, {r3, r4, fp, ip}
3000fce8:	18181818 	ldmdane	r8, {r3, r4, fp, ip}
3000fcec:	18181818 	ldmdane	r8, {r3, r4, fp, ip}
3000fcf0:	18181818 	ldmdane	r8, {r3, r4, fp, ip}
3000fcf4:	f8181818 			; <UNDEFINED> instruction: 0xf8181818
3000fcf8:	18181818 	ldmdane	r8, {r3, r4, fp, ip}
3000fcfc:	18181818 	ldmdane	r8, {r3, r4, fp, ip}
3000fd00:	18181818 	ldmdane	r8, {r3, r4, fp, ip}
3000fd04:	f818f818 			; <UNDEFINED> instruction: 0xf818f818
3000fd08:	18181818 	ldmdane	r8, {r3, r4, fp, ip}
3000fd0c:	18181818 	ldmdane	r8, {r3, r4, fp, ip}
3000fd10:	36363636 			; <UNDEFINED> instruction: 0x36363636
3000fd14:	f6363636 			; <UNDEFINED> instruction: 0xf6363636
3000fd18:	36363636 			; <UNDEFINED> instruction: 0x36363636
3000fd1c:	36363636 			; <UNDEFINED> instruction: 0x36363636
3000fd20:	00000000 	andeq	r0, r0, r0
3000fd24:	fe000000 	cdp2	0, 0, cr0, cr0, cr0, {0}
3000fd28:	36363636 			; <UNDEFINED> instruction: 0x36363636
3000fd2c:	36363636 			; <UNDEFINED> instruction: 0x36363636
3000fd30:	00000000 	andeq	r0, r0, r0
3000fd34:	f818f800 			; <UNDEFINED> instruction: 0xf818f800
3000fd38:	18181818 	ldmdane	r8, {r3, r4, fp, ip}
3000fd3c:	18181818 	ldmdane	r8, {r3, r4, fp, ip}
3000fd40:	36363636 			; <UNDEFINED> instruction: 0x36363636
3000fd44:	f606f636 			; <UNDEFINED> instruction: 0xf606f636
3000fd48:	36363636 			; <UNDEFINED> instruction: 0x36363636
3000fd4c:	36363636 			; <UNDEFINED> instruction: 0x36363636
3000fd50:	36363636 			; <UNDEFINED> instruction: 0x36363636
3000fd54:	36363636 			; <UNDEFINED> instruction: 0x36363636
3000fd58:	36363636 			; <UNDEFINED> instruction: 0x36363636
3000fd5c:	36363636 			; <UNDEFINED> instruction: 0x36363636
3000fd60:	00000000 	andeq	r0, r0, r0
3000fd64:	f606fe00 			; <UNDEFINED> instruction: 0xf606fe00
3000fd68:	36363636 			; <UNDEFINED> instruction: 0x36363636
3000fd6c:	36363636 			; <UNDEFINED> instruction: 0x36363636
3000fd70:	36363636 			; <UNDEFINED> instruction: 0x36363636
3000fd74:	fe06f636 	mcr2	6, 0, pc, cr6, cr6, {1}	; <UNPREDICTABLE>
	...
3000fd80:	36363636 			; <UNDEFINED> instruction: 0x36363636
3000fd84:	fe363636 	mrc2	6, 1, r3, cr6, cr6, {1}
	...
3000fd90:	18181818 	ldmdane	r8, {r3, r4, fp, ip}
3000fd94:	f818f818 			; <UNDEFINED> instruction: 0xf818f818
	...
3000fda4:	f8000000 			; <UNDEFINED> instruction: 0xf8000000
3000fda8:	18181818 	ldmdane	r8, {r3, r4, fp, ip}
3000fdac:	18181818 	ldmdane	r8, {r3, r4, fp, ip}
3000fdb0:	18181818 	ldmdane	r8, {r3, r4, fp, ip}
3000fdb4:	1f181818 	svcne	0x00181818
	...
3000fdc0:	18181818 	ldmdane	r8, {r3, r4, fp, ip}
3000fdc4:	ff181818 			; <UNDEFINED> instruction: 0xff181818
	...
3000fdd4:	ff000000 			; <UNDEFINED> instruction: 0xff000000
3000fdd8:	18181818 	ldmdane	r8, {r3, r4, fp, ip}
3000fddc:	18181818 	ldmdane	r8, {r3, r4, fp, ip}
3000fde0:	18181818 	ldmdane	r8, {r3, r4, fp, ip}
3000fde4:	1f181818 	svcne	0x00181818
3000fde8:	18181818 	ldmdane	r8, {r3, r4, fp, ip}
3000fdec:	18181818 	ldmdane	r8, {r3, r4, fp, ip}
3000fdf0:	00000000 	andeq	r0, r0, r0
3000fdf4:	ff000000 			; <UNDEFINED> instruction: 0xff000000
	...
3000fe00:	18181818 	ldmdane	r8, {r3, r4, fp, ip}
3000fe04:	ff181818 			; <UNDEFINED> instruction: 0xff181818
3000fe08:	18181818 	ldmdane	r8, {r3, r4, fp, ip}
3000fe0c:	18181818 	ldmdane	r8, {r3, r4, fp, ip}
3000fe10:	18181818 	ldmdane	r8, {r3, r4, fp, ip}
3000fe14:	1f181f18 	svcne	0x00181f18
3000fe18:	18181818 	ldmdane	r8, {r3, r4, fp, ip}
3000fe1c:	18181818 	ldmdane	r8, {r3, r4, fp, ip}
3000fe20:	36363636 			; <UNDEFINED> instruction: 0x36363636
3000fe24:	37363636 			; <UNDEFINED> instruction: 0x37363636
3000fe28:	36363636 			; <UNDEFINED> instruction: 0x36363636
3000fe2c:	36363636 			; <UNDEFINED> instruction: 0x36363636
3000fe30:	36363636 			; <UNDEFINED> instruction: 0x36363636
3000fe34:	3f303736 	svccc	0x00303736
	...
3000fe44:	37303f00 	ldrcc	r3, [r0, -r0, lsl #30]!
3000fe48:	36363636 			; <UNDEFINED> instruction: 0x36363636
3000fe4c:	36363636 			; <UNDEFINED> instruction: 0x36363636
3000fe50:	36363636 			; <UNDEFINED> instruction: 0x36363636
3000fe54:	ff00f736 			; <UNDEFINED> instruction: 0xff00f736
	...
3000fe64:	f700ff00 			; <UNDEFINED> instruction: 0xf700ff00
3000fe68:	36363636 			; <UNDEFINED> instruction: 0x36363636
3000fe6c:	36363636 			; <UNDEFINED> instruction: 0x36363636
3000fe70:	36363636 			; <UNDEFINED> instruction: 0x36363636
3000fe74:	37303736 			; <UNDEFINED> instruction: 0x37303736
3000fe78:	36363636 			; <UNDEFINED> instruction: 0x36363636
3000fe7c:	36363636 			; <UNDEFINED> instruction: 0x36363636
3000fe80:	00000000 	andeq	r0, r0, r0
3000fe84:	ff00ff00 			; <UNDEFINED> instruction: 0xff00ff00
	...
3000fe90:	36363636 			; <UNDEFINED> instruction: 0x36363636
3000fe94:	f700f736 			; <UNDEFINED> instruction: 0xf700f736
3000fe98:	36363636 			; <UNDEFINED> instruction: 0x36363636
3000fe9c:	36363636 			; <UNDEFINED> instruction: 0x36363636
3000fea0:	18181818 	ldmdane	r8, {r3, r4, fp, ip}
3000fea4:	ff00ff18 			; <UNDEFINED> instruction: 0xff00ff18
	...
3000feb0:	36363636 			; <UNDEFINED> instruction: 0x36363636
3000feb4:	ff363636 			; <UNDEFINED> instruction: 0xff363636
	...
3000fec4:	ff00ff00 			; <UNDEFINED> instruction: 0xff00ff00
3000fec8:	18181818 	ldmdane	r8, {r3, r4, fp, ip}
3000fecc:	18181818 	ldmdane	r8, {r3, r4, fp, ip}
3000fed0:	00000000 	andeq	r0, r0, r0
3000fed4:	ff000000 			; <UNDEFINED> instruction: 0xff000000
3000fed8:	36363636 			; <UNDEFINED> instruction: 0x36363636
3000fedc:	36363636 			; <UNDEFINED> instruction: 0x36363636
3000fee0:	36363636 			; <UNDEFINED> instruction: 0x36363636
3000fee4:	3f363636 	svccc	0x00363636
	...
3000fef0:	18181818 	ldmdane	r8, {r3, r4, fp, ip}
3000fef4:	1f181f18 	svcne	0x00181f18
	...
3000ff04:	1f181f00 	svcne	0x00181f00
3000ff08:	18181818 	ldmdane	r8, {r3, r4, fp, ip}
3000ff0c:	18181818 	ldmdane	r8, {r3, r4, fp, ip}
3000ff10:	00000000 	andeq	r0, r0, r0
3000ff14:	3f000000 	svccc	0x00000000
3000ff18:	36363636 			; <UNDEFINED> instruction: 0x36363636
3000ff1c:	36363636 			; <UNDEFINED> instruction: 0x36363636
3000ff20:	36363636 			; <UNDEFINED> instruction: 0x36363636
3000ff24:	ff363636 			; <UNDEFINED> instruction: 0xff363636
3000ff28:	36363636 			; <UNDEFINED> instruction: 0x36363636
3000ff2c:	36363636 			; <UNDEFINED> instruction: 0x36363636
3000ff30:	18181818 	ldmdane	r8, {r3, r4, fp, ip}
3000ff34:	ff18ff18 			; <UNDEFINED> instruction: 0xff18ff18
3000ff38:	18181818 	ldmdane	r8, {r3, r4, fp, ip}
3000ff3c:	18181818 	ldmdane	r8, {r3, r4, fp, ip}
3000ff40:	18181818 	ldmdane	r8, {r3, r4, fp, ip}
3000ff44:	f8181818 			; <UNDEFINED> instruction: 0xf8181818
	...
3000ff54:	1f000000 	svcne	0x00000000
3000ff58:	18181818 	ldmdane	r8, {r3, r4, fp, ip}
3000ff5c:	18181818 	ldmdane	r8, {r3, r4, fp, ip}
3000ff60:	ffffffff 			; <UNDEFINED> instruction: 0xffffffff
3000ff64:	ffffffff 			; <UNDEFINED> instruction: 0xffffffff
3000ff68:	ffffffff 			; <UNDEFINED> instruction: 0xffffffff
3000ff6c:	ffffffff 			; <UNDEFINED> instruction: 0xffffffff
3000ff70:	00000000 	andeq	r0, r0, r0
3000ff74:	ff000000 			; <UNDEFINED> instruction: 0xff000000
3000ff78:	ffffffff 			; <UNDEFINED> instruction: 0xffffffff
3000ff7c:	ffffffff 			; <UNDEFINED> instruction: 0xffffffff
3000ff80:	f0f0f0f0 			; <UNDEFINED> instruction: 0xf0f0f0f0
3000ff84:	f0f0f0f0 			; <UNDEFINED> instruction: 0xf0f0f0f0
3000ff88:	f0f0f0f0 			; <UNDEFINED> instruction: 0xf0f0f0f0
3000ff8c:	f0f0f0f0 			; <UNDEFINED> instruction: 0xf0f0f0f0
3000ff90:	0f0f0f0f 	svceq	0x000f0f0f
3000ff94:	0f0f0f0f 	svceq	0x000f0f0f
3000ff98:	0f0f0f0f 	svceq	0x000f0f0f
3000ff9c:	0f0f0f0f 	svceq	0x000f0f0f
3000ffa0:	ffffffff 			; <UNDEFINED> instruction: 0xffffffff
3000ffa4:	00ffffff 	ldrshteq	pc, [pc], #255	; <UNPREDICTABLE>
	...
3000ffb4:	d8dc7600 	ldmle	ip, {r9, sl, ip, sp, lr}^
3000ffb8:	76dcd8d8 			; <UNDEFINED> instruction: 0x76dcd8d8
3000ffbc:	00000000 	andeq	r0, r0, r0
3000ffc0:	cc780000 	ldclgt	0, cr0, [r8], #-0
3000ffc4:	ccd8cccc 	ldclgt	12, cr12, [r8], {204}	; 0xcc
3000ffc8:	ccc6c6c6 	stclgt	6, cr12, [r6], {198}	; 0xc6
3000ffcc:	00000000 	andeq	r0, r0, r0
3000ffd0:	c6fe0000 	ldrbtgt	r0, [lr], r0
3000ffd4:	c0c0c0c6 	sbcgt	ip, r0, r6, asr #1
3000ffd8:	c0c0c0c0 	sbcgt	ip, r0, r0, asr #1
	...
3000ffe4:	6c6cfe00 	stclvs	14, cr15, [ip], #-0
3000ffe8:	6c6c6c6c 	stclvs	12, cr6, [ip], #-432	; 0xfffffe50
3000ffec:	00000000 	andeq	r0, r0, r0
3000fff0:	c6fe0000 	ldrbtgt	r0, [lr], r0
3000fff4:	18183060 	ldmdane	r8, {r5, r6, ip, sp}
3000fff8:	fec66030 	mcr2	0, 6, r6, cr6, cr0, {1}
	...
30010004:	d8d87e00 	ldmle	r8, {r9, sl, fp, ip, sp, lr}^
30010008:	70d8d8d8 	ldrsbvc	sp, [r8], #136	; 0x88
	...
30010014:	66666600 	strbtvs	r6, [r6], -r0, lsl #12
30010018:	7c666666 	stclvc	6, cr6, [r6], #-408	; 0xfffffe68
3001001c:	00c06060 	sbceq	r6, r0, r0, rrx
30010020:	00000000 	andeq	r0, r0, r0
30010024:	1818dc76 	ldmdane	r8, {r1, r2, r4, r5, r6, sl, fp, ip, lr, pc}
30010028:	18181818 	ldmdane	r8, {r3, r4, fp, ip}
3001002c:	00000000 	andeq	r0, r0, r0
30010030:	187e0000 	ldmdane	lr!, {}^	; <UNPREDICTABLE>
30010034:	6666663c 			; <UNDEFINED> instruction: 0x6666663c
30010038:	7e183c66 	cdpvc	12, 1, cr3, cr8, cr6, {3}
3001003c:	00000000 	andeq	r0, r0, r0
30010040:	6c380000 	ldcvs	0, cr0, [r8], #-0
30010044:	c6fec6c6 	ldrbtgt	ip, [lr], r6, asr #13
30010048:	386cc6c6 	stmdacc	ip!, {r1, r2, r6, r7, r9, sl, lr, pc}^
3001004c:	00000000 	andeq	r0, r0, r0
30010050:	6c380000 	ldcvs	0, cr0, [r8], #-0
30010054:	6cc6c6c6 	stclvs	6, cr12, [r6], {198}	; 0xc6
30010058:	ee6c6c6c 	cdp	12, 6, cr6, cr12, cr12, {3}
3001005c:	00000000 	andeq	r0, r0, r0
30010060:	301e0000 	andscc	r0, lr, r0
30010064:	663e0c18 			; <UNDEFINED> instruction: 0x663e0c18
30010068:	3c666666 	stclcc	6, cr6, [r6], #-408	; 0xfffffe68
	...
30010074:	dbdb7e00 	blle	2f6ef87c <_start-0x918784>
30010078:	00007edb 	ldrdeq	r7, [r0], -fp
3001007c:	00000000 	andeq	r0, r0, r0
30010080:	03000000 	movweq	r0, #0
30010084:	dbdb7e06 	blle	2f6ef8a4 <_start-0x91875c>
30010088:	c0607ef3 	strdgt	r7, [r0], #-227	; 0xffffff1d	; <UNPREDICTABLE>
3001008c:	00000000 	andeq	r0, r0, r0
30010090:	301c0000 	andscc	r0, ip, r0
30010094:	607c6060 	rsbsvs	r6, ip, r0, rrx
30010098:	1c306060 	ldcne	0, cr6, [r0], #-384	; 0xfffffe80
3001009c:	00000000 	andeq	r0, r0, r0
300100a0:	7c000000 	stcvc	0, cr0, [r0], {-0}
300100a4:	c6c6c6c6 	strbgt	ip, [r6], r6, asr #13
300100a8:	c6c6c6c6 	strbgt	ip, [r6], r6, asr #13
	...
300100b4:	fe0000fe 	mcr2	0, 0, r0, cr0, cr14, {7}
300100b8:	00fe0000 	rscseq	r0, lr, r0
	...
300100c4:	187e1818 	ldmdane	lr!, {r3, r4, fp, ip}^
300100c8:	7e000018 	mcrvc	0, 0, r0, cr0, cr8, {0}
300100cc:	00000000 	andeq	r0, r0, r0
300100d0:	30000000 	andcc	r0, r0, r0
300100d4:	0c060c18 	stceq	12, cr0, [r6], {24}
300100d8:	7e003018 	mcrvc	0, 0, r3, cr0, cr8, {0}
300100dc:	00000000 	andeq	r0, r0, r0
300100e0:	0c000000 	stceq	0, cr0, [r0], {-0}
300100e4:	30603018 	rsbcc	r3, r0, r8, lsl r0
300100e8:	7e000c18 	mcrvc	12, 0, r0, cr0, cr8, {0}
300100ec:	00000000 	andeq	r0, r0, r0
300100f0:	1b0e0000 	blne	303900f8 <bss_end+0x37eb20>
300100f4:	1818181b 	ldmdane	r8, {r0, r1, r3, r4, fp, ip}
300100f8:	18181818 	ldmdane	r8, {r3, r4, fp, ip}
300100fc:	18181818 	ldmdane	r8, {r3, r4, fp, ip}
30010100:	18181818 	ldmdane	r8, {r3, r4, fp, ip}
30010104:	18181818 	ldmdane	r8, {r3, r4, fp, ip}
30010108:	d8d8d818 	ldmle	r8, {r3, r4, fp, ip, lr, pc}^
3001010c:	00000070 	andeq	r0, r0, r0, ror r0
30010110:	00000000 	andeq	r0, r0, r0
30010114:	7e001800 	cdpvc	8, 0, cr1, cr0, cr0, {0}
30010118:	00001800 	andeq	r1, r0, r0, lsl #16
	...
30010124:	00dc7600 	sbcseq	r7, ip, r0, lsl #12
30010128:	0000dc76 	andeq	sp, r0, r6, ror ip
3001012c:	00000000 	andeq	r0, r0, r0
30010130:	6c6c3800 	stclvs	8, cr3, [ip], #-0
30010134:	00000038 	andeq	r0, r0, r8, lsr r0
	...
30010144:	18000000 	stmdane	r0, {}	; <UNPREDICTABLE>
30010148:	00000018 	andeq	r0, r0, r8, lsl r0
	...
30010154:	18000000 	stmdane	r0, {}	; <UNPREDICTABLE>
	...
30010160:	0c0c0f00 	stceq	15, cr0, [ip], {-0}
30010164:	ec0c0c0c 	stc	12, cr0, [ip], {12}
30010168:	1c3c6c6c 	ldcne	12, cr6, [ip], #-432	; 0xfffffe50
3001016c:	00000000 	andeq	r0, r0, r0
30010170:	36366c00 	ldrtcc	r6, [r6], -r0, lsl #24
30010174:	00363636 	eorseq	r3, r6, r6, lsr r6
	...
30010180:	0c663c00 	stcleq	12, cr3, [r6], #-0
30010184:	007e3218 	rsbseq	r3, lr, r8, lsl r2
	...
30010194:	7e7e7e7e 	mrcvc	14, 3, r7, cr14, cr14, {3}
30010198:	007e7e7e 	rsbseq	r7, lr, lr, ror lr
	...
300101b0:	30396d64 	eorscc	r6, r9, r4, ror #26
300101b4:	69203030 	stmdbvs	r0!, {r4, r5, ip, sp}
300101b8:	6f662073 	svcvs	0x00662073
300101bc:	20646e75 	rsbcs	r6, r4, r5, ror lr
300101c0:	000a0d21 	andeq	r0, sl, r1, lsr #26
300101c4:	30396d64 	eorscc	r6, r9, r4, ror #26
300101c8:	69203030 	stmdbvs	r0!, {r4, r5, ip, sp}
300101cc:	6f6e2073 	svcvs	0x006e2073
300101d0:	6f662074 	svcvs	0x00662074
300101d4:	20646e75 	rsbcs	r6, r4, r5, ror lr
300101d8:	000a0d21 	andeq	r0, sl, r1, lsr #26

300101dc <large_digits.1144>:
300101dc:	33323130 	teqcc	r2, #48, 2
300101e0:	37363534 			; <UNDEFINED> instruction: 0x37363534
300101e4:	42413938 	submi	r3, r1, #56, 18	; 0xe0000
300101e8:	46454443 	strbmi	r4, [r5], -r3, asr #8
300101ec:	4a494847 	bmi	31262310 <bss_end+0x1250d38>
300101f0:	4e4d4c4b 	cdpmi	12, 4, cr4, cr13, cr11, {2}
300101f4:	5251504f 	subspl	r5, r1, #79	; 0x4f
300101f8:	56555453 			; <UNDEFINED> instruction: 0x56555453
300101fc:	5a595857 	bpl	31666360 <bss_end+0x1654d88>
30010200:	00000000 	andeq	r0, r0, r0

30010204 <small_digits.1143>:
30010204:	33323130 	teqcc	r2, #48, 2
30010208:	37363534 			; <UNDEFINED> instruction: 0x37363534
3001020c:	62613938 	rsbvs	r3, r1, #56, 18	; 0xe0000
30010210:	66656463 	strbtvs	r6, [r5], -r3, ror #8
30010214:	6a696867 	bvs	31a6a3b8 <bss_end+0x1a58de0>
30010218:	6e6d6c6b 	cdpvs	12, 6, cr6, cr13, cr11, {3}
3001021c:	7271706f 	rsbsvc	r7, r1, #111	; 0x6f
30010220:	76757473 			; <UNDEFINED> instruction: 0x76757473
30010224:	7a797877 	bvc	31e6e408 <bss_end+0x1e5ce30>
30010228:	00000000 	andeq	r0, r0, r0
3001022c:	4c554e3c 	mrrcmi	14, 3, r4, r5, cr12
30010230:	00003e4c 	andeq	r3, r0, ip, asr #28
30010234:	6f680a0d 	svcvs	0x00680a0d
30010238:	69207473 	stmdbvs	r0!, {r0, r1, r4, r5, r6, sl, ip, sp, lr}
3001023c:	73692070 	cmnvc	r9, #112	; 0x70
30010240:	00203a20 	eoreq	r3, r0, r0, lsr #20
30010244:	64333025 	ldrtvs	r3, [r3], #-37	; 0xffffffdb
30010248:	00000020 	andeq	r0, r0, r0, lsr #32
3001024c:	00000a0d 	andeq	r0, r0, sp, lsl #20
30010250:	74736f68 	ldrbtvc	r6, [r3], #-3944	; 0xfffff098
30010254:	63616d20 	cmnvs	r1, #32, 26	; 0x800
30010258:	20736920 	rsbscs	r6, r3, r0, lsr #18
3001025c:	0000203a 	andeq	r2, r0, sl, lsr r0
30010260:	78323025 	ldmdavc	r2!, {r0, r2, r5, ip, sp}
30010264:	00000020 	andeq	r0, r0, r0, lsr #32
30010268:	00007325 	andeq	r7, r0, r5, lsr #6
3001026c:	6574636f 	ldrbvs	r6, [r4, #-879]!	; 0xfffffc91
30010270:	00000074 	andeq	r0, r0, r4, ror r0
30010274:	776f440d 	strbvc	r4, [pc, -sp, lsl #8]!
30010278:	616f6c6e 	cmnvs	pc, lr, ror #24
3001027c:	6f432064 	svcvs	0x00432064
30010280:	656c706d 	strbvs	r7, [ip, #-109]!	; 0xffffff93
30010284:	796c6574 	stmdbvc	ip!, {r2, r4, r5, r6, r8, sl, sp, lr}^
30010288:	000a0d21 	andeq	r0, sl, r1, lsr #26

Disassembly of section .data:

3001028c <cmdline>:
3001028c:	3000f138 	andcc	pc, r0, r8, lsr r1	; <UNPREDICTABLE>

30010290 <host_mac_addr>:
30010290:	ffffffff 			; <UNDEFINED> instruction: 0xffffffff
30010294:	 	stmdaeq	r9, {r0, r1, r2, r3, r4, r5, r6, r7, r8, r9, sl, fp, ip, sp, lr, pc}

30010296 <mac_addr>:
30010296:	06070809 	streq	r0, [r7], -r9, lsl #16
3001029a:	 	stmiage	r0, {r0, r2, sl}^

3001029c <ip_addr>:
3001029c:	2100a8c0 	smlabtcs	r0, r0, r8, sl

300102a0 <host_ip_addr>:
300102a0:	6800a8c0 	stmdavs	r0, {r6, r7, fp, sp, pc}

300102a4 <_ctype>:
300102a4:	08080808 	stmdaeq	r8, {r3, fp}
300102a8:	08080808 	stmdaeq	r8, {r3, fp}
300102ac:	28282808 	stmdacs	r8!, {r3, fp, sp}
300102b0:	08082828 	stmdaeq	r8, {r3, r5, fp, sp}
300102b4:	08080808 	stmdaeq	r8, {r3, fp}
300102b8:	08080808 	stmdaeq	r8, {r3, fp}
300102bc:	08080808 	stmdaeq	r8, {r3, fp}
300102c0:	08080808 	stmdaeq	r8, {r3, fp}
300102c4:	101010a0 	andsne	r1, r0, r0, lsr #1
300102c8:	10101010 	andsne	r1, r0, r0, lsl r0
300102cc:	10101010 	andsne	r1, r0, r0, lsl r0
300102d0:	10101010 	andsne	r1, r0, r0, lsl r0
300102d4:	04040404 	streq	r0, [r4], #-1028	; 0xfffffbfc
300102d8:	04040404 	streq	r0, [r4], #-1028	; 0xfffffbfc
300102dc:	10100404 	andsne	r0, r0, r4, lsl #8
300102e0:	10101010 	andsne	r1, r0, r0, lsl r0
300102e4:	41414110 	cmpmi	r1, r0, lsl r1
300102e8:	01414141 	cmpeq	r1, r1, asr #2
300102ec:	01010101 	tsteq	r1, r1, lsl #2
300102f0:	01010101 	tsteq	r1, r1, lsl #2
300102f4:	01010101 	tsteq	r1, r1, lsl #2
300102f8:	01010101 	tsteq	r1, r1, lsl #2
300102fc:	10010101 	andne	r0, r1, r1, lsl #2
30010300:	10101010 	andsne	r1, r0, r0, lsl r0
30010304:	42424210 	submi	r4, r2, #16, 4
30010308:	02424242 	subeq	r4, r2, #536870916	; 0x20000004
3001030c:	02020202 	andeq	r0, r2, #536870912	; 0x20000000
30010310:	02020202 	andeq	r0, r2, #536870912	; 0x20000000
30010314:	02020202 	andeq	r0, r2, #536870912	; 0x20000000
30010318:	02020202 	andeq	r0, r2, #536870912	; 0x20000000
3001031c:	10020202 	andne	r0, r2, r2, lsl #4
30010320:	08101010 	ldmdaeq	r0, {r4, ip}
	...
30010344:	101010a0 	andsne	r1, r0, r0, lsr #1
30010348:	10101010 	andsne	r1, r0, r0, lsl r0
3001034c:	10101010 	andsne	r1, r0, r0, lsl r0
30010350:	10101010 	andsne	r1, r0, r0, lsl r0
30010354:	10101010 	andsne	r1, r0, r0, lsl r0
30010358:	10101010 	andsne	r1, r0, r0, lsl r0
3001035c:	10101010 	andsne	r1, r0, r0, lsl r0
30010360:	10101010 	andsne	r1, r0, r0, lsl r0
30010364:	01010101 	tsteq	r1, r1, lsl #2
30010368:	01010101 	tsteq	r1, r1, lsl #2
3001036c:	01010101 	tsteq	r1, r1, lsl #2
30010370:	01010101 	tsteq	r1, r1, lsl #2
30010374:	01010101 	tsteq	r1, r1, lsl #2
30010378:	10010101 	andne	r0, r1, r1, lsl #2
3001037c:	01010101 	tsteq	r1, r1, lsl #2
30010380:	02010101 	andeq	r0, r1, #1073741824	; 0x40000000
30010384:	02020202 	andeq	r0, r2, #536870912	; 0x20000000
30010388:	02020202 	andeq	r0, r2, #536870912	; 0x20000000
3001038c:	02020202 	andeq	r0, r2, #536870912	; 0x20000000
30010390:	02020202 	andeq	r0, r2, #536870912	; 0x20000000
30010394:	02020202 	andeq	r0, r2, #536870912	; 0x20000000
30010398:	10020202 	andne	r0, r2, r2, lsl #4
3001039c:	02020202 	andeq	r0, r2, #536870912	; 0x20000000
300103a0:	02020202 	andeq	r0, r2, #536870912	; 0x20000000

300103a4 <warn.1283>:
300103a4:	00000001 	andeq	r0, r0, r1

300103a8 <curblock>:
300103a8:	Address 0x00000000300103a8 is out of bounds.


Disassembly of section .bss:

300103ac <my_t210_I2C>:
	...

300103bc <y.913>:
300103bc:	00000000 	andeq	r0, r0, r0

300103c0 <x.912>:
300103c0:	00000000 	andeq	r0, r0, r0

300103c4 <theKernel>:
300103c4:	00000000 	andeq	r0, r0, r0

300103c8 <pCurTag>:
300103c8:	00000000 	andeq	r0, r0, r0

300103cc <buffer>:
	...

300109a8 <packet_len>:
	...

300109aa <arpbuf>:
	...

300109d4 <inbuf>:
	...

30010dd4 <___strtok>:
30010dd4:	00000000 	andeq	r0, r0, r0

30010dd8 <outbuf>:
	...

300111d8 <sendbuf>:
	...

Disassembly of section .ARM.attributes:

00000000 <.ARM.attributes>:
   0:	00002341 	andeq	r2, r0, r1, asr #6
   4:	61656100 	cmnvs	r5, r0, lsl #2
   8:	01006962 	tsteq	r0, r2, ror #18
   c:	00000019 	andeq	r0, r0, r9, lsl r0
  10:	00543405 	subseq	r3, r4, r5, lsl #8
  14:	01080206 	tsteq	r8, r6, lsl #4
  18:	01140412 	tsteq	r4, r2, lsl r4
  1c:	03170115 	tsteq	r7, #1073741829	; 0x40000005
  20:	021a0118 	andseq	r0, sl, #24, 2

Disassembly of section .comment:

00000000 <.comment>:
   0:	43434700 	movtmi	r4, #14080	; 0x3700
   4:	5328203a 			; <UNDEFINED> instruction: 0x5328203a
   8:	6372756f 	cmnvs	r2, #465567744	; 0x1bc00000
   c:	20797265 	rsbscs	r7, r9, r5, ror #4
  10:	202b2b47 	eorcs	r2, fp, r7, asr #22
  14:	6574694c 	ldrbvs	r6, [r4, #-2380]!	; 0xfffff6b4
  18:	30303220 	eorscc	r3, r0, r0, lsr #4
  1c:	2d337138 	ldfcss	f7, [r3, #-224]!	; 0xffffff20
  20:	20293237 	eorcs	r3, r9, r7, lsr r2
  24:	2e332e34 	mrccs	14, 1, r2, cr3, cr4, {1}
  28:	47000032 	smladxmi	r0, r2, r0, r0
  2c:	203a4343 	eorscs	r4, sl, r3, asr #6
  30:	756f5328 	strbvc	r5, [pc, #-808]!	; fffffd10 <bss_end+0xcffee738>
  34:	72656372 	rsbvc	r6, r5, #-939524095	; 0xc8000001
  38:	2b472079 	blcs	11c8224 <_start-0x2ee3fddc>
  3c:	694c202b 	stmdbvs	ip, {r0, r1, r3, r5, sp}^
  40:	32206574 	eorcc	r6, r0, #116, 10	; 0x1d000000
  44:	71383030 	teqvc	r8, r0, lsr r0
  48:	32372d33 	eorscc	r2, r7, #3264	; 0xcc0
  4c:	2e342029 	cdpcs	0, 3, cr2, cr4, cr9, {1}
  50:	00322e33 	eorseq	r2, r2, r3, lsr lr
  54:	43434700 	movtmi	r4, #14080	; 0x3700
  58:	5328203a 			; <UNDEFINED> instruction: 0x5328203a
  5c:	6372756f 	cmnvs	r2, #465567744	; 0x1bc00000
  60:	20797265 	rsbscs	r7, r9, r5, ror #4
  64:	202b2b47 	eorcs	r2, fp, r7, asr #22
  68:	6574694c 	ldrbvs	r6, [r4, #-2380]!	; 0xfffff6b4
  6c:	30303220 	eorscc	r3, r0, r0, lsr #4
  70:	2d337138 	ldfcss	f7, [r3, #-224]!	; 0xffffff20
  74:	20293237 	eorcs	r3, r9, r7, lsr r2
  78:	2e332e34 	mrccs	14, 1, r2, cr3, cr4, {1}
  7c:	47000032 	smladxmi	r0, r2, r0, r0
  80:	203a4343 	eorscs	r4, sl, r3, asr #6
  84:	756f5328 	strbvc	r5, [pc, #-808]!	; fffffd64 <bss_end+0xcffee78c>
  88:	72656372 	rsbvc	r6, r5, #-939524095	; 0xc8000001
  8c:	2b472079 	blcs	11c8278 <_start-0x2ee3fd88>
  90:	694c202b 	stmdbvs	ip, {r0, r1, r3, r5, sp}^
  94:	32206574 	eorcc	r6, r0, #116, 10	; 0x1d000000
  98:	71383030 	teqvc	r8, r0, lsr r0
  9c:	32372d33 	eorscc	r2, r7, #3264	; 0xcc0
  a0:	2e342029 	cdpcs	0, 3, cr2, cr4, cr9, {1}
  a4:	00322e33 	eorseq	r2, r2, r3, lsr lr
  a8:	43434700 	movtmi	r4, #14080	; 0x3700
  ac:	5328203a 			; <UNDEFINED> instruction: 0x5328203a
  b0:	6372756f 	cmnvs	r2, #465567744	; 0x1bc00000
  b4:	20797265 	rsbscs	r7, r9, r5, ror #4
  b8:	202b2b47 	eorcs	r2, fp, r7, asr #22
  bc:	6574694c 	ldrbvs	r6, [r4, #-2380]!	; 0xfffff6b4
  c0:	30303220 	eorscc	r3, r0, r0, lsr #4
  c4:	2d337138 	ldfcss	f7, [r3, #-224]!	; 0xffffff20
  c8:	20293237 	eorcs	r3, r9, r7, lsr r2
  cc:	2e332e34 	mrccs	14, 1, r2, cr3, cr4, {1}
  d0:	47000032 	smladxmi	r0, r2, r0, r0
  d4:	203a4343 	eorscs	r4, sl, r3, asr #6
  d8:	756f5328 	strbvc	r5, [pc, #-808]!	; fffffdb8 <bss_end+0xcffee7e0>
  dc:	72656372 	rsbvc	r6, r5, #-939524095	; 0xc8000001
  e0:	2b472079 	blcs	11c82cc <_start-0x2ee3fd34>
  e4:	694c202b 	stmdbvs	ip, {r0, r1, r3, r5, sp}^
  e8:	32206574 	eorcc	r6, r0, #116, 10	; 0x1d000000
  ec:	71383030 	teqvc	r8, r0, lsr r0
  f0:	32372d33 	eorscc	r2, r7, #3264	; 0xcc0
  f4:	2e342029 	cdpcs	0, 3, cr2, cr4, cr9, {1}
  f8:	00322e33 	eorseq	r2, r2, r3, lsr lr
  fc:	43434700 	movtmi	r4, #14080	; 0x3700
 100:	5328203a 			; <UNDEFINED> instruction: 0x5328203a
 104:	6372756f 	cmnvs	r2, #465567744	; 0x1bc00000
 108:	20797265 	rsbscs	r7, r9, r5, ror #4
 10c:	202b2b47 	eorcs	r2, fp, r7, asr #22
 110:	6574694c 	ldrbvs	r6, [r4, #-2380]!	; 0xfffff6b4
 114:	30303220 	eorscc	r3, r0, r0, lsr #4
 118:	2d337138 	ldfcss	f7, [r3, #-224]!	; 0xffffff20
 11c:	20293237 	eorcs	r3, r9, r7, lsr r2
 120:	2e332e34 	mrccs	14, 1, r2, cr3, cr4, {1}
 124:	47000032 	smladxmi	r0, r2, r0, r0
 128:	203a4343 	eorscs	r4, sl, r3, asr #6
 12c:	756f5328 	strbvc	r5, [pc, #-808]!	; fffffe0c <bss_end+0xcffee834>
 130:	72656372 	rsbvc	r6, r5, #-939524095	; 0xc8000001
 134:	2b472079 	blcs	11c8320 <_start-0x2ee3fce0>
 138:	694c202b 	stmdbvs	ip, {r0, r1, r3, r5, sp}^
 13c:	32206574 	eorcc	r6, r0, #116, 10	; 0x1d000000
 140:	71383030 	teqvc	r8, r0, lsr r0
 144:	32372d33 	eorscc	r2, r7, #3264	; 0xcc0
 148:	2e342029 	cdpcs	0, 3, cr2, cr4, cr9, {1}
 14c:	00322e33 	eorseq	r2, r2, r3, lsr lr
 150:	43434700 	movtmi	r4, #14080	; 0x3700
 154:	5328203a 			; <UNDEFINED> instruction: 0x5328203a
 158:	6372756f 	cmnvs	r2, #465567744	; 0x1bc00000
 15c:	20797265 	rsbscs	r7, r9, r5, ror #4
 160:	202b2b47 	eorcs	r2, fp, r7, asr #22
 164:	6574694c 	ldrbvs	r6, [r4, #-2380]!	; 0xfffff6b4
 168:	30303220 	eorscc	r3, r0, r0, lsr #4
 16c:	2d337138 	ldfcss	f7, [r3, #-224]!	; 0xffffff20
 170:	20293237 	eorcs	r3, r9, r7, lsr r2
 174:	2e332e34 	mrccs	14, 1, r2, cr3, cr4, {1}
 178:	47000032 	smladxmi	r0, r2, r0, r0
 17c:	203a4343 	eorscs	r4, sl, r3, asr #6
 180:	756f5328 	strbvc	r5, [pc, #-808]!	; fffffe60 <bss_end+0xcffee888>
 184:	72656372 	rsbvc	r6, r5, #-939524095	; 0xc8000001
 188:	2b472079 	blcs	11c8374 <_start-0x2ee3fc8c>
 18c:	694c202b 	stmdbvs	ip, {r0, r1, r3, r5, sp}^
 190:	32206574 	eorcc	r6, r0, #116, 10	; 0x1d000000
 194:	71383030 	teqvc	r8, r0, lsr r0
 198:	32372d33 	eorscc	r2, r7, #3264	; 0xcc0
 19c:	2e342029 	cdpcs	0, 3, cr2, cr4, cr9, {1}
 1a0:	00322e33 	eorseq	r2, r2, r3, lsr lr
 1a4:	43434700 	movtmi	r4, #14080	; 0x3700
 1a8:	5328203a 			; <UNDEFINED> instruction: 0x5328203a
 1ac:	6372756f 	cmnvs	r2, #465567744	; 0x1bc00000
 1b0:	20797265 	rsbscs	r7, r9, r5, ror #4
 1b4:	202b2b47 	eorcs	r2, fp, r7, asr #22
 1b8:	6574694c 	ldrbvs	r6, [r4, #-2380]!	; 0xfffff6b4
 1bc:	30303220 	eorscc	r3, r0, r0, lsr #4
 1c0:	2d337138 	ldfcss	f7, [r3, #-224]!	; 0xffffff20
 1c4:	20293237 	eorcs	r3, r9, r7, lsr r2
 1c8:	2e332e34 	mrccs	14, 1, r2, cr3, cr4, {1}
 1cc:	47000032 	smladxmi	r0, r2, r0, r0
 1d0:	203a4343 	eorscs	r4, sl, r3, asr #6
 1d4:	756f5328 	strbvc	r5, [pc, #-808]!	; fffffeb4 <bss_end+0xcffee8dc>
 1d8:	72656372 	rsbvc	r6, r5, #-939524095	; 0xc8000001
 1dc:	2b472079 	blcs	11c83c8 <_start-0x2ee3fc38>
 1e0:	694c202b 	stmdbvs	ip, {r0, r1, r3, r5, sp}^
 1e4:	32206574 	eorcc	r6, r0, #116, 10	; 0x1d000000
 1e8:	71383030 	teqvc	r8, r0, lsr r0
 1ec:	32372d33 	eorscc	r2, r7, #3264	; 0xcc0
 1f0:	2e342029 	cdpcs	0, 3, cr2, cr4, cr9, {1}
 1f4:	00322e33 	eorseq	r2, r2, r3, lsr lr
 1f8:	43434700 	movtmi	r4, #14080	; 0x3700
 1fc:	5328203a 			; <UNDEFINED> instruction: 0x5328203a
 200:	6372756f 	cmnvs	r2, #465567744	; 0x1bc00000
 204:	20797265 	rsbscs	r7, r9, r5, ror #4
 208:	202b2b47 	eorcs	r2, fp, r7, asr #22
 20c:	6574694c 	ldrbvs	r6, [r4, #-2380]!	; 0xfffff6b4
 210:	30303220 	eorscc	r3, r0, r0, lsr #4
 214:	2d337138 	ldfcss	f7, [r3, #-224]!	; 0xffffff20
 218:	20293237 	eorcs	r3, r9, r7, lsr r2
 21c:	2e332e34 	mrccs	14, 1, r2, cr3, cr4, {1}
 220:	47000032 	smladxmi	r0, r2, r0, r0
 224:	203a4343 	eorscs	r4, sl, r3, asr #6
 228:	756f5328 	strbvc	r5, [pc, #-808]!	; ffffff08 <bss_end+0xcffee930>
 22c:	72656372 	rsbvc	r6, r5, #-939524095	; 0xc8000001
 230:	2b472079 	blcs	11c841c <_start-0x2ee3fbe4>
 234:	694c202b 	stmdbvs	ip, {r0, r1, r3, r5, sp}^
 238:	32206574 	eorcc	r6, r0, #116, 10	; 0x1d000000
 23c:	71383030 	teqvc	r8, r0, lsr r0
 240:	32372d33 	eorscc	r2, r7, #3264	; 0xcc0
 244:	2e342029 	cdpcs	0, 3, cr2, cr4, cr9, {1}
 248:	00322e33 	eorseq	r2, r2, r3, lsr lr
 24c:	43434700 	movtmi	r4, #14080	; 0x3700
 250:	5328203a 			; <UNDEFINED> instruction: 0x5328203a
 254:	6372756f 	cmnvs	r2, #465567744	; 0x1bc00000
 258:	20797265 	rsbscs	r7, r9, r5, ror #4
 25c:	202b2b47 	eorcs	r2, fp, r7, asr #22
 260:	6574694c 	ldrbvs	r6, [r4, #-2380]!	; 0xfffff6b4
 264:	30303220 	eorscc	r3, r0, r0, lsr #4
 268:	2d337138 	ldfcss	f7, [r3, #-224]!	; 0xffffff20
 26c:	20293237 	eorcs	r3, r9, r7, lsr r2
 270:	2e332e34 	mrccs	14, 1, r2, cr3, cr4, {1}
 274:	47000032 	smladxmi	r0, r2, r0, r0
 278:	203a4343 	eorscs	r4, sl, r3, asr #6
 27c:	756f5328 	strbvc	r5, [pc, #-808]!	; ffffff5c <bss_end+0xcffee984>
 280:	72656372 	rsbvc	r6, r5, #-939524095	; 0xc8000001
 284:	2b472079 	blcs	11c8470 <_start-0x2ee3fb90>
 288:	694c202b 	stmdbvs	ip, {r0, r1, r3, r5, sp}^
 28c:	32206574 	eorcc	r6, r0, #116, 10	; 0x1d000000
 290:	71383030 	teqvc	r8, r0, lsr r0
 294:	32372d33 	eorscc	r2, r7, #3264	; 0xcc0
 298:	2e342029 	cdpcs	0, 3, cr2, cr4, cr9, {1}
 29c:	00322e33 	eorseq	r2, r2, r3, lsr lr
 2a0:	43434700 	movtmi	r4, #14080	; 0x3700
 2a4:	5328203a 			; <UNDEFINED> instruction: 0x5328203a
 2a8:	6372756f 	cmnvs	r2, #465567744	; 0x1bc00000
 2ac:	20797265 	rsbscs	r7, r9, r5, ror #4
 2b0:	202b2b47 	eorcs	r2, fp, r7, asr #22
 2b4:	6574694c 	ldrbvs	r6, [r4, #-2380]!	; 0xfffff6b4
 2b8:	30303220 	eorscc	r3, r0, r0, lsr #4
 2bc:	2d337138 	ldfcss	f7, [r3, #-224]!	; 0xffffff20
 2c0:	20293237 	eorcs	r3, r9, r7, lsr r2
 2c4:	2e332e34 	mrccs	14, 1, r2, cr3, cr4, {1}
 2c8:	47000032 	smladxmi	r0, r2, r0, r0
 2cc:	203a4343 	eorscs	r4, sl, r3, asr #6
 2d0:	756f5328 	strbvc	r5, [pc, #-808]!	; ffffffb0 <bss_end+0xcffee9d8>
 2d4:	72656372 	rsbvc	r6, r5, #-939524095	; 0xc8000001
 2d8:	2b472079 	blcs	11c84c4 <_start-0x2ee3fb3c>
 2dc:	694c202b 	stmdbvs	ip, {r0, r1, r3, r5, sp}^
 2e0:	32206574 	eorcc	r6, r0, #116, 10	; 0x1d000000
 2e4:	71383030 	teqvc	r8, r0, lsr r0
 2e8:	32372d33 	eorscc	r2, r7, #3264	; 0xcc0
 2ec:	2e342029 	cdpcs	0, 3, cr2, cr4, cr9, {1}
 2f0:	00322e33 	eorseq	r2, r2, r3, lsr lr

Disassembly of section .debug_line:

00000000 <.debug_line>:
   0:	000000a5 	andeq	r0, r0, r5, lsr #1
   4:	001e0002 	andseq	r0, lr, r2
   8:	01020000 	mrseq	r0, (UNDEF: 2)
   c:	000d0efb 	strdeq	r0, [sp], -fp
  10:	01010101 	tsteq	r1, r1, lsl #2
  14:	01000000 	mrseq	r0, (UNDEF: 0)
  18:	00010000 	andeq	r0, r1, r0
  1c:	72617473 	rsbvc	r7, r1, #1929379840	; 0x73000000
  20:	00532e74 	subseq	r2, r3, r4, ror lr
  24:	00000000 	andeq	r0, r0, r0
  28:	00020500 	andeq	r0, r2, r0, lsl #10
  2c:	1a300080 	bne	c00234 <_start-0x2f407dcc>
  30:	2f2f2f2f 	svccs	0x002f2f2f
  34:	032f2f2f 			; <UNDEFINED> instruction: 0x032f2f2f
  38:	3030f20b 	eorscc	pc, r0, fp, lsl #4
  3c:	2f303030 	svccs	0x00303030
  40:	30302f2f 	eorscc	r2, r0, pc, lsr #30
  44:	2f2f2f2f 	svccs	0x002f2f2f
  48:	302f2f2f 	eorcc	r2, pc, pc, lsr #30
  4c:	2f35302f 	svccs	0x0035302f
  50:	322f2f2f 	eorcc	r2, pc, #47, 30	; 0xbc
  54:	312f2f2f 			; <UNDEFINED> instruction: 0x312f2f2f
  58:	2f302f2f 	svccs	0x00302f2f
  5c:	2f302f30 	svccs	0x00302f30
  60:	2f2f312f 	svccs	0x002f312f
  64:	032f2f2f 			; <UNDEFINED> instruction: 0x032f2f2f
  68:	2f2f2e0f 	svccs	0x002f2e0f
  6c:	302f2f30 	eorcc	r2, pc, r0, lsr pc	; <UNPREDICTABLE>
  70:	2f302f2f 	svccs	0x00302f2f
  74:	2f2f302f 	svccs	0x002f302f
  78:	302f2f30 	eorcc	r2, pc, r0, lsr pc	; <UNPREDICTABLE>
  7c:	2f2f2f32 	svccs	0x002f2f32
  80:	2f2f312f 	svccs	0x002f312f
  84:	2f31302f 	svccs	0x0031302f
  88:	312f2f2f 			; <UNDEFINED> instruction: 0x312f2f2f
  8c:	2f2f2f2f 	svccs	0x002f2f2f
  90:	302f2f31 	eorcc	r2, pc, r1, lsr pc	; <UNPREDICTABLE>
  94:	2f2f2f32 	svccs	0x002f2f32
  98:	2f2f2f32 	svccs	0x002f2f32
  9c:	2f2f3230 	svccs	0x002f3230
  a0:	302f2f30 	eorcc	r2, pc, r0, lsr pc	; <UNPREDICTABLE>
  a4:	01003002 	tsteq	r0, r2
  a8:	00009701 	andeq	r9, r0, r1, lsl #14
  ac:	1c000200 	sfmne	f0, 4, [r0], {-0}
  b0:	02000000 	andeq	r0, r0, #0
  b4:	0d0efb01 	vstreq	d15, [lr, #-4]
  b8:	01010100 	mrseq	r0, (UNDEF: 17)
  bc:	00000001 	andeq	r0, r0, r1
  c0:	01000001 	tsteq	r0, r1
  c4:	6d656d00 	stclvs	13, cr6, [r5, #-0]
  c8:	0000532e 	andeq	r5, r0, lr, lsr #6
  cc:	00000000 	andeq	r0, r0, r0
  d0:	823c0205 	eorshi	r0, ip, #1342177280	; 0x50000000
  d4:	21033000 	mrscs	r3, (UNDEF: 3)
  d8:	312f2f01 			; <UNDEFINED> instruction: 0x312f2f01
  dc:	2f312f2f 	svccs	0x00312f2f
  e0:	2f2f312f 	svccs	0x002f312f
  e4:	312f2f33 			; <UNDEFINED> instruction: 0x312f2f33
  e8:	2f312f2f 	svccs	0x00312f2f
  ec:	2f2f312f 	svccs	0x002f312f
  f0:	312f2f30 			; <UNDEFINED> instruction: 0x312f2f30
  f4:	2f312f2f 	svccs	0x00312f2f
  f8:	2f2f312f 	svccs	0x002f312f
  fc:	322f2f31 	eorcc	r2, pc, #49, 30	; 0xc4
 100:	2f2f2f2f 	svccs	0x002f2f2f
 104:	322f2f31 	eorcc	r2, pc, #49, 30	; 0xc4
 108:	312f312f 			; <UNDEFINED> instruction: 0x312f312f
 10c:	312f312f 			; <UNDEFINED> instruction: 0x312f312f
 110:	312f312f 			; <UNDEFINED> instruction: 0x312f312f
 114:	312f312f 			; <UNDEFINED> instruction: 0x312f312f
 118:	312f312f 			; <UNDEFINED> instruction: 0x312f312f
 11c:	302f312f 	eorcc	r3, pc, pc, lsr #2
 120:	302f302f 	eorcc	r3, pc, pc, lsr #32
 124:	302f302f 	eorcc	r3, pc, pc, lsr #32
 128:	302f302f 	eorcc	r3, pc, pc, lsr #32
 12c:	302f302f 	eorcc	r3, pc, pc, lsr #32
 130:	302f302f 	eorcc	r3, pc, pc, lsr #32
 134:	2f2f312f 	svccs	0x002f312f
 138:	302f2f30 	eorcc	r2, pc, r0, lsr pc	; <UNPREDICTABLE>
 13c:	02302f2f 	eorseq	r2, r0, #47, 30	; 0xbc
 140:	0101003a 	tsteq	r1, sl, lsr r0

Disassembly of section .debug_info:

00000000 <.debug_info>:
   0:	00000049 	andeq	r0, r0, r9, asr #32
   4:	00000002 	andeq	r0, r0, r2
   8:	01040000 	mrseq	r0, (UNDEF: 4)
   c:	00000000 	andeq	r0, r0, r0
  10:	30008000 	andcc	r8, r0, r0
  14:	3000823c 	andcc	r8, r0, ip, lsr r2
  18:	72617473 	rsbvc	r7, r1, #1929379840	; 0x73000000
  1c:	00532e74 	subseq	r2, r3, r4, ror lr
  20:	6d6f682f 	stclvs	8, cr6, [pc, #-188]!	; ffffff6c <bss_end+0xcffee994>
  24:	6d732f65 	ldclvs	15, cr2, [r3, #-404]!	; 0xfffffe6c
  28:	796d2f62 	stmdbvc	sp!, {r1, r5, r6, r8, r9, sl, fp, sp}^
  2c:	746f6f62 	strbtvc	r6, [pc], #-3938	; 34 <_start-0x30007fcc>
  30:	62796d2f 	rsbsvs	r6, r9, #3008	; 0xbc0
  34:	44746f6f 	ldrbtmi	r6, [r4], #-3951	; 0xfffff091
  38:	006f6d65 	rsbeq	r6, pc, r5, ror #26
  3c:	20554e47 	subscs	r4, r5, r7, asr #28
  40:	32205341 	eorcc	r5, r0, #67108865	; 0x4000001
  44:	2e38312e 	rsfcsep	f3, f0, #0.5
  48:	01003035 	tsteq	r0, r5, lsr r0
  4c:	00004780 	andeq	r4, r0, r0, lsl #15
  50:	14000200 	strne	r0, [r0], #-512	; 0xfffffe00
  54:	04000000 	streq	r0, [r0], #-0
  58:	0000a901 	andeq	sl, r0, r1, lsl #18
  5c:	00823c00 	addeq	r3, r2, r0, lsl #24
  60:	00844830 	addeq	r4, r4, r0, lsr r8
  64:	6d656d30 	stclvs	13, cr6, [r5, #-192]!	; 0xffffff40
  68:	2f00532e 	svccs	0x0000532e
  6c:	656d6f68 	strbvs	r6, [sp, #-3944]!	; 0xfffff098
  70:	626d732f 	rsbvs	r7, sp, #-1140850688	; 0xbc000000
  74:	62796d2f 	rsbsvs	r6, r9, #3008	; 0xbc0
  78:	2f746f6f 	svccs	0x00746f6f
  7c:	6f62796d 	svcvs	0x0062796d
  80:	6544746f 	strbvs	r7, [r4, #-1135]	; 0xfffffb91
  84:	47006f6d 	strmi	r6, [r0, -sp, ror #30]
  88:	4120554e 			; <UNDEFINED> instruction: 0x4120554e
  8c:	2e322053 	mrccs	0, 1, r2, cr2, cr3, {2}
  90:	352e3831 	strcc	r3, [lr, #-2097]!	; 0xfffff7cf
  94:	80010030 	andhi	r0, r1, r0, lsr r0

Disassembly of section .debug_abbrev:

00000000 <.debug_abbrev>:
   0:	10001101 	andne	r1, r0, r1, lsl #2
   4:	12011106 	andne	r1, r1, #-2147483647	; 0x80000001
   8:	1b080301 	blne	200c14 <_start-0x2fe073ec>
   c:	13082508 	movwne	r2, #34056	; 0x8508
  10:	00000005 	andeq	r0, r0, r5
  14:	10001101 	andne	r1, r0, r1, lsl #2
  18:	12011106 	andne	r1, r1, #-2147483647	; 0x80000001
  1c:	1b080301 	blne	200c28 <_start-0x2fe073d8>
  20:	13082508 	movwne	r2, #34056	; 0x8508
  24:	00000005 	andeq	r0, r0, r5

Disassembly of section .debug_aranges:

00000000 <.debug_aranges>:
   0:	0000001c 	andeq	r0, r0, ip, lsl r0
   4:	00000002 	andeq	r0, r0, r2
   8:	00040000 	andeq	r0, r4, r0
   c:	00000000 	andeq	r0, r0, r0
  10:	30008000 	andcc	r8, r0, r0
  14:	0000023c 	andeq	r0, r0, ip, lsr r2
	...
  20:	0000001c 	andeq	r0, r0, ip, lsl r0
  24:	004d0002 	subeq	r0, sp, r2
  28:	00040000 	andeq	r0, r4, r0
  2c:	00000000 	andeq	r0, r0, r0
  30:	3000823c 	andcc	r8, r0, ip, lsr r2
  34:	0000020c 	andeq	r0, r0, ip, lsl #4
	...
