Archive member included because of file (symbol)

/arm/arm-2009q3/bin/../lib/gcc/arm-none-linux-gnueabi/4.4.1/libgcc.a(_udivsi3.o)
                              arch/arm/cpu/armv7/s5p-common/libs5p-common.o (__aeabi_uidiv)
/arm/arm-2009q3/bin/../lib/gcc/arm-none-linux-gnueabi/4.4.1/libgcc.a(_divsi3.o)
                              common/libcommon.o (__aeabi_idiv)
/arm/arm-2009q3/bin/../lib/gcc/arm-none-linux-gnueabi/4.4.1/libgcc.a(_lshrdi3.o)
                              lib/libgeneric.o (__aeabi_llsr)
/arm/arm-2009q3/bin/../lib/gcc/arm-none-linux-gnueabi/4.4.1/libgcc.a(_ashldi3.o)
                              lib/libgeneric.o (__aeabi_llsl)
/arm/arm-2009q3/bin/../lib/gcc/arm-none-linux-gnueabi/4.4.1/libgcc.a(_dvmd_lnx.o)
                              /arm/arm-2009q3/bin/../lib/gcc/arm-none-linux-gnueabi/4.4.1/libgcc.a(_udivsi3.o) (__aeabi_idiv0)

Discarded input sections

 .data          0x00000000        0x0 arch/arm/cpu/armv7/start.o
 .bss           0x00000000        0x0 arch/arm/cpu/armv7/start.o
 .data          0x00000000        0x0 board/samsung/goni/lowlevel_init.o
 .bss           0x00000000        0x0 board/samsung/goni/lowlevel_init.o
 .data          0x00000000        0x0 board/samsung/goni/cpu_init.o
 .bss           0x00000000        0x0 board/samsung/goni/cpu_init.o
 .text          0x00000000        0x0 board/samsung/goni/movi.o
 .data          0x00000000        0x0 board/samsung/goni/movi.o
 .bss           0x00000000        0x0 board/samsung/goni/movi.o
 .text          0x00000000        0x0 arch/arm/cpu/armv7/libarmv7.o
 .text.__v7_outer_cache_enable
                0x00000000        0x4 arch/arm/cpu/armv7/libarmv7.o
 .text.__v7_outer_cache_disable
                0x00000000        0x4 arch/arm/cpu/armv7/libarmv7.o
 .text.__v7_outer_cache_inval_range
                0x00000000        0x4 arch/arm/cpu/armv7/libarmv7.o
 .text.mmu_page_table_flush
                0x00000000       0x10 arch/arm/cpu/armv7/libarmv7.o
 .text.invalidate_dcache_range
                0x00000000       0x24 arch/arm/cpu/armv7/libarmv7.o
 .text.sdelay   0x00000000        0xc arch/arm/cpu/armv7/libarmv7.o
 .text.sr32     0x00000000       0x20 arch/arm/cpu/armv7/libarmv7.o
 .text.wait_on_value
                0x00000000       0x34 arch/arm/cpu/armv7/libarmv7.o
 .data          0x00000000        0x0 arch/arm/cpu/armv7/libarmv7.o
 .bss           0x00000000        0x0 arch/arm/cpu/armv7/libarmv7.o
 .text          0x00000000        0x0 arch/arm/cpu/armv7/s5p-common/libs5p-common.o
 .text.get_device_type
                0x00000000       0x10 arch/arm/cpu/armv7/s5p-common/libs5p-common.o
 .text.timer_get_us
                0x00000000       0x54 arch/arm/cpu/armv7/s5p-common/libs5p-common.o
 .text.s5p_config_sromc
                0x00000000       0x4c arch/arm/cpu/armv7/s5p-common/libs5p-common.o
 .text.pwm_disable
                0x00000000       0x50 arch/arm/cpu/armv7/s5p-common/libs5p-common.o
 .data          0x00000000        0x0 arch/arm/cpu/armv7/s5p-common/libs5p-common.o
 .data.s5p_cpu_rev
                0x00000000        0x4 arch/arm/cpu/armv7/s5p-common/libs5p-common.o
 .bss           0x00000000        0x0 arch/arm/cpu/armv7/s5p-common/libs5p-common.o
 .bss.base_time_us.4128
                0x00000000        0x4 arch/arm/cpu/armv7/s5p-common/libs5p-common.o
 .text.set_mmc_clk
                0x00000000        0x4 arch/arm/cpu/armv7/s5pc1xx/libs5pc1xx.o
 .data          0x00000000        0x0 arch/arm/cpu/armv7/s5pc1xx/libs5pc1xx.o
 .bss           0x00000000        0x0 arch/arm/cpu/armv7/s5pc1xx/libs5pc1xx.o
 .text.__red_led_off
                0x00000000        0x4 arch/arm/lib/libarm.o
 .text.__green_led_on
                0x00000000        0x4 arch/arm/lib/libarm.o
 .text.__green_led_off
                0x00000000        0x4 arch/arm/lib/libarm.o
 .text.__yellow_led_on
                0x00000000        0x4 arch/arm/lib/libarm.o
 .text.__yellow_led_off
                0x00000000        0x4 arch/arm/lib/libarm.o
 .text.__blue_led_on
                0x00000000        0x4 arch/arm/lib/libarm.o
 .text.__blue_led_off
                0x00000000        0x4 arch/arm/lib/libarm.o
 .text.__dram_init_banksize
                0x00000000       0x1c arch/arm/lib/libarm.o
 .text.__arch_cpu_init
                0x00000000        0x8 arch/arm/lib/libarm.o
 .text.__power_init_board
                0x00000000        0x8 arch/arm/lib/libarm.o
 .text.__flush_cache
                0x00000000        0x4 arch/arm/lib/libarm.o
 .text.__flush_dcache_all
                0x00000000        0xc arch/arm/lib/libarm.o
 .text.__enable_caches
                0x00000000        0xc arch/arm/lib/libarm.o
 .text.__arm_init_before_mmu
                0x00000000        0x4 arch/arm/lib/libarm.o
 .text.__mmu_page_table_flush
                0x00000000        0x4 arch/arm/lib/libarm.o
 .text.mmu_set_region_dcache_behaviour
                0x00000000       0x50 arch/arm/lib/libarm.o
 .data          0x00000000        0x0 arch/arm/lib/libarm.o
 .bss           0x00000000        0x0 arch/arm/lib/libarm.o
 .text          0x00000000        0x0 common/libcommon.o
 .text.flush_dcache_all
                0x00000000        0xc common/libcommon.o
 .text.invalidate_icache_all
                0x00000000        0xc common/libcommon.o
 .text.getenv_hex
                0x00000000       0x34 common/libcommon.o
 .text.disable_ctrlc
                0x00000000       0x18 common/libcommon.o
 .text.dbg      0x00000000        0xc common/libcommon.o
 .text.fprintf  0x00000000       0x50 common/libcommon.o
 .text.malloc_usable_size
                0x00000000       0x44 common/libcommon.o
 .text.mallopt  0x00000000       0x74 common/libcommon.o
 .text.cfree    0x00000000        0x4 common/libcommon.o
 .text.pvalloc  0x00000000       0x18 common/libcommon.o
 .text.valloc   0x00000000        0xc common/libcommon.o
 .text.env_flags_parse_varaccess_from_binflags
                0x00000000       0x4c common/libcommon.o
 .text.hash_block
                0x00000000       0x74 common/libcommon.o
 .text.indenter
                0x00000000       0x10 common/libcommon.o
 .text.unset_local_var
                0x00000000       0x9c common/libcommon.o
 .text.genimg_has_config
                0x00000000        0x8 common/libcommon.o
 .text.get_table_entry_id
                0x00000000       0x4c common/libcommon.o
 .text.genimg_get_comp_id
                0x00000000       0x18 common/libcommon.o
 .text.genimg_get_type_id
                0x00000000       0x18 common/libcommon.o
 .text.genimg_get_arch_id
                0x00000000       0x18 common/libcommon.o
 .text.genimg_get_os_id
                0x00000000       0x18 common/libcommon.o
 .text.image_setup_linux
                0x00000000       0x2c common/libcommon.o
 .text.getenv_bootm_mapsize
                0x00000000       0x30 common/libcommon.o
 .text.parse_line
                0x00000000       0x8c common/libcommon.o
 .text.get_ram_size
                0x00000000      0x108 common/libcommon.o
 .text.__splash_screen_prepare
                0x00000000        0x8 common/libcommon.o
 .data          0x00000000        0x0 common/libcommon.o
 .data.mmap_threshold
                0x00000000        0x4 common/libcommon.o
 .data.hash_algo
                0x00000000       0x10 common/libcommon.o
 .data.blanks.4625
                0x00000000       0x28 common/libcommon.o
 .bss           0x00000000        0x0 common/libcommon.o
 .bss.n_mmaps_max
                0x00000000        0x4 common/libcommon.o
 .bss.env_ptr   0x00000000        0x4 common/libcommon.o
 .bss.save_addr
                0x00000000        0x4 common/libcommon.o
 .bss.save_size
                0x00000000        0x4 common/libcommon.o
 .text          0x00000000        0x0 disk/libdisk.o
 .text.print_part
                0x00000000       0xe8 disk/libdisk.o
 .text.print_partition_extended
                0x00000000      0x274 disk/libdisk.o
 .text.print_part_dos
                0x00000000       0x34 disk/libdisk.o
 .data          0x00000000        0x0 disk/libdisk.o
 .bss           0x00000000        0x0 disk/libdisk.o
 .text          0x00000000        0x0 drivers/gpio/libgpio.o
 .text.s5p_gpio_set_pull
                0x00000000       0x24 drivers/gpio/libgpio.o
 .text.s5p_gpio_set_drv
                0x00000000       0x24 drivers/gpio/libgpio.o
 .text.s5p_gpio_set_rate
                0x00000000       0x28 drivers/gpio/libgpio.o
 .text.gpio_free
                0x00000000        0x8 drivers/gpio/libgpio.o
 .text.gpio_set_value
                0x00000000       0x34 drivers/gpio/libgpio.o
 .data          0x00000000        0x0 drivers/gpio/libgpio.o
 .bss           0x00000000        0x0 drivers/gpio/libgpio.o
 .text          0x00000000        0x0 drivers/i2c/libi2c.o
 .text.i2c_reloc_fixup
                0x00000000        0x4 drivers/i2c/libi2c.o
 .text.i2c_get_bus_num
                0x00000000        0x8 drivers/i2c/libi2c.o
 .text.__i2c_init
                0x00000000       0x14 drivers/i2c/libi2c.o
 .text.i2c_get_bus_speed
                0x00000000       0x14 drivers/i2c/libi2c.o
 .text.i2c_set_bus_speed
                0x00000000       0x5c drivers/i2c/libi2c.o
 .text.i2c_reg_write
                0x00000000       0x24 drivers/i2c/libi2c.o
 .text.i2c_reg_read
                0x00000000       0x24 drivers/i2c/libi2c.o
 .text.i2c_probe
                0x00000000       0x28 drivers/i2c/libi2c.o
 .data          0x00000000        0x0 drivers/i2c/libi2c.o
 .bss           0x00000000        0x0 drivers/i2c/libi2c.o
 .text          0x00000000        0x0 drivers/input/libinput.o
 .text.input_tstc
                0x00000000       0x44 drivers/input/libinput.o
 .text.input_getc
                0x00000000       0x60 drivers/input/libinput.o
 .text.array_search
                0x00000000       0x2c drivers/input/libinput.o
 .text.input_add_table
                0x00000000       0x48 drivers/input/libinput.o
 .text.input_set_delays
                0x00000000        0xc drivers/input/libinput.o
 .text.input_stdio_register
                0x00000000       0x50 drivers/input/libinput.o
 .text.input_init
                0x00000000       0x94 drivers/input/libinput.o
 .text.sort_array_by_ordering
                0x00000000       0xe0 drivers/input/libinput.o
 .text.input_send_keycodes
                0x00000000      0x2f8 drivers/input/libinput.o
 .rodata.kbd_to_ansi364
                0x00000000       0x20 drivers/input/libinput.o
 .rodata.kbd_plain_xlate
                0x00000000       0x64 drivers/input/libinput.o
 .rodata.str1.1
                0x00000000       0x16 drivers/input/libinput.o
 .rodata.CSWTCH.80
                0x00000000       0x34 drivers/input/libinput.o
 .data          0x00000000        0x0 drivers/input/libinput.o
 .data.kbd_ctrl_xlate
                0x00000000       0x64 drivers/input/libinput.o
 .data.kbd_shift_xlate
                0x00000000       0x64 drivers/input/libinput.o
 .bss           0x00000000        0x0 drivers/input/libinput.o
 .text          0x00000000        0x0 drivers/mmc/libmmc.o
 .text.mmc_set_relative_addr
                0x00000000       0x38 drivers/mmc/libmmc.o
 .text.mmc_set_clock
                0x00000000       0x20 drivers/mmc/libmmc.o
 .text.movi_write
                0x00000000       0x18 drivers/mmc/libmmc.o
 .text.movi_read
                0x00000000       0x18 drivers/mmc/libmmc.o
 .data          0x00000000        0x0 drivers/mmc/libmmc.o
 .bss           0x00000000        0x0 drivers/mmc/libmmc.o
 .bss.mmc_global
                0x00000000        0xc drivers/mmc/libmmc.o
 .bss.mmc_default
                0x00000000        0x4 drivers/mmc/libmmc.o
 .text          0x00000000        0x0 drivers/mtd/libmtd.o
 .text.get_mtd_device
                0x00000000       0x78 drivers/mtd/libmtd.o
 .text.mtd_erase
                0x00000000       0xb4 drivers/mtd/libmtd.o
 .text.mtd_write
                0x00000000       0xa4 drivers/mtd/libmtd.o
 .text.mtd_panic_write
                0x00000000       0xa4 drivers/mtd/libmtd.o
 .text.mtd_read_oob
                0x00000000       0x30 drivers/mtd/libmtd.o
 .text.mtd_get_fact_prot_info
                0x00000000       0x28 drivers/mtd/libmtd.o
 .text.mtd_read_fact_prot_reg
                0x00000000       0x50 drivers/mtd/libmtd.o
 .text.mtd_get_user_prot_info
                0x00000000       0x28 drivers/mtd/libmtd.o
 .text.mtd_read_user_prot_reg
                0x00000000       0x50 drivers/mtd/libmtd.o
 .text.mtd_write_user_prot_reg
                0x00000000       0x50 drivers/mtd/libmtd.o
 .text.mtd_lock_user_prot_reg
                0x00000000       0x30 drivers/mtd/libmtd.o
 .text.mtd_lock
                0x00000000       0x80 drivers/mtd/libmtd.o
 .text.mtd_unlock
                0x00000000       0x80 drivers/mtd/libmtd.o
 .text.mtd_block_isbad
                0x00000000       0x48 drivers/mtd/libmtd.o
 .text.mtd_block_markbad
                0x00000000       0x58 drivers/mtd/libmtd.o
 .text.mtd_read
                0x00000000       0xb0 drivers/mtd/libmtd.o
 .text.put_mtd_device
                0x00000000       0x2c drivers/mtd/libmtd.o
 .text.del_mtd_device
                0x00000000       0x50 drivers/mtd/libmtd.o
 .text.add_mtd_device
                0x00000000       0x7c drivers/mtd/libmtd.o
 .text.part_write_oob
                0x00000000       0xac drivers/mtd/libmtd.o
 .text.mtd_erase_callback
                0x00000000       0x68 drivers/mtd/libmtd.o
 .text.part_sync
                0x00000000       0x1c drivers/mtd/libmtd.o
 .text.part_block_isbad
                0x00000000       0x1c drivers/mtd/libmtd.o
 .text.part_erase
                0x00000000       0x6c drivers/mtd/libmtd.o
 .text.part_block_markbad
                0x00000000       0x30 drivers/mtd/libmtd.o
 .text.part_unlock
                0x00000000       0x1c drivers/mtd/libmtd.o
 .text.part_lock
                0x00000000       0x1c drivers/mtd/libmtd.o
 .text.part_get_fact_prot_info
                0x00000000        0x8 drivers/mtd/libmtd.o
 .text.part_get_user_prot_info
                0x00000000        0x8 drivers/mtd/libmtd.o
 .text.part_lock_user_prot_reg
                0x00000000        0x8 drivers/mtd/libmtd.o
 .text.part_write_user_prot_reg
                0x00000000        0x8 drivers/mtd/libmtd.o
 .text.part_read_fact_prot_reg
                0x00000000        0x8 drivers/mtd/libmtd.o
 .text.part_read_user_prot_reg
                0x00000000        0x8 drivers/mtd/libmtd.o
 .text.part_read_oob
                0x00000000       0xac drivers/mtd/libmtd.o
 .text.part_write
                0x00000000       0x1c drivers/mtd/libmtd.o
 .text.part_read
                0x00000000       0x94 drivers/mtd/libmtd.o
 .text.del_mtd_partitions
                0x00000000       0x88 drivers/mtd/libmtd.o
 .text.add_mtd_partitions
                0x00000000      0x664 drivers/mtd/libmtd.o
 .rodata.str1.1
                0x00000000      0x1d6 drivers/mtd/libmtd.o
 .rodata.__FUNCTION__.5030
                0x00000000       0x14 drivers/mtd/libmtd.o
 .data          0x00000000        0x0 drivers/mtd/libmtd.o
 .bss           0x00000000        0x0 drivers/mtd/libmtd.o
 .bss.mtd_partitions
                0x00000000        0x8 drivers/mtd/libmtd.o
 .text          0x00000000        0x0 drivers/net/libnet.o
 .text.dm9000_write_srom_word
                0x00000000       0x54 drivers/net/libnet.o
 .data          0x00000000        0x0 drivers/net/libnet.o
 .bss           0x00000000        0x0 drivers/net/libnet.o
 .text          0x00000000        0x0 drivers/pcmcia/libpcmcia.o
 .data          0x00000000        0x0 drivers/pcmcia/libpcmcia.o
 .bss           0x00000000        0x0 drivers/pcmcia/libpcmcia.o
 .text          0x00000000        0x0 drivers/power/libpower.o
 .text.pmic_set_output
                0x00000000       0x58 drivers/power/libpower.o
 .text.pmic_probe
                0x00000000       0x38 drivers/power/libpower.o
 .data          0x00000000        0x0 drivers/power/libpower.o
 .bss           0x00000000        0x0 drivers/power/libpower.o
 .text          0x00000000        0x0 drivers/power/pmic/libpmic.o
 .data          0x00000000        0x0 drivers/power/pmic/libpmic.o
 .bss           0x00000000        0x0 drivers/power/pmic/libpmic.o
 .text          0x00000000        0x0 drivers/rtc/librtc.o
 .data          0x00000000        0x0 drivers/rtc/librtc.o
 .bss           0x00000000        0x0 drivers/rtc/librtc.o
 .text          0x00000000        0x0 drivers/serial/libserial.o
 .text.serial_reinit_all
                0x00000000       0x2c drivers/serial/libserial.o
 .text.default_serial_puts
                0x00000000       0x34 drivers/serial/libserial.o
 .bss           0x00000000        0x0 drivers/serial/libserial.o
 .text          0x00000000        0x0 drivers/spi/libspi.o
 .text.spi_do_alloc_slave
                0x00000000       0x44 drivers/spi/libspi.o
 .data          0x00000000        0x0 drivers/spi/libspi.o
 .bss           0x00000000        0x0 drivers/spi/libspi.o
 .text          0x00000000        0x0 drivers/usb/gadget/libusb_gadget.o
 .text.usb_ep_autoconfig_reset
                0x00000000       0x3c drivers/usb/gadget/libusb_gadget.o
 .text.usb_ep_autoconfig
                0x00000000      0x200 drivers/usb/gadget/libusb_gadget.o
 .text.usb_descriptor_fillbuf
                0x00000000       0x64 drivers/usb/gadget/libusb_gadget.o
 .text.usb_gadget_config_buf
                0x00000000       0x8c drivers/usb/gadget/libusb_gadget.o
 .text.usb_gadget_get_string
                0x00000000      0x184 drivers/usb/gadget/libusb_gadget.o
 .text.set_udc_gadget_private_data
                0x00000000       0x14 drivers/usb/gadget/libusb_gadget.o
 .text.get_udc_gadget_private_data
                0x00000000        0x8 drivers/usb/gadget/libusb_gadget.o
 .text.s3c_udc_ep_set_stall
                0x00000000       0x60 drivers/usb/gadget/libusb_gadget.o
 .text.s3c_udc_ep_clear_stall
                0x00000000       0x7c drivers/usb/gadget/libusb_gadget.o
 .text.s3c_udc_ep_activate
                0x00000000       0xb4 drivers/usb/gadget/libusb_gadget.o
 .text.udc_reinit
                0x00000000       0x84 drivers/usb/gadget/libusb_gadget.o
 .text.set_max_pktsize
                0x00000000       0xa8 drivers/usb/gadget/libusb_gadget.o
 .text.s3c_fifo_status
                0x00000000       0x20 drivers/usb/gadget/libusb_gadget.o
 .text.s3c_fifo_flush
                0x00000000        0x4 drivers/usb/gadget/libusb_gadget.o
 .text.otg_phy_off
                0x00000000       0xa0 drivers/usb/gadget/libusb_gadget.o
 .text.reconfig_usbd
                0x00000000      0x190 drivers/usb/gadget/libusb_gadget.o
 .text.done     0x00000000       0x58 drivers/usb/gadget/libusb_gadget.o
 .text.s3c_dequeue
                0x00000000       0x6c drivers/usb/gadget/libusb_gadget.o
 .text.nuke     0x00000000       0x34 drivers/usb/gadget/libusb_gadget.o
 .text.s3c_ep_disable
                0x00000000       0x40 drivers/usb/gadget/libusb_gadget.o
 .text.s3c_udc_set_halt
                0x00000000       0xa4 drivers/usb/gadget/libusb_gadget.o
 .text.s3c_ep_enable
                0x00000000      0x15c drivers/usb/gadget/libusb_gadget.o
 .text.setdma_rx
                0x00000000       0xb0 drivers/usb/gadget/libusb_gadget.o
 .text.s3c_fifo_read
                0x00000000       0x28 drivers/usb/gadget/libusb_gadget.o
 .text.s3c_udc_pre_setup
                0x00000000       0x50 drivers/usb/gadget/libusb_gadget.o
 .text.complete_rx
                0x00000000      0x1a4 drivers/usb/gadget/libusb_gadget.o
 .text.udc_set_address
                0x00000000       0x74 drivers/usb/gadget/libusb_gadget.o
 .text.usb_gadget_unregister_driver
                0x00000000       0xdc drivers/usb/gadget/libusb_gadget.o
 .text.setdma_tx
                0x00000000      0x130 drivers/usb/gadget/libusb_gadget.o
 .text.write_fifo_ep0
                0x00000000       0x58 drivers/usb/gadget/libusb_gadget.o
 .text.s3c_udc_probe
                0x00000000       0xc4 drivers/usb/gadget/libusb_gadget.o
 .text.s3c_udc_get_status
                0x00000000      0x110 drivers/usb/gadget/libusb_gadget.o
 .text.s3c_ep0_setup
                0x00000000      0x3fc drivers/usb/gadget/libusb_gadget.o
 .text.usb_gadget_handle_interrupts
                0x00000000      0x510 drivers/usb/gadget/libusb_gadget.o
 .text.otg_phy_init
                0x00000000       0xd4 drivers/usb/gadget/libusb_gadget.o
 .text.usb_gadget_register_driver
                0x00000000       0xa0 drivers/usb/gadget/libusb_gadget.o
 .text.s3c_queue
                0x00000000      0x27c drivers/usb/gadget/libusb_gadget.o
 .text.s3c_free_request
                0x00000000       0x3c drivers/usb/gadget/libusb_gadget.o
 .text.s3c_alloc_request
                0x00000000       0x38 drivers/usb/gadget/libusb_gadget.o
 .rodata.s3c_udc_ops
                0x00000000       0x1c drivers/usb/gadget/libusb_gadget.o
 .rodata.ep0name
                0x00000000        0xc drivers/usb/gadget/libusb_gadget.o
 .rodata.str1.1
                0x00000000       0xa4 drivers/usb/gadget/libusb_gadget.o
 .rodata.__FUNCTION__.6293
                0x00000000       0x10 drivers/usb/gadget/libusb_gadget.o
 .rodata.driver_name
                0x00000000        0x8 drivers/usb/gadget/libusb_gadget.o
 .data          0x00000000        0x0 drivers/usb/gadget/libusb_gadget.o
 .data.ep_fifo_size
                0x00000000        0x4 drivers/usb/gadget/libusb_gadget.o
 .data.ep_fifo_size2
                0x00000000        0x4 drivers/usb/gadget/libusb_gadget.o
 .data.memory   0x00000000      0x15c drivers/usb/gadget/libusb_gadget.o
 .data.reset_available
                0x00000000        0x4 drivers/usb/gadget/libusb_gadget.o
 .data.s3c_ep_ops
                0x00000000       0x24 drivers/usb/gadget/libusb_gadget.o
 .data.ep0_fifo_size
                0x00000000        0x4 drivers/usb/gadget/libusb_gadget.o
 .bss           0x00000000        0x0 drivers/usb/gadget/libusb_gadget.o
 .bss.epnum     0x00000000        0x4 drivers/usb/gadget/libusb_gadget.o
 .bss.clear_feature_flag
                0x00000000        0x4 drivers/usb/gadget/libusb_gadget.o
 .bss.g_status  0x00000000        0x2 drivers/usb/gadget/libusb_gadget.o
 .bss.reg       0x00000000        0x4 drivers/usb/gadget/libusb_gadget.o
 .bss.clear_feature_num
                0x00000000        0x1 drivers/usb/gadget/libusb_gadget.o
 .bss.usb_ctrl  0x00000000        0x4 drivers/usb/gadget/libusb_gadget.o
 .bss.regs_otg  0x00000000        0x4 drivers/usb/gadget/libusb_gadget.o
 .bss.the_controller
                0x00000000        0x4 drivers/usb/gadget/libusb_gadget.o
 .bss.phy       0x00000000        0x4 drivers/usb/gadget/libusb_gadget.o
 .bss.usb_phy_ctrl
                0x00000000        0x4 drivers/usb/gadget/libusb_gadget.o
 .bss.usb_ctrl_dma_addr
                0x00000000        0x4 drivers/usb/gadget/libusb_gadget.o
 .text          0x00000000        0x0 drivers/watchdog/libwatchdog.o
 .text.wdt_stop
                0x00000000       0x40 drivers/watchdog/libwatchdog.o
 .text.wdt_start
                0x00000000       0x64 drivers/watchdog/libwatchdog.o
 .data          0x00000000        0x0 drivers/watchdog/libwatchdog.o
 .bss           0x00000000        0x0 drivers/watchdog/libwatchdog.o
 .text          0x00000000        0x0 fs/ext4/libext4fs.o
 .data          0x00000000        0x0 fs/ext4/libext4fs.o
 .bss           0x00000000        0x0 fs/ext4/libext4fs.o
 .bss.ext4fs_symlinknest
                0x00000000        0x4 fs/ext4/libext4fs.o
 .bss.g_parent_inode
                0x00000000        0x4 fs/ext4/libext4fs.o
 .text          0x00000000        0x0 fs/fat/libfat.o
 .text.file_fat_read
                0x00000000       0x10 fs/fat/libfat.o
 .text.fat_register_device
                0x00000000       0x84 fs/fat/libfat.o
 .text.file_getfsname
                0x00000000       0x18 fs/fat/libfat.o
 .text.file_read
                0x00000000       0xa4 fs/fat/libfat.o
 .text.file_ls  0x00000000       0x94 fs/fat/libfat.o
 .text.file_detectfs
                0x00000000       0x44 fs/fat/libfat.o
 .text.file_cd  0x00000000      0x1f8 fs/fat/libfat.o
 .rodata.filesystems
                0x00000000       0x18 fs/fat/libfat.o
 .data          0x00000000        0x0 fs/fat/libfat.o
 .data.file_cwd
                0x00000000      0x200 fs/fat/libfat.o
 .data.current_filesystem
                0x00000000        0x4 fs/fat/libfat.o
 .bss           0x00000000        0x0 fs/fat/libfat.o
 .text          0x00000000        0x0 fs/libfs.o
 .text.fs_write
                0x00000000       0x80 fs/libfs.o
 .text.do_save  0x00000000      0x124 fs/libfs.o
 .data          0x00000000        0x0 fs/libfs.o
 .bss           0x00000000        0x0 fs/libfs.o
 .text          0x00000000        0x0 lib/libgeneric.o
 .text.crc32_wd_buf
                0x00000000       0x4c lib/libgeneric.o
 .text.crc7     0x00000000       0x30 lib/libgeneric.o
 .text.display_options
                0x00000000       0x20 lib/libgeneric.o
 .text.hmatch_r
                0x00000000       0xa0 lib/libgeneric.o
 .text.initcall_run_list
                0x00000000       0x38 lib/libgeneric.o
 .text.ldiv     0x00000000       0x50 lib/libgeneric.o
 .text.lmb_dump_all
                0x00000000        0x4 lib/libgeneric.o
 .text.lmb_free
                0x00000000       0xf4 lib/libgeneric.o
 .text.lmb_is_reserved
                0x00000000       0x60 lib/libgeneric.o
 .text.__arch_lmb_reserve
                0x00000000        0x4 lib/libgeneric.o
 .text.strcmp_compar
                0x00000000        0xc lib/libgeneric.o
 .text.strncasecmp
                0x00000000       0x80 lib/libgeneric.o
 .text.strcasecmp
                0x00000000        0x8 lib/libgeneric.o
 .text.strrchr  0x00000000       0x38 lib/libgeneric.o
 .text.strspn   0x00000000       0x44 lib/libgeneric.o
 .text.strtok   0x00000000       0x7c lib/libgeneric.o
 .text.strsep   0x00000000       0x34 lib/libgeneric.o
 .text.strswab  0x00000000       0x48 lib/libgeneric.o
 .text.bcopy    0x00000000       0x28 lib/libgeneric.o
 .text.memscan  0x00000000       0x30 lib/libgeneric.o
 .text.memchr   0x00000000       0x2c lib/libgeneric.o
 .text.check_bytes8
                0x00000000       0x28 lib/libgeneric.o
 .text.memchr_inv
                0x00000000      0x100 lib/libgeneric.o
 .text.mdelay   0x00000000       0x24 lib/libgeneric.o
 .text.ustrtoul
                0x00000000       0x74 lib/libgeneric.o
 .text.ustrtoull
                0x00000000       0x8c lib/libgeneric.o
 .text.__assert_fail
                0x00000000       0x14 lib/libgeneric.o
 .text.print_grouped_ull
                0x00000000       0x90 lib/libgeneric.o
 .rodata.crc7_syndrome_table
                0x00000000      0x100 lib/libgeneric.o
 .data          0x00000000        0x0 lib/libgeneric.o
 .bss           0x00000000        0x0 lib/libgeneric.o
 .bss.___strtok
                0x00000000        0x4 lib/libgeneric.o
 .text          0x00000000        0x0 lib/zlib/libz.o
 .text.inflateInit_
                0x00000000       0x10 lib/zlib/libz.o
 .rodata.z_errmsg
                0x00000000       0x28 lib/zlib/libz.o
 .data          0x00000000        0x0 lib/zlib/libz.o
 .bss           0x00000000        0x0 lib/zlib/libz.o
 .text          0x00000000        0x0 net/libnet.o
 .text.__def_eth_init
                0x00000000        0x8 net/libnet.o
 .text.eth_unregister
                0x00000000       0xa0 net/libnet.o
 .text.eth_get_dev_by_name
                0x00000000       0x84 net/libnet.o
 .text.net_get_udp_handler
                0x00000000       0x10 net/libnet.o
 .text.VLAN_to_string
                0x00000000       0x48 net/libnet.o
 .rodata.__FUNCTION__.4801
                0x00000000       0x14 net/libnet.o
 .data          0x00000000        0x0 net/libnet.o
 .data.TftpRRQTimeoutMSecs
                0x00000000        0x4 net/libnet.o
 .bss           0x00000000        0x0 net/libnet.o
 .bss.net_busy_flag
                0x00000000        0x4 net/libnet.o
 .text          0x00000000        0x0 board/samsung/goni/libgoni.o
 .text.s5pc1xx_phy_control
                0x00000000       0xe8 board/samsung/goni/libgoni.o
 .data          0x00000000        0x0 board/samsung/goni/libgoni.o
 .data.s5pc110_otg_data
                0x00000000       0x14 board/samsung/goni/libgoni.o
 .bss           0x00000000        0x0 board/samsung/goni/libgoni.o
 .bss.status.5494
                0x00000000        0x4 board/samsung/goni/libgoni.o
 .text          0x00000000        0x0 /home/jimmy/news5pv210/u-boot-2013.10/arch/arm/lib/eabi_compat.o
 .data          0x00000000        0x0 /home/jimmy/news5pv210/u-boot-2013.10/arch/arm/lib/eabi_compat.o
 .bss           0x00000000        0x0 /home/jimmy/news5pv210/u-boot-2013.10/arch/arm/lib/eabi_compat.o
 .text.__aeabi_unwind_cpp_pr0
                0x00000000        0x4 /home/jimmy/news5pv210/u-boot-2013.10/arch/arm/lib/eabi_compat.o
 .text.__aeabi_unwind_cpp_pr1
                0x00000000        0x4 /home/jimmy/news5pv210/u-boot-2013.10/arch/arm/lib/eabi_compat.o
 .data          0x00000000        0x0 /arm/arm-2009q3/bin/../lib/gcc/arm-none-linux-gnueabi/4.4.1/libgcc.a(_udivsi3.o)
 .bss           0x00000000        0x0 /arm/arm-2009q3/bin/../lib/gcc/arm-none-linux-gnueabi/4.4.1/libgcc.a(_udivsi3.o)
 .data          0x00000000        0x0 /arm/arm-2009q3/bin/../lib/gcc/arm-none-linux-gnueabi/4.4.1/libgcc.a(_divsi3.o)
 .bss           0x00000000        0x0 /arm/arm-2009q3/bin/../lib/gcc/arm-none-linux-gnueabi/4.4.1/libgcc.a(_divsi3.o)
 .data          0x00000000        0x0 /arm/arm-2009q3/bin/../lib/gcc/arm-none-linux-gnueabi/4.4.1/libgcc.a(_lshrdi3.o)
 .bss           0x00000000        0x0 /arm/arm-2009q3/bin/../lib/gcc/arm-none-linux-gnueabi/4.4.1/libgcc.a(_lshrdi3.o)
 .data          0x00000000        0x0 /arm/arm-2009q3/bin/../lib/gcc/arm-none-linux-gnueabi/4.4.1/libgcc.a(_ashldi3.o)
 .bss           0x00000000        0x0 /arm/arm-2009q3/bin/../lib/gcc/arm-none-linux-gnueabi/4.4.1/libgcc.a(_ashldi3.o)
 .data          0x00000000        0x0 /arm/arm-2009q3/bin/../lib/gcc/arm-none-linux-gnueabi/4.4.1/libgcc.a(_dvmd_lnx.o)
 .bss           0x00000000        0x0 /arm/arm-2009q3/bin/../lib/gcc/arm-none-linux-gnueabi/4.4.1/libgcc.a(_dvmd_lnx.o)

Memory Configuration

Name             Origin             Length             Attributes
*default*        0x00000000         0xffffffff

Linker script and memory map

                0x00000000                . = 0x0
                0x00000000                . = ALIGN (0x4)

.text           0x34800000    0x1f6c8
 *(.__image_copy_start)
 .__image_copy_start
                0x34800000        0x0 arch/arm/lib/libarm.o
                0x34800000                __image_copy_start
 arch/arm/cpu/armv7/start.o(.text*)
 .text          0x34800000      0x420 arch/arm/cpu/armv7/start.o
                0x34800010                _start
                0x34800050                _end_vect
                0x34800050                _TEXT_BASE
                0x34800054                _bss_start_ofs
                0x34800058                _bss_end_ofs
                0x3480005c                _end_ofs
                0x34800060                _bss_start
                0x34800064                _bss_end
                0x34800068                IRQ_STACK_START_IN
                0x34800118                c_runtime_cpu_setup
                0x34800130                save_boot_params
                0x34800134                cpu_init_cp15
                0x3480016c                cpu_init_crit
 board/samsung/goni/lowlevel_init.o(.text*)
 .text          0x34800420      0x434 board/samsung/goni/lowlevel_init.o
                0x34800424                lowlevel_init
 board/samsung/goni/cpu_init.o(.text*)
 .text          0x34800854      0x3ec board/samsung/goni/cpu_init.o
                0x34800854                mem_ctrl_asm_init
 board/samsung/goni/movi.o(.text*)
 .text.movi_bl2_copy
                0x34800c40       0x70 board/samsung/goni/movi.o
                0x34800c40                movi_bl2_copy
 *(.text*)
 .text.get_ccsidr
                0x34800cb0        0x8 arch/arm/cpu/armv7/libarmv7.o
 .text.v7_inval_tlb
                0x34800cb8       0x1c arch/arm/cpu/armv7/libarmv7.o
 .text.invalidate_icache_all
                0x34800cd4       0x18 arch/arm/cpu/armv7/libarmv7.o
                0x34800cd4                invalidate_icache_all
 .text.__v7_outer_cache_flush_all
                0x34800cec        0x4 arch/arm/cpu/armv7/libarmv7.o
                0x34800cec                __v7_outer_cache_flush_all
                0x34800cec                v7_outer_cache_flush_all
 .text.__v7_outer_cache_inval_all
                0x34800cf0        0x4 arch/arm/cpu/armv7/libarmv7.o
                0x34800cf0                v7_outer_cache_inval_all
                0x34800cf0                __v7_outer_cache_inval_all
 .text.__v7_outer_cache_flush_range
                0x34800cf4        0x4 arch/arm/cpu/armv7/libarmv7.o
                0x34800cf4                v7_outer_cache_flush_range
                0x34800cf4                __v7_outer_cache_flush_range
 .text.v7_dcache_maint_range
                0x34800cf8       0xcc arch/arm/cpu/armv7/libarmv7.o
 .text.flush_dcache_range
                0x34800dc4       0x24 arch/arm/cpu/armv7/libarmv7.o
                0x34800dc4                flush_dcache_range
 .text.flush_cache
                0x34800de8        0x8 arch/arm/cpu/armv7/libarmv7.o
                0x34800de8                flush_cache
 .text.v7_maint_dcache_all
                0x34800df0       0xe0 arch/arm/cpu/armv7/libarmv7.o
 .text.flush_dcache_all
                0x34800ed0       0x14 arch/arm/cpu/armv7/libarmv7.o
                0x34800ed0                flush_dcache_all
 .text.invalidate_dcache_all
                0x34800ee4       0x14 arch/arm/cpu/armv7/libarmv7.o
                0x34800ee4                invalidate_dcache_all
 .text.arm_init_before_mmu
                0x34800ef8       0x14 arch/arm/cpu/armv7/libarmv7.o
                0x34800ef8                arm_init_before_mmu
 .text.cpu_cache_initialization
                0x34800f0c        0x4 arch/arm/cpu/armv7/libarmv7.o
                0x34800f0c                cpu_cache_initialization
 .text.cleanup_before_linux
                0x34800f10       0x28 arch/arm/cpu/armv7/libarmv7.o
                0x34800f10                cleanup_before_linux
 .text.arch_cpu_init
                0x34800f38       0x24 arch/arm/cpu/armv7/s5p-common/libs5p-common.o
                0x34800f38                arch_cpu_init
 .text.print_cpuinfo
                0x34800f5c       0x4c arch/arm/cpu/armv7/s5p-common/libs5p-common.o
                0x34800f5c                print_cpuinfo
 .text.timer_get_us_down
                0x34800fa8       0x34 arch/arm/cpu/armv7/s5p-common/libs5p-common.o
 .text.__udelay
                0x34800fdc       0x24 arch/arm/cpu/armv7/s5p-common/libs5p-common.o
                0x34800fdc                __udelay
 .text.reset_timer_masked
                0x34801000       0x40 arch/arm/cpu/armv7/s5p-common/libs5p-common.o
                0x34801000                reset_timer_masked
 .text.get_tbclk
                0x34801040        0x8 arch/arm/cpu/armv7/s5p-common/libs5p-common.o
                0x34801040                get_tbclk
 .text.get_timer
                0x34801048       0x68 arch/arm/cpu/armv7/s5p-common/libs5p-common.o
                0x34801048                get_timer
 .text.get_ticks
                0x348010b0       0x14 arch/arm/cpu/armv7/s5p-common/libs5p-common.o
                0x348010b0                get_ticks
 .text.timer_init
                0x348010c4       0x54 arch/arm/cpu/armv7/s5p-common/libs5p-common.o
                0x348010c4                timer_init
 .text.pwm_enable
                0x34801118       0x54 arch/arm/cpu/armv7/s5p-common/libs5p-common.o
                0x34801118                pwm_enable
 .text.pwm_init
                0x3480116c      0x104 arch/arm/cpu/armv7/s5p-common/libs5p-common.o
                0x3480116c                pwm_init
 .text.pwm_config
                0x34801270      0x164 arch/arm/cpu/armv7/s5p-common/libs5p-common.o
                0x34801270                pwm_config
 *fill*         0x348013d4        0xc 00
 .text          0x348013e0       0x7c arch/arm/cpu/armv7/s5pc1xx/libs5pc1xx.o
                0x348013e0                v7_outer_cache_enable
                0x348013f4                v7_outer_cache_disable
                0x34801420                reset_cpu
 .text.get_pll_clk
                0x3480145c      0x160 arch/arm/cpu/armv7/s5pc1xx/libs5pc1xx.o
                0x3480145c                get_pll_clk
 .text.s5pc100_get_pclk
                0x348015bc       0x58 arch/arm/cpu/armv7/s5pc1xx/libs5pc1xx.o
 .text.get_arm_clk
                0x34801614       0x7c arch/arm/cpu/armv7/s5pc1xx/libs5pc1xx.o
                0x34801614                get_arm_clk
 .text.s5pc110_get_pclk
                0x34801690       0x80 arch/arm/cpu/armv7/s5pc1xx/libs5pc1xx.o
 .text.get_uart_clk
                0x34801710       0x20 arch/arm/cpu/armv7/s5pc1xx/libs5pc1xx.o
                0x34801710                get_uart_clk
 .text.get_pwm_clk
                0x34801730       0x20 arch/arm/cpu/armv7/s5pc1xx/libs5pc1xx.o
                0x34801730                get_pwm_clk
 .text          0x34801750       0xe4 arch/arm/lib/libarm.o
                0x34801750                _main
                0x348017d0                relocate_code
 .text.__coloured_LED_init
                0x34801834        0x4 arch/arm/lib/libarm.o
                0x34801834                coloured_LED_init
                0x34801834                __coloured_LED_init
 .text.__red_led_on
                0x34801838        0x4 arch/arm/lib/libarm.o
                0x34801838                __red_led_on
                0x34801838                red_led_on
 .text.init_func_i2c
                0x3480183c       0x28 arch/arm/lib/libarm.o
 .text.display_banner
                0x34801864       0x20 arch/arm/lib/libarm.o
 .text.init_baudrate
                0x34801884       0x2c arch/arm/lib/libarm.o
 .text.mark_bootstage
                0x348018b0       0x14 arch/arm/lib/libarm.o
 .text.board_init_r
                0x348018c4       0xac arch/arm/lib/libarm.o
                0x348018c4                board_init_r
 .text.board_init_f
                0x34801970      0x134 arch/arm/lib/libarm.o
                0x34801970                board_init_f
 .text.setup_board_tags
                0x34801aa4        0x4 arch/arm/lib/libarm.o
                0x34801aa4                setup_board_tags
 .text.boot_prep_linux
                0x34801aa8      0x174 arch/arm/lib/libarm.o
 .text.boot_jump_linux
                0x34801c1c       0xa0 arch/arm/lib/libarm.o
 .text.do_bootm_linux
                0x34801cbc       0x64 arch/arm/lib/libarm.o
                0x34801cbc                do_bootm_linux
 .text.arch_lmb_reserve
                0x34801d20       0x24 arch/arm/lib/libarm.o
                0x34801d20                arch_lmb_reserve
 .text.interrupt_init
                0x34801d44       0x1c arch/arm/lib/libarm.o
                0x34801d44                interrupt_init
 .text.enable_interrupts
                0x34801d60        0x4 arch/arm/lib/libarm.o
                0x34801d60                enable_interrupts
 .text.disable_interrupts
                0x34801d64        0x8 arch/arm/lib/libarm.o
                0x34801d64                disable_interrupts
 .text.show_regs
                0x34801d6c      0x140 arch/arm/lib/libarm.o
                0x34801d6c                show_regs
 .text.bad_mode
                0x34801eac       0x10 arch/arm/lib/libarm.o
                0x34801eac                bad_mode
 .text.do_irq   0x34801ebc       0x24 arch/arm/lib/libarm.o
                0x34801ebc                do_irq
 .text.do_fiq   0x34801ee0       0x24 arch/arm/lib/libarm.o
                0x34801ee0                do_fiq
 .text.do_not_used
                0x34801f04       0x24 arch/arm/lib/libarm.o
                0x34801f04                do_not_used
 .text.do_data_abort
                0x34801f28       0x24 arch/arm/lib/libarm.o
                0x34801f28                do_data_abort
 .text.do_prefetch_abort
                0x34801f4c       0x24 arch/arm/lib/libarm.o
                0x34801f4c                do_prefetch_abort
 .text.do_software_interrupt
                0x34801f70       0x24 arch/arm/lib/libarm.o
                0x34801f70                do_software_interrupt
 .text.do_undefined_instruction
                0x34801f94       0x24 arch/arm/lib/libarm.o
                0x34801f94                do_undefined_instruction
 .text.do_reset
                0x34801fb8       0x2c arch/arm/lib/libarm.o
                0x34801fb8                do_reset
 .text.arm_init_domains
                0x34801fe4        0x4 arch/arm/lib/libarm.o
                0x34801fe4                arm_init_domains
 .text.cp_delay
                0x34801fe8       0x30 arch/arm/lib/libarm.o
 .text.set_section_dcache
                0x34802018       0x14 arch/arm/lib/libarm.o
                0x34802018                set_section_dcache
 .text.dram_bank_mmu_setup
                0x3480202c       0x4c arch/arm/lib/libarm.o
                0x3480202c                dram_bank_mmu_setup
 .text.cache_enable
                0x34802078       0x80 arch/arm/lib/libarm.o
 .text.icache_enable
                0x348020f8        0x8 arch/arm/lib/libarm.o
                0x348020f8                icache_enable
 .text.icache_status
                0x34802100        0xc arch/arm/lib/libarm.o
                0x34802100                icache_status
 .text.dcache_enable
                0x3480210c        0x8 arch/arm/lib/libarm.o
                0x3480210c                dcache_enable
 .text.dcache_status
                0x34802114        0xc arch/arm/lib/libarm.o
                0x34802114                dcache_status
 .text.cache_disable
                0x34802120       0x44 arch/arm/lib/libarm.o
 .text.dcache_disable
                0x34802164        0x8 arch/arm/lib/libarm.o
                0x34802164                dcache_disable
 .text.icache_disable
                0x3480216c        0x8 arch/arm/lib/libarm.o
                0x3480216c                icache_disable
 .text.print_num
                0x34802174       0x14 common/libcommon.o
 .text.do_bdinfo
                0x34802188      0x19c common/libcommon.o
                0x34802188                do_bdinfo
 .text.do_go_exec
                0x34802324       0x18 common/libcommon.o
                0x34802324                do_go_exec
 .text.do_go    0x3480233c       0x70 common/libcommon.o
 .text.__arch_preboot_os
                0x348023ac        0x4 common/libcommon.o
                0x348023ac                arch_preboot_os
 .text.image_info
                0x348023b0       0xe4 common/libcommon.o
 .text.do_iminfo
                0x34802494       0x60 common/libcommon.o
 .text.do_bootd
                0x348024f4       0x24 common/libcommon.o
                0x348024f4                do_bootd
 .text.copy_args
                0x34802518       0x54 common/libcommon.o
 .text.do_bootm_plan9
                0x3480256c       0xb8 common/libcommon.o
 .text.do_bootm_rtems
                0x34802624       0x4c common/libcommon.o
 .text.do_bootm_netbsd
                0x34802670       0xfc common/libcommon.o
 .text.T.122    0x3480276c      0x840 common/libcommon.o
 .text.do_bootm
                0x34802fac       0xd4 common/libcommon.o
                0x34802fac                do_bootm
 .text.bootm_maybe_autostart
                0x34803080       0x74 common/libcommon.o
                0x34803080                bootm_maybe_autostart
 .text.parse_argv
                0x348030f4       0x58 common/libcommon.o
 .text.do_dcache
                0x3480314c       0x8c common/libcommon.o
                0x3480314c                do_dcache
 .text.do_icache
                0x348031d8       0x8c common/libcommon.o
                0x348031d8                do_icache
 .text.do_coninfo
                0x34803264       0xf0 common/libcommon.o
 .text.do_echo  0x34803354       0xac common/libcommon.o
 .text.do_exit  0x34803400       0x30 common/libcommon.o
 .text.do_ext2load
                0x34803430       0x14 common/libcommon.o
                0x34803430                do_ext2load
 .text.do_ext2ls
                0x34803444       0x14 common/libcommon.o
                0x34803444                do_ext2ls
 .text.do_fat_fsinfo
                0x34803458       0x94 common/libcommon.o
 .text.do_fat_ls
                0x348034ec       0x14 common/libcommon.o
 .text.do_fat_fsload
                0x34803500       0x14 common/libcommon.o
                0x34803500                do_fat_fsload
 .text.do_help  0x34803514       0x48 common/libcommon.o
 .text.evalstr  0x3480355c       0x1c common/libcommon.o
 .text.evalexp  0x34803578       0x6c common/libcommon.o
 .text.binary_test
                0x348035e4      0x1c0 common/libcommon.o
 .text.do_itest
                0x348037a4       0x8c common/libcommon.o
 .text.ktrans   0x34803830       0x20 common/libcommon.o
 .text.bin_data_init
                0x34803850       0x2c common/libcommon.o
 .text.bin_data_char
                0x3480387c       0x28 common/libcommon.o
 .text.k_data_save
                0x348038a4       0x4c common/libcommon.o
 .text.k_data_restore
                0x348038f0       0x4c common/libcommon.o
 .text.load_serial_ymodem
                0x3480393c       0xec common/libcommon.o
 .text.getcxmodem
                0x34803a28       0x20 common/libcommon.o
 .text.T.117    0x34803a48       0x58 common/libcommon.o
 .text.load_serial
                0x34803aa0      0x1d8 common/libcommon.o
 .text.do_load_serial
                0x34803c78       0xe0 common/libcommon.o
 .text.T.119    0x34803d58       0x34 common/libcommon.o
 .text.do_load_serial_bin
                0x34803d8c      0x7a4 common/libcommon.o
 .text.do_mem_loop
                0x34804530       0xf4 common/libcommon.o
 .text.do_mem_mw
                0x34804624       0xb8 common/libcommon.o
 .text.do_mem_base
                0x348046dc       0x44 common/libcommon.o
 .text.do_mem_cmp
                0x34804720      0x150 common/libcommon.o
 .text.do_mem_crc
                0x34804870       0x44 common/libcommon.o
 .text.do_mem_cp
                0x348048b4       0xcc common/libcommon.o
 .text.mod_mem  0x34804980      0x160 common/libcommon.o
 .text.do_mem_nm
                0x34804ae0       0x20 common/libcommon.o
 .text.do_mem_mm
                0x34804b00       0x20 common/libcommon.o
 .text.do_mem_md
                0x34804b20       0xe0 common/libcommon.o
 .text.do_mmcinfo
                0x34804c00      0x170 common/libcommon.o
                0x34804c00                do_mmcinfo
 .text.do_mmcops
                0x34804d70      0x304 common/libcommon.o
                0x34804d70                do_mmcops
 .text.device_find
                0x34805074       0x4c common/libcommon.o
                0x34805074                device_find
 .text.mtd_part_info
                0x348050c0       0x94 common/libcommon.o
 .text.memsize_format
                0x34805154       0xa0 common/libcommon.o
 .text.index_partitions
                0x348051f4       0xb0 common/libcommon.o
 .text.current_save
                0x348052a4       0xbc common/libcommon.o
 .text.part_sort_add
                0x34805360      0x168 common/libcommon.o
 .text.part_delall
                0x348054c8       0x48 common/libcommon.o
 .text.device_del
                0x34805510       0x80 common/libcommon.o
 .text.memsize_parse
                0x34805590       0x80 common/libcommon.o
 .text.get_mtd_info
                0x34805610       0x80 common/libcommon.o
 .text.part_validate
                0x34805690      0x36c common/libcommon.o
 .text.device_parse
                0x348059fc      0x528 common/libcommon.o
 .text.mtd_id_parse
                0x34805f24      0x114 common/libcommon.o
                0x34805f24                mtd_id_parse
 .text.find_dev_and_part
                0x34806038      0x1b0 common/libcommon.o
                0x34806038                find_dev_and_part
 .text.T.228    0x348061e8       0x68 common/libcommon.o
 .text.mtd_devices_init
                0x34806250       0x2c common/libcommon.o
 .text.mtdparts_init
                0x3480627c      0x6a4 common/libcommon.o
                0x3480627c                mtdparts_init
 .text.do_chpart
                0x34806920       0xd0 common/libcommon.o
 .text.T.227    0x348069f0      0x2ec common/libcommon.o
 .text.do_mtdparts
                0x34806cdc      0x5ec common/libcommon.o
 .text.do_ping  0x348072c8       0x74 common/libcommon.o
 .text.netboot_common
                0x3480733c      0x2a0 common/libcommon.o
 .text.do_bootp
                0x348075dc        0xc common/libcommon.o
 .text.do_tftpb
                0x348075e8       0x40 common/libcommon.o
                0x348075e8                do_tftpb
 .text.get_env_id
                0x34807628       0x10 common/libcommon.o
                0x34807628                get_env_id
 .text.do_env_delete
                0x34807638       0xa0 common/libcommon.o
 .text._do_env_set
                0x348076d8      0x1cc common/libcommon.o
 .text.do_env_set
                0x348078a4       0x20 common/libcommon.o
 .text.setenv   0x348078c4       0x60 common/libcommon.o
                0x348078c4                setenv
 .text.env_print
                0x34807924       0xd0 common/libcommon.o
 .text.do_env_print
                0x348079f4       0xcc common/libcommon.o
 .text.setenv_hex
                0x34807ac0       0x38 common/libcommon.o
                0x34807ac0                setenv_hex
 .text.do_env   0x34807af8       0x5c common/libcommon.o
 .text.do_env_import
                0x34807b54      0x250 common/libcommon.o
 .text.do_env_export
                0x34807da4      0x250 common/libcommon.o
 .text.do_env_default
                0x34807ff4       0xa8 common/libcommon.o
 .text.do_env_save
                0x3480809c       0x2c common/libcommon.o
 .text.envmatch
                0x348080c8       0x64 common/libcommon.o
                0x348080c8                envmatch
 .text.getenv_f
                0x3480812c       0xb8 common/libcommon.o
                0x3480812c                getenv_f
 .text.getenv   0x348081e4       0x80 common/libcommon.o
                0x348081e4                getenv
 .text.do_env_edit
                0x34808264       0x74 common/libcommon.o
 .text.getenv_ulong
                0x348082d8       0x30 common/libcommon.o
                0x348082d8                getenv_ulong
 .text.setenv_ulong
                0x34808308       0x20 common/libcommon.o
                0x34808308                setenv_ulong
 .text.do_reginfo
                0x34808328        0x8 common/libcommon.o
 .text.source   0x34808330      0x108 common/libcommon.o
                0x34808330                source
 .text.do_source
                0x34808438       0x44 common/libcommon.o
                0x34808438                do_source
 .text.do_false
                0x3480847c        0x8 common/libcommon.o
 .text.do_true  0x34808484        0x8 common/libcommon.o
 .text.do_test  0x3480848c      0x470 common/libcommon.o
 .text.do_version
                0x348088fc       0x38 common/libcommon.o
 .text.cmd_get_data_size
                0x34808934       0x50 common/libcommon.o
                0x34808934                cmd_get_data_size
 .text.cmd_usage
                0x34808984       0x5c common/libcommon.o
                0x34808984                cmd_usage
 .text.find_cmd_tbl
                0x348089e0       0x9c common/libcommon.o
                0x348089e0                find_cmd_tbl
 .text.find_cmd
                0x34808a7c       0x28 common/libcommon.o
                0x34808a7c                find_cmd
 .text.cmd_process
                0x34808aa4       0xf4 common/libcommon.o
                0x34808aa4                cmd_process
 .text._do_help
                0x34808b98      0x180 common/libcommon.o
                0x34808b98                _do_help
 .text.console_setfile
                0x34808d18       0xa0 common/libcommon.o
 .text.fgetc    0x34808db8       0x28 common/libcommon.o
                0x34808db8                fgetc
 .text.ftstc    0x34808de0       0x28 common/libcommon.o
                0x34808de0                ftstc
 .text.fputc    0x34808e08       0x2c common/libcommon.o
                0x34808e08                fputc
 .text.fputs    0x34808e34       0x2c common/libcommon.o
                0x34808e34                fputs
 .text.had_ctrlc
                0x34808e60       0x10 common/libcommon.o
                0x34808e60                had_ctrlc
 .text.clear_ctrlc
                0x34808e70       0x14 common/libcommon.o
                0x34808e70                clear_ctrlc
 .text.console_init_f
                0x34808e84       0x10 common/libcommon.o
                0x34808e84                console_init_f
 .text.getc     0x34808e94       0x24 common/libcommon.o
                0x34808e94                getc
 .text.tstc     0x34808eb8       0x24 common/libcommon.o
                0x34808eb8                tstc
 .text.ctrlc    0x34808edc       0x5c common/libcommon.o
                0x34808edc                ctrlc
 .text.putc     0x34808f38       0x28 common/libcommon.o
                0x34808f38                putc
 .text.puts     0x34808f60       0x28 common/libcommon.o
                0x34808f60                puts
 .text.search_device
                0x34808f88       0x28 common/libcommon.o
                0x34808f88                search_device
 .text.console_assign
                0x34808fb0       0x40 common/libcommon.o
                0x34808fb0                console_assign
 .text.vprintf  0x34808ff0       0x40 common/libcommon.o
                0x34808ff0                vprintf
 .text.printf   0x34809030       0x50 common/libcommon.o
                0x34809030                printf
 .text.on_console
                0x34809080       0xb8 common/libcommon.o
 .text.stdio_print_current_devices
                0x34809138       0xb8 common/libcommon.o
                0x34809138                stdio_print_current_devices
 .text.console_init_r
                0x348091f0      0x154 common/libcommon.o
                0x348091f0                console_init_r
 .text.serial_printf
                0x34809344       0x48 common/libcommon.o
                0x34809344                serial_printf
 .text.mem_malloc_init
                0x3480938c       0x40 common/libcommon.o
                0x3480938c                mem_malloc_init
 .text.sbrk     0x348093cc       0x6c common/libcommon.o
                0x348093cc                sbrk
 .text.malloc_trim
                0x34809438       0xd8 common/libcommon.o
                0x34809438                malloc_trim
 .text.free     0x34809510      0x238 common/libcommon.o
                0x34809510                free
 .text.malloc   0x34809748      0x64c common/libcommon.o
                0x34809748                malloc
 .text.memalign
                0x34809d94      0x110 common/libcommon.o
                0x34809d94                memalign
 .text.calloc   0x34809ea4       0xe0 common/libcommon.o
                0x34809ea4                calloc
 .text.realloc  0x34809f84      0x478 common/libcommon.o
                0x34809f84                realloc
 .text.reverse_strstr
                0x3480a3fc       0x5c common/libcommon.o
 .text.env_attr_lookup
                0x3480a458      0x124 common/libcommon.o
                0x3480a458                env_attr_lookup
 .text.env_attr_walk
                0x3480a57c      0x110 common/libcommon.o
                0x3480a57c                env_attr_walk
 .text.clear_callback
                0x3480a68c       0x10 common/libcommon.o
 .text.on_callbacks
                0x3480a69c       0x48 common/libcommon.o
 .text.find_env_callback
                0x3480a6e4       0x5c common/libcommon.o
 .text.set_callback
                0x3480a740       0x90 common/libcommon.o
 .text.env_callback_init
                0x3480a7d0       0xa4 common/libcommon.o
                0x3480a7d0                env_callback_init
 .text.__env_get_char_spec
                0x3480a874        0xc common/libcommon.o
                0x3480a874                env_get_char_spec
 .text.env_get_addr
                0x3480a880       0x24 common/libcommon.o
                0x3480a880                env_get_addr
 .text.env_get_char_memory
                0x3480a8a4       0x10 common/libcommon.o
                0x3480a8a4                env_get_char_memory
 .text.env_get_char
                0x3480a8b4       0x30 common/libcommon.o
                0x3480a8b4                env_get_char
 .text.set_default_vars
                0x3480a8e4       0x38 common/libcommon.o
                0x3480a8e4                set_default_vars
 .text.set_default_env
                0x3480a91c       0xc0 common/libcommon.o
                0x3480a91c                set_default_env
 .text.env_relocate
                0x3480a9dc       0x30 common/libcommon.o
                0x3480a9dc                env_relocate
 .text.env_import
                0x3480aa0c       0xdc common/libcommon.o
                0x3480aa0c                env_import
 .text.getenv_default
                0x3480aae8       0x30 common/libcommon.o
                0x3480aae8                getenv_default
 .text.getenv_yesno
                0x3480ab18       0x4c common/libcommon.o
                0x3480ab18                getenv_yesno
 .text.skip_num
                0x3480ab64       0x78 common/libcommon.o
 .text.clear_flags
                0x3480abdc       0x10 common/libcommon.o
 .text.on_flags
                0x3480abec       0x48 common/libcommon.o
 .text.env_flags_validate
                0x3480ac34      0x318 common/libcommon.o
                0x3480ac34                env_flags_validate
 .text.env_flags_parse_varaccess
                0x3480af4c       0x50 common/libcommon.o
                0x3480af4c                env_flags_parse_varaccess
 .text.env_flags_parse_vartype
                0x3480af9c       0x4c common/libcommon.o
                0x3480af9c                env_flags_parse_vartype
 .text.env_parse_flags_to_bin
                0x3480afe8       0x2c common/libcommon.o
 .text.set_flags
                0x3480b014       0x8c common/libcommon.o
 .text.env_flags_init
                0x3480b0a0       0x90 common/libcommon.o
                0x3480b0a0                env_flags_init
 .text.mmc_get_env_addr
                0x3480b130       0x10 common/libcommon.o
                0x3480b130                mmc_get_env_addr
 .text.env_init
                0x3480b140       0x1c common/libcommon.o
                0x3480b140                env_init
 .text.init_mmc_for_env
                0x3480b15c       0x40 common/libcommon.o
 .text.env_relocate_spec
                0x3480b19c       0xc4 common/libcommon.o
                0x3480b19c                env_relocate_spec
 .text.saveenv  0x3480b260      0x174 common/libcommon.o
                0x3480b260                saveenv
 .text.dummy    0x3480b3d4        0x4 common/libcommon.o
 .text.get_version
                0x3480b3d8        0x8 common/libcommon.o
                0x3480b3d8                get_version
 .text.jumptable_init
                0x3480b3e0      0x1e0 common/libcommon.o
                0x3480b3e0                jumptable_init
 .text.hash_command
                0x3480b5c0       0xa4 common/libcommon.o
                0x3480b5c0                hash_command
 .text.b_reset  0x3480b664       0x1c common/libcommon.o
 .text.static_get
                0x3480b680       0x1c common/libcommon.o
 .text.static_peek
                0x3480b69c        0xc common/libcommon.o
 .text.file_peek
                0x3480b6a8        0xc common/libcommon.o
 .text.setup_string_in_str
                0x3480b6b4       0x2c common/libcommon.o
 .text.is_assignment
                0x3480b6e0       0x58 common/libcommon.o
 .text.mapset   0x3480b738       0x28 common/libcommon.o
 .text.syntax_err
                0x3480b760        0xc common/libcommon.o
 .text.do_showvar
                0x3480b76c       0xe8 common/libcommon.o
 .text.u_boot_hush_start
                0x3480b854       0x54 common/libcommon.o
                0x3480b854                u_boot_hush_start
 .text.xmalloc  0x3480b8a8       0x20 common/libcommon.o
 .text.new_pipe
                0x3480b8c8       0x28 common/libcommon.o
 .text.file_get
                0x3480b8f0      0x1d4 common/libcommon.o
 .text.free_pipe_list
                0x3480bac4       0xe0 common/libcommon.o
 .text.b_free   0x3480bba4       0x24 common/libcommon.o
 .text.xrealloc
                0x3480bbc8       0x20 common/libcommon.o
 .text.done_command
                0x3480bbe8       0x88 common/libcommon.o
 .text.initialize_context
                0x3480bc70       0x3c common/libcommon.o
 .text.done_pipe
                0x3480bcac       0x4c common/libcommon.o
 .text.done_word
                0x3480bcf8      0x280 common/libcommon.o
 .text.get_local_var
                0x3480bf78       0x98 common/libcommon.o
                0x3480bf78                get_local_var
 .text.set_local_var
                0x3480c010      0x1b4 common/libcommon.o
                0x3480c010                set_local_var
 .text.insert_var_value_sub
                0x3480c1c4      0x2bc common/libcommon.o
 .text.insert_var_value
                0x3480c480        0x8 common/libcommon.o
 .text.b_addchr
                0x3480c488       0x78 common/libcommon.o
 .text.b_addqchr
                0x3480c500       0x4c common/libcommon.o
 .text.parse_stream_outer
                0x3480c54c      0x6ac common/libcommon.o
 .text.parse_file_outer
                0x3480cbf8       0x44 common/libcommon.o
                0x3480cbf8                parse_file_outer
 .text.parse_string_outer
                0x3480cc3c       0xc8 common/libcommon.o
                0x3480cc3c                parse_string_outer
 .text.run_list_real
                0x3480cd04      0x794 common/libcommon.o
 .text.image_multi_count
                0x3480d498       0x24 common/libcommon.o
                0x3480d498                image_multi_count
 .text.get_table_entry_name
                0x3480d4bc       0x2c common/libcommon.o
                0x3480d4bc                get_table_entry_name
 .text.genimg_get_os_name
                0x3480d4e8       0x18 common/libcommon.o
                0x3480d4e8                genimg_get_os_name
 .text.genimg_get_arch_name
                0x3480d500       0x18 common/libcommon.o
                0x3480d500                genimg_get_arch_name
 .text.genimg_get_type_name
                0x3480d518       0x18 common/libcommon.o
                0x3480d518                genimg_get_type_name
 .text.genimg_get_comp_name
                0x3480d530       0x18 common/libcommon.o
                0x3480d530                genimg_get_comp_name
 .text.genimg_get_image
                0x3480d548        0x4 common/libcommon.o
                0x3480d548                genimg_get_image
 .text.on_loadaddr
                0x3480d54c       0x38 common/libcommon.o
 .text.getenv_bootm_low
                0x3480d584       0x30 common/libcommon.o
                0x3480d584                getenv_bootm_low
 .text.genimg_get_format
                0x3480d5b4       0x34 common/libcommon.o
                0x3480d5b4                genimg_get_format
 .text.image_multi_getimg
                0x3480d5e8       0xa8 common/libcommon.o
                0x3480d5e8                image_multi_getimg
 .text.genimg_print_size
                0x3480d690       0x30 common/libcommon.o
                0x3480d690                genimg_print_size
 .text.image_print_contents
                0x3480d6c0      0x1ac common/libcommon.o
                0x3480d6c0                image_print_contents
 .text.memmove_wd
                0x3480d86c        0xc common/libcommon.o
                0x3480d86c                memmove_wd
 .text.boot_ramdisk_high
                0x3480d878      0x12c common/libcommon.o
                0x3480d878                boot_ramdisk_high
 .text.getenv_bootm_size
                0x3480d9a4       0x5c common/libcommon.o
                0x3480d9a4                getenv_bootm_size
 .text.image_check_dcrc
                0x3480da00       0x60 common/libcommon.o
                0x3480da00                image_check_dcrc
 .text.image_check_hcrc
                0x3480da60       0x68 common/libcommon.o
                0x3480da60                image_check_hcrc
 .text.boot_get_ramdisk
                0x3480dac8      0x270 common/libcommon.o
                0x3480dac8                boot_get_ramdisk
 .text.__show_boot_progress
                0x3480dd38        0x4 common/libcommon.o
                0x3480dd38                __show_boot_progress
                0x3480dd38                show_boot_progress
 .text.run_command_list
                0x3480dd3c       0x5c common/libcommon.o
                0x3480dd3c                run_command_list
 .text.run_command
                0x3480dd98        0x8 common/libcommon.o
                0x3480dd98                run_command
 .text.do_run   0x3480dda0       0x70 common/libcommon.o
                0x3480dda0                do_run
 .text.delete_char
                0x3480de10       0xdc common/libcommon.o
 .text.cread_add_char
                0x3480deec       0xec common/libcommon.o
 .text.cread_add_str
                0x3480dfd8       0x54 common/libcommon.o
 .text.readline_into_buffer
                0x3480e02c      0x8fc common/libcommon.o
                0x3480e02c                readline_into_buffer
 .text.readline
                0x3480e928       0x1c common/libcommon.o
                0x3480e928                readline
 .text.main_loop
                0x3480e944      0x12c common/libcommon.o
                0x3480e944                main_loop
 .text.hex1_bin
                0x3480ea70       0x40 common/libcommon.o
 .text.hex2_bin
                0x3480eab0       0x34 common/libcommon.o
 .text.srec_decode
                0x3480eae4      0x264 common/libcommon.o
                0x3480eae4                srec_decode
 .text.stdio_get_list
                0x3480ed48        0xc common/libcommon.o
                0x3480ed48                stdio_get_list
 .text.stdio_clone
                0x3480ed54       0x38 common/libcommon.o
                0x3480ed54                stdio_clone
 .text.stdio_register
                0x3480ed8c       0x40 common/libcommon.o
                0x3480ed8c                stdio_register
 .text.stdio_init
                0x3480edcc       0x94 common/libcommon.o
                0x3480edcc                stdio_init
 .text.stdio_get_by_name
                0x3480ee60       0x54 common/libcommon.o
                0x3480ee60                stdio_get_by_name
 .text.xyzModem_error
                0x3480eeb4       0x20 common/libcommon.o
                0x3480eeb4                xyzModem_error
 .text.CYGACC_COMM_IF_PUTC
                0x3480eed4        0x8 common/libcommon.o
 .text.CYGACC_COMM_IF_GETC_TIMEOUT
                0x3480eedc       0x58 common/libcommon.o
 .text.xyzModem_flush
                0x3480ef34       0x28 common/libcommon.o
 .text.xyzModem_stream_terminate
                0x3480ef5c       0xd4 common/libcommon.o
                0x3480ef5c                xyzModem_stream_terminate
 .text.xyzModem_stream_close
                0x3480f030       0x50 common/libcommon.o
                0x3480f030                xyzModem_stream_close
 .text.xyzModem_get_hdr
                0x3480f080      0x27c common/libcommon.o
 .text.xyzModem_stream_read
                0x3480f2fc      0x288 common/libcommon.o
                0x3480f2fc                xyzModem_stream_read
 .text.xyzModem_stream_open
                0x3480f584      0x280 common/libcommon.o
                0x3480f584                xyzModem_stream_open
 .text.get_dev  0x3480f804       0x6c disk/libdisk.o
                0x3480f804                get_dev
 .text.get_device
                0x3480f870       0x88 disk/libdisk.o
                0x3480f870                get_device
 .text.get_partition_info
                0x3480f8f8       0x24 disk/libdisk.o
                0x3480f8f8                get_partition_info
 .text.get_device_and_partition
                0x3480f91c      0x46c disk/libdisk.o
                0x3480f91c                get_device_and_partition
 .text.init_part
                0x3480fd88       0x20 disk/libdisk.o
                0x3480fd88                init_part
 .text.dev_print
                0x3480fda8      0x220 disk/libdisk.o
                0x3480fda8                dev_print
 .text.get_partition_info_extended
                0x3480ffc8      0x2b0 disk/libdisk.o
 .text.get_partition_info_dos
                0x34810278       0x2c disk/libdisk.o
                0x34810278                get_partition_info_dos
 .text.test_block_type
                0x348102a4       0x80 disk/libdisk.o
 .text.test_part_dos
                0x34810324       0x64 disk/libdisk.o
                0x34810324                test_part_dos
 .text.s5p_gpio_cfg_pin
                0x34810388       0x1c drivers/gpio/libgpio.o
                0x34810388                s5p_gpio_cfg_pin
 .text.s5p_gpio_direction_input
                0x348103a4        0x8 drivers/gpio/libgpio.o
                0x348103a4                s5p_gpio_direction_input
 .text.s5p_gpio_set_value
                0x348103ac       0x20 drivers/gpio/libgpio.o
                0x348103ac                s5p_gpio_set_value
 .text.s5p_gpio_direction_output
                0x348103cc       0x2c drivers/gpio/libgpio.o
                0x348103cc                s5p_gpio_direction_output
 .text.s5p_gpio_get_value
                0x348103f8       0x18 drivers/gpio/libgpio.o
                0x348103f8                s5p_gpio_get_value
 .text.s5p_gpio_get_bank
                0x34810410       0x14 drivers/gpio/libgpio.o
                0x34810410                s5p_gpio_get_bank
 .text.s5p_gpio_get_pin
                0x34810424        0x8 drivers/gpio/libgpio.o
                0x34810424                s5p_gpio_get_pin
 .text.gpio_request
                0x3481042c        0x8 drivers/gpio/libgpio.o
                0x3481042c                gpio_request
 .text.gpio_direction_input
                0x34810434       0x2c drivers/gpio/libgpio.o
                0x34810434                gpio_direction_input
 .text.gpio_direction_output
                0x34810460       0x34 drivers/gpio/libgpio.o
                0x34810460                gpio_direction_output
 .text.gpio_get_value
                0x34810494       0x28 drivers/gpio/libgpio.o
                0x34810494                gpio_get_value
 .text.__def_i2c_init_board
                0x348104bc        0x4 drivers/i2c/libi2c.o
                0x348104bc                i2c_init_board
 .text.i2c_get_adapter
                0x348104c0       0x6c drivers/i2c/libi2c.o
                0x348104c0                i2c_get_adapter
 .text.i2c_init_bus
                0x3481052c       0x90 drivers/i2c/libi2c.o
 .text.i2c_write
                0x348105bc       0x48 drivers/i2c/libi2c.o
                0x348105bc                i2c_write
 .text.i2c_read
                0x34810604       0x48 drivers/i2c/libi2c.o
                0x34810604                i2c_read
 .text.i2c_set_bus_num
                0x3481064c       0xbc drivers/i2c/libi2c.o
                0x3481064c                i2c_set_bus_num
 .text.i2c_init_all
                0x34810708       0x14 drivers/i2c/libi2c.o
                0x34810708                i2c_init_all
 .text.send_start
                0x3481071c       0x48 drivers/i2c/libi2c.o
 .text.send_stop
                0x34810764       0x54 drivers/i2c/libi2c.o
 .text.write_byte
                0x348107b8       0xdc drivers/i2c/libi2c.o
 .text.soft_i2c_write
                0x34810894       0xa4 drivers/i2c/libi2c.o
 .text.soft_i2c_probe
                0x34810938       0x2c drivers/i2c/libi2c.o
 .text.soft_i2c_read
                0x34810964      0x17c drivers/i2c/libi2c.o
 .text.soft_i2c_init
                0x34810ae0       0x84 drivers/i2c/libi2c.o
 .text.s3c_hsmmc_initialize
                0x34810b64       0xe8 drivers/mmc/libmmc.o
 .text.smdk_s3c_hsmmc_init
                0x34810c4c       0x28 drivers/mmc/libmmc.o
                0x34810c4c                smdk_s3c_hsmmc_init
 .text.sdhci_change_clock
                0x34810c74       0xd8 drivers/mmc/libmmc.o
 .text.s3c_hsmmc_send_command
                0x34810d4c      0x320 drivers/mmc/libmmc.o
 .text.s3c_hsmmc_set_ios
                0x3481106c       0x48 drivers/mmc/libmmc.o
 .text.T.64     0x348110b4       0x60 drivers/mmc/libmmc.o
 .text.s3c_hsmmc_init
                0x34811114       0x54 drivers/mmc/libmmc.o
 .text.mmc_send_cmd
                0x34811168       0x10 drivers/mmc/libmmc.o
                0x34811168                mmc_send_cmd
 .text.mmc_set_blocklen
                0x34811178       0x38 drivers/mmc/libmmc.o
                0x34811178                mmc_set_blocklen
 .text.mmc_send_ext_csd
                0x348111b0       0x50 drivers/mmc/libmmc.o
                0x348111b0                mmc_send_ext_csd
 .text.mmc_switch
                0x34811200       0x44 drivers/mmc/libmmc.o
                0x34811200                mmc_switch
 .text.mmc_change_freq
                0x34811244       0xdc drivers/mmc/libmmc.o
                0x34811244                mmc_change_freq
 .text.sd_switch
                0x34811320       0x6c drivers/mmc/libmmc.o
                0x34811320                sd_switch
 .text.mmc_set_ios
                0x3481138c       0x10 drivers/mmc/libmmc.o
                0x3481138c                mmc_set_ios
 .text.mmc_set_bus_width
                0x3481139c        0x8 drivers/mmc/libmmc.o
                0x3481139c                mmc_set_bus_width
 .text.mmc_send_if_cond
                0x348113a4       0x7c drivers/mmc/libmmc.o
                0x348113a4                mmc_send_if_cond
 .text.mmc_register
                0x34811420       0x6c drivers/mmc/libmmc.o
                0x34811420                mmc_register
 .text.__def_mmc_init
                0x3481148c        0x8 drivers/mmc/libmmc.o
                0x3481148c                cpu_mmc_init
 .text.print_mmc_devices
                0x34811494       0x74 drivers/mmc/libmmc.o
                0x34811494                print_mmc_devices
 .text.find_mmc_device
                0x34811508       0x4c drivers/mmc/libmmc.o
                0x34811508                find_mmc_device
 .text.mmc_get_dev
                0x34811554       0x14 drivers/mmc/libmmc.o
                0x34811554                mmc_get_dev
 .text.mmc_bwrite
                0x34811568       0xb4 drivers/mmc/libmmc.o
 .text.mmc_bread_primitive
                0x3481161c       0xb0 drivers/mmc/libmmc.o
 .text.mmc_bread
                0x348116cc       0x6c drivers/mmc/libmmc.o
 .text.sd_change_freq
                0x34811738      0x1e8 drivers/mmc/libmmc.o
                0x34811738                sd_change_freq
 .text.mmc_startup
                0x34811920      0x5f8 drivers/mmc/libmmc.o
                0x34811920                mmc_startup
 .text.mmc_send_app_op_cond
                0x34811f18       0xf0 drivers/mmc/libmmc.o
                0x34811f18                mmc_send_app_op_cond
 .text.mmc_go_idle
                0x34812008       0x54 drivers/mmc/libmmc.o
                0x34812008                mmc_go_idle
 .text.mmc_send_op_cond
                0x3481205c       0xa0 drivers/mmc/libmmc.o
                0x3481205c                mmc_send_op_cond
 .text.mmc_init
                0x348120fc       0x64 drivers/mmc/libmmc.o
                0x348120fc                mmc_init
 .text.mmc_initialize
                0x34812160       0xac drivers/mmc/libmmc.o
                0x34812160                mmc_initialize
 .text.get_mtd_device_nm
                0x3481220c       0x64 drivers/mtd/libmtd.o
                0x3481220c                get_mtd_device_nm
 .text.dm9000_outblk_8bit
                0x34812270       0x28 drivers/net/libnet.o
 .text.dm9000_outblk_16bit
                0x34812298       0x38 drivers/net/libnet.o
 .text.dm9000_outblk_32bit
                0x348122d0       0x34 drivers/net/libnet.o
 .text.dm9000_inblk_8bit
                0x34812304       0x28 drivers/net/libnet.o
 .text.dm9000_inblk_16bit
                0x3481232c       0x38 drivers/net/libnet.o
 .text.dm9000_inblk_32bit
                0x34812364       0x34 drivers/net/libnet.o
 .text.dm9000_rx_status_32bit
                0x34812398       0x28 drivers/net/libnet.o
 .text.dm9000_rx_status_16bit
                0x348123c0       0x24 drivers/net/libnet.o
 .text.dm9000_rx_status_8bit
                0x348123e4       0x34 drivers/net/libnet.o
 .text.DM9000_ior
                0x34812418       0x18 drivers/net/libnet.o
 .text.DM9000_iow
                0x34812430       0x18 drivers/net/libnet.o
 .text.dm9000_reset
                0x34812448       0xa0 drivers/net/libnet.o
 .text.dm9000_rx
                0x348124e8      0x148 drivers/net/libnet.o
 .text.dm9000_phy_read
                0x34812630       0x54 drivers/net/libnet.o
 .text.dm9000_init
                0x34812684      0x2f8 drivers/net/libnet.o
 .text.dm9000_read_srom_word
                0x3481297c       0x54 drivers/net/libnet.o
                0x3481297c                dm9000_read_srom_word
 .text.dm9000_send
                0x348129d0       0xcc drivers/net/libnet.o
 .text.dm9000_halt
                0x34812a9c       0x70 drivers/net/libnet.o
 .text.dm9000_initialize
                0x34812b0c       0x84 drivers/net/libnet.o
                0x34812b0c                dm9000_initialize
 .text.power_get_interface
                0x34812b90       0x2c drivers/power/libpower.o
                0x34812b90                power_get_interface
 .text.pmic_get
                0x34812bbc       0x50 drivers/power/libpower.o
                0x34812bbc                pmic_get
 .text.check_reg
                0x34812c0c       0x28 drivers/power/libpower.o
                0x34812c0c                check_reg
 .text.do_pmic  0x34812c34      0x2d8 drivers/power/libpower.o
                0x34812c34                do_pmic
 .text.pmic_alloc
                0x34812f0c       0x58 drivers/power/libpower.o
                0x34812f0c                pmic_alloc
 .text.pmic_reg_read
                0x34812f64      0x108 drivers/power/libpower.o
                0x34812f64                pmic_reg_read
 .text.pmic_reg_write
                0x3481306c       0xd8 drivers/power/libpower.o
                0x3481306c                pmic_reg_write
 .text.pmic_init
                0x34813144       0x74 drivers/power/pmic/libpmic.o
                0x34813144                pmic_init
 .text.serial_null
                0x348131b8        0x4 drivers/serial/libserial.o
                0x348131b8                jz_serial_initialize
                0x348131b8                bfin_serial_initialize
                0x348131b8                p3mx_serial_initialize
                0x348131b8                leon2_serial_initialize
                0x348131b8                leon3_serial_initialize
                0x348131b8                amirix_serial_initialize
                0x348131b8                marvell_serial_initialize
                0x348131b8                cpci750_serial_initialize
                0x348131b8                ns16550_serial_initialize
                0x348131b8                asc_serial_initialize
                0x348131b8                altera_serial_initialize
                0x348131b8                oc_serial_initialize
                0x348131b8                sh_serial_initialize
                0x348131b8                mxs_auart_initialize
                0x348131b8                arm_dcc_initialize
                0x348131b8                bmw_serial_initialize
                0x348131b8                mcf_serial_initialize
                0x348131b8                lh7a40x_serial_initialize
                0x348131b8                evb64260_serial_initialize
                0x348131b8                lpc32xx_serial_initialize
                0x348131b8                max3100_serial_initialize
                0x348131b8                mpc85xx_serial_initialize
                0x348131b8                imx_serial_initialize
                0x348131b8                ixp_serial_initialize
                0x348131b8                bfin_jtag_initialize
                0x348131b8                cogent_serial_initialize
                0x348131b8                clps7111_serial_initialize
                0x348131b8                ml2_serial_initialize
                0x348131b8                sandbox_serial_initialize
                0x348131b8                s3c24xx_serial_initialize
                0x348131b8                sconsole_serial_initialize
                0x348131b8                uartlite_serial_initialize
                0x348131b8                au1x00_serial_initialize
                0x348131b8                pxa_serial_initialize
                0x348131b8                atmel_serial_initialize
                0x348131b8                pl01x_serial_initialize
                0x348131b8                altera_jtag_serial_initialize
                0x348131b8                zynq_serial_initalize
                0x348131b8                mpc512x_serial_initialize
                0x348131b8                ks8695_serial_initialize
                0x348131b8                sa1100_serial_initialize
                0x348131b8                mpc8260_scc_serial_initialize
                0x348131b8                mxc_serial_initialize
                0x348131b8                iop480_serial_initialize
                0x348131b8                mpc8xx_serial_initialize
                0x348131b8                mpc8260_smc_serial_initialize
                0x348131b8                mpc5xx_serial_initialize
 .text.serial_register
                0x348131bc       0x18 drivers/serial/libserial.o
                0x348131bc                serial_register
 .text.get_current
                0x348131d4       0x3c drivers/serial/libserial.o
 .text.serial_puts
                0x34813210       0x1c drivers/serial/libserial.o
                0x34813210                serial_puts
 .text.serial_putc
                0x3481322c       0x1c drivers/serial/libserial.o
                0x3481322c                serial_putc
 .text.serial_tstc
                0x34813248       0x14 drivers/serial/libserial.o
                0x34813248                serial_tstc
 .text.serial_getc
                0x3481325c       0x14 drivers/serial/libserial.o
                0x3481325c                serial_getc
 .text.serial_setbrg
                0x34813270       0x14 drivers/serial/libserial.o
                0x34813270                serial_setbrg
 .text.on_baudrate
                0x34813284       0xf8 drivers/serial/libserial.o
 .text.serial_init
                0x3481337c       0x14 drivers/serial/libserial.o
                0x3481337c                serial_init
 .text.serial_assign
                0x34813390       0x50 drivers/serial/libserial.o
                0x34813390                serial_assign
 .text.serial_initialize
                0x348133e0       0xd0 drivers/serial/libserial.o
                0x348133e0                serial_initialize
 .text.serial_stdio_init
                0x348134b0       0x8c drivers/serial/libserial.o
                0x348134b0                serial_stdio_init
 .text.serial_err_check
                0x3481353c       0x48 drivers/serial/libserial.o
 .text.serial_getc_dev
                0x34813584       0x8c drivers/serial/libserial.o
                0x34813584                serial_getc_dev
 .text.serial_tstc_dev
                0x34813610       0x54 drivers/serial/libserial.o
                0x34813610                serial_tstc_dev
 .text.s5p_serial0_getc
                0x34813664        0x8 drivers/serial/libserial.o
                0x34813664                s5p_serial0_getc
 .text.s5p_serial0_tstc
                0x3481366c        0x8 drivers/serial/libserial.o
                0x3481366c                s5p_serial0_tstc
 .text.s5p_serial1_getc
                0x34813674        0x8 drivers/serial/libserial.o
                0x34813674                s5p_serial1_getc
 .text.s5p_serial1_tstc
                0x3481367c        0x8 drivers/serial/libserial.o
                0x3481367c                s5p_serial1_tstc
 .text.s5p_serial2_getc
                0x34813684        0x8 drivers/serial/libserial.o
                0x34813684                s5p_serial2_getc
 .text.s5p_serial2_tstc
                0x3481368c        0x8 drivers/serial/libserial.o
                0x3481368c                s5p_serial2_tstc
 .text.s5p_serial3_getc
                0x34813694        0x8 drivers/serial/libserial.o
                0x34813694                s5p_serial3_getc
 .text.s5p_serial3_tstc
                0x3481369c        0x8 drivers/serial/libserial.o
                0x3481369c                s5p_serial3_tstc
 .text.default_serial_console
                0x348136a4       0x1c drivers/serial/libserial.o
                0x348136a4                default_serial_console
 .text.s5p_serial_initialize
                0x348136c0       0x38 drivers/serial/libserial.o
                0x348136c0                s5p_serial_initialize
 .text.serial_putc_dev
                0x348136f8       0x94 drivers/serial/libserial.o
                0x348136f8                serial_putc_dev
 .text.s5p_serial3_putc
                0x3481378c        0x8 drivers/serial/libserial.o
                0x3481378c                s5p_serial3_putc
 .text.s5p_serial2_putc
                0x34813794        0x8 drivers/serial/libserial.o
                0x34813794                s5p_serial2_putc
 .text.s5p_serial1_putc
                0x3481379c        0x8 drivers/serial/libserial.o
                0x3481379c                s5p_serial1_putc
 .text.s5p_serial0_putc
                0x348137a4        0x8 drivers/serial/libserial.o
                0x348137a4                s5p_serial0_putc
 .text.serial_puts_dev
                0x348137ac       0x30 drivers/serial/libserial.o
                0x348137ac                serial_puts_dev
 .text.s5p_serial3_puts
                0x348137dc        0x8 drivers/serial/libserial.o
                0x348137dc                s5p_serial3_puts
 .text.s5p_serial2_puts
                0x348137e4        0x8 drivers/serial/libserial.o
                0x348137e4                s5p_serial2_puts
 .text.s5p_serial1_puts
                0x348137ec        0x8 drivers/serial/libserial.o
                0x348137ec                s5p_serial1_puts
 .text.s5p_serial0_puts
                0x348137f4        0x8 drivers/serial/libserial.o
                0x348137f4                s5p_serial0_puts
 .text.serial_setbrg_dev
                0x348137fc       0x88 drivers/serial/libserial.o
                0x348137fc                serial_setbrg_dev
 .text.s5p_serial3_setbrg
                0x34813884        0x8 drivers/serial/libserial.o
                0x34813884                s5p_serial3_setbrg
 .text.s5p_serial2_setbrg
                0x3481388c        0x8 drivers/serial/libserial.o
                0x3481388c                s5p_serial2_setbrg
 .text.s5p_serial1_setbrg
                0x34813894        0x8 drivers/serial/libserial.o
                0x34813894                s5p_serial1_setbrg
 .text.s5p_serial0_setbrg
                0x3481389c        0x8 drivers/serial/libserial.o
                0x3481389c                s5p_serial0_setbrg
 .text.serial_init_dev
                0x348138a4       0x60 drivers/serial/libserial.o
                0x348138a4                serial_init_dev
 .text.s5p_serial3_init
                0x34813904        0x8 drivers/serial/libserial.o
                0x34813904                s5p_serial3_init
 .text.s5p_serial2_init
                0x3481390c        0x8 drivers/serial/libserial.o
                0x3481390c                s5p_serial2_init
 .text.s5p_serial1_init
                0x34813914        0x8 drivers/serial/libserial.o
                0x34813914                s5p_serial1_init
 .text.s5p_serial0_init
                0x3481391c        0x8 drivers/serial/libserial.o
                0x3481391c                s5p_serial0_init
 .text.get_fs   0x34813924        0xc fs/ext4/libext4fs.o
                0x34813924                get_fs
 .text.ext4fs_probe
                0x34813930       0x2c fs/ext4/libext4fs.o
                0x34813930                ext4fs_probe
 .text.ext4fs_read_file
                0x3481395c      0x25c fs/ext4/libext4fs.o
                0x3481395c                ext4fs_read_file
 .text.ext4fs_read
                0x34813bb8       0x40 fs/ext4/libext4fs.o
                0x34813bb8                ext4fs_read
 .text.ext4_read_file
                0x34813bf8       0x64 fs/ext4/libext4fs.o
                0x34813bf8                ext4_read_file
 .text.ext4fs_free_node
                0x34813c5c       0x20 fs/ext4/libext4fs.o
                0x34813c5c                ext4fs_free_node
 .text.ext4fs_ls
                0x34813c7c       0x74 fs/ext4/libext4fs.o
                0x34813c7c                ext4fs_ls
 .text.ext4fs_close
                0x34813cf0      0x110 fs/ext4/libext4fs.o
                0x34813cf0                ext4fs_close
 .text.read_allocated_block
                0x34813e00      0x968 fs/ext4/libext4fs.o
                0x34813e00                read_allocated_block
 .text.ext4fs_read_inode
                0x34814768      0x130 fs/ext4/libext4fs.o
                0x34814768                ext4fs_read_inode
 .text.ext4fs_mount
                0x34814898       0xd8 fs/ext4/libext4fs.o
                0x34814898                ext4fs_mount
 .text.ext4fs_iterate_dir
                0x34814970      0x288 fs/ext4/libext4fs.o
                0x34814970                ext4fs_iterate_dir
 .text.ext4fs_find_file1
                0x34814bf8      0x2b0 fs/ext4/libext4fs.o
 .text.ext4fs_find_file
                0x34814ea8       0x7c fs/ext4/libext4fs.o
                0x34814ea8                ext4fs_find_file
 .text.ext4fs_open
                0x34814f24       0x9c fs/ext4/libext4fs.o
                0x34814f24                ext4fs_open
 .text.ext4fs_set_blk_dev
                0x34814fc0       0x6c fs/ext4/libext4fs.o
                0x34814fc0                ext4fs_set_blk_dev
 .text.ext4fs_devread
                0x3481502c      0x27c fs/ext4/libext4fs.o
                0x3481502c                ext4fs_devread
 .text.ext4_read_superblock
                0x348152a8       0x3c fs/ext4/libext4fs.o
                0x348152a8                ext4_read_superblock
 .text.downcase
                0x348152e4       0x38 fs/fat/libfat.o
 .text.disk_read
                0x3481531c       0x54 fs/fat/libfat.o
 .text.dirdelim
                0x34815370       0x34 fs/fat/libfat.o
 .text.get_fatent
                0x348153a4      0x174 fs/fat/libfat.o
 .text.slot2str
                0x34815518       0xc4 fs/fat/libfat.o
 .text.mkcksum  0x348155dc       0x58 fs/fat/libfat.o
 .text.fat_close
                0x34815634        0x4 fs/fat/libfat.o
                0x34815634                fat_close
 .text.get_name
                0x34815638       0xbc fs/fat/libfat.o
 .text.read_bootsectandvi
                0x348156f4      0x12c fs/fat/libfat.o
 .text.file_fat_detectfs
                0x34815820      0x154 fs/fat/libfat.o
                0x34815820                file_fat_detectfs
 .text.get_cluster
                0x34815974      0x190 fs/fat/libfat.o
 .text.get_vfatname
                0x34815b04      0x1b4 fs/fat/libfat.o
 .text.do_fat_read_at
                0x34815cb8      0xb08 fs/fat/libfat.o
                0x34815cb8                do_fat_read_at
 .text.file_fat_read_at
                0x348167c0       0x44 fs/fat/libfat.o
                0x348167c0                file_fat_read_at
 .text.fat_read_file
                0x34816804       0x3c fs/fat/libfat.o
                0x34816804                fat_read_file
 .text.do_fat_read
                0x34816840       0x20 fs/fat/libfat.o
                0x34816840                do_fat_read
 .text.file_fat_ls
                0x34816860       0x10 fs/fat/libfat.o
                0x34816860                file_fat_ls
 .text.fat_set_blk_dev
                0x34816870       0xd8 fs/fat/libfat.o
                0x34816870                fat_set_blk_dev
 .text.fs_ls_unsupported
                0x34816948        0x8 fs/libfs.o
 .text.fs_read_unsupported
                0x34816950        0x8 fs/libfs.o
 .text.fs_write_unsupported
                0x34816958        0x8 fs/libfs.o
 .text.fs_close_unsupported
                0x34816960        0x4 fs/libfs.o
 .text.fs_get_info
                0x34816964       0x30 fs/libfs.o
 .text.fs_close
                0x34816994       0x28 fs/libfs.o
 .text.fs_ls    0x348169bc       0x3c fs/libfs.o
                0x348169bc                fs_ls
 .text.fs_probe_unsupported
                0x348169f8       0x18 fs/libfs.o
 .text.fs_read  0x34816a10       0x80 fs/libfs.o
                0x34816a10                fs_read
 .text.fs_set_blk_dev
                0x34816a90       0x9c fs/libfs.o
                0x34816a90                fs_set_blk_dev
 .text.do_ls    0x34816b2c       0x68 fs/libfs.o
                0x34816b2c                do_ls
 .text.do_load  0x34816b94      0x1c8 fs/libfs.o
                0x34816b94                do_load
 .text.cyg_crc16
                0x34816d5c       0x44 lib/libgeneric.o
                0x34816d5c                cyg_crc16
 .text.crc32_no_comp
                0x34816da0       0xec lib/libgeneric.o
                0x34816da0                crc32_no_comp
 .text.crc32    0x34816e8c       0x14 lib/libgeneric.o
                0x34816e8c                crc32
 .text.crc32_wd
                0x34816ea0        0x4 lib/libgeneric.o
                0x34816ea0                crc32_wd
 .text.print_size
                0x34816ea4      0x134 lib/libgeneric.o
                0x34816ea4                print_size
 .text.print_buffer
                0x34816fd8      0x1ac lib/libgeneric.o
                0x34816fd8                print_buffer
 .text.__div64_32
                0x34817184       0xf4 lib/libgeneric.o
                0x34817184                __div64_32
 .text.zunzip   0x34817278      0x124 lib/libgeneric.o
                0x34817278                zunzip
 .text.gunzip   0x3481739c       0xb4 lib/libgeneric.o
                0x3481739c                gunzip
 .text.gzfree   0x34817450        0x8 lib/libgeneric.o
                0x34817450                gzfree
 .text.gzalloc  0x34817458       0x10 lib/libgeneric.o
                0x34817458                gzalloc
 .text.hang     0x34817468       0x18 lib/libgeneric.o
                0x34817468                hang
 .text.hwalk_r  0x34817480       0x58 lib/libgeneric.o
                0x34817480                hwalk_r
 .text._hdelete
                0x348174d8       0x50 lib/libgeneric.o
 .text.hdestroy_r
                0x34817528       0x74 lib/libgeneric.o
                0x34817528                hdestroy_r
 .text.drop_var_from_set
                0x3481759c       0x60 lib/libgeneric.o
 .text.cmpkey   0x348175fc       0x14 lib/libgeneric.o
 .text.hcreate_r
                0x34817610       0xa8 lib/libgeneric.o
                0x34817610                hcreate_r
 .text.match_string
                0x348176b8       0x60 lib/libgeneric.o
 .text.hexport_r
                0x34817718      0x358 lib/libgeneric.o
                0x34817718                hexport_r
 .text.hsearch_r
                0x34817a70      0x504 lib/libgeneric.o
                0x34817a70                hsearch_r
 .text.hdelete_r
                0x34817f74       0xe4 lib/libgeneric.o
                0x34817f74                hdelete_r
 .text.himport_r
                0x34818058      0x338 lib/libgeneric.o
                0x34818058                himport_r
 .text.skip_spaces
                0x34818390       0x24 lib/libgeneric.o
                0x34818390                skip_spaces
 .text.strim    0x348183b4       0x58 lib/libgeneric.o
                0x348183b4                strim
 .text.lmb_addrs_adjacent
                0x3481840c       0x24 lib/libgeneric.o
 .text.lmb_remove_region
                0x34818430       0x3c lib/libgeneric.o
 .text.lmb_init
                0x3481846c       0x28 lib/libgeneric.o
                0x3481846c                lmb_init
 .text.lmb_add_region
                0x34818494      0x1d4 lib/libgeneric.o
 .text.lmb_add  0x34818668        0x4 lib/libgeneric.o
                0x34818668                lmb_add
 .text.lmb_reserve
                0x3481866c        0x8 lib/libgeneric.o
                0x3481866c                lmb_reserve
 .text.lmb_overlaps_region
                0x34818674       0x54 lib/libgeneric.o
                0x34818674                lmb_overlaps_region
 .text.lmb_align_down
                0x348186c8        0xc lib/libgeneric.o
 .text.__lmb_alloc_base
                0x348186d4      0x11c lib/libgeneric.o
                0x348186d4                __lmb_alloc_base
 .text.__board_lmb_reserve
                0x348187f0        0x4 lib/libgeneric.o
                0x348187f0                board_lmb_reserve
                0x348187f0                __board_lmb_reserve
 .text.lmb_alloc_base
                0x348187f4       0x34 lib/libgeneric.o
                0x348187f4                lmb_alloc_base
 .text.lmb_alloc
                0x34818828        0x8 lib/libgeneric.o
                0x34818828                lmb_alloc
 .text.string_to_ip
                0x34818830       0x78 lib/libgeneric.o
                0x34818830                string_to_ip
 .text.qsort    0x348188a8      0x124 lib/libgeneric.o
                0x348188a8                qsort
 .text.strcpy   0x348189cc       0x1c lib/libgeneric.o
                0x348189cc                strcpy
 .text.strncpy  0x348189e8       0x28 lib/libgeneric.o
                0x348189e8                strncpy
 .text.strcat   0x34818a10       0x30 lib/libgeneric.o
                0x34818a10                strcat
 .text.strncat  0x34818a40       0x5c lib/libgeneric.o
                0x34818a40                strncat
 .text.strcmp   0x34818a9c       0x30 lib/libgeneric.o
                0x34818a9c                strcmp
 .text.strncmp  0x34818acc       0x48 lib/libgeneric.o
                0x34818acc                strncmp
 .text.strchr   0x34818b14       0x2c lib/libgeneric.o
                0x34818b14                strchr
 .text.strlen   0x34818b40       0x20 lib/libgeneric.o
                0x34818b40                strlen
 .text.strnlen  0x34818b60       0x28 lib/libgeneric.o
                0x34818b60                strnlen
 .text.strpbrk  0x34818b88       0x38 lib/libgeneric.o
                0x34818b88                strpbrk
 .text.memset   0x34818bc0       0x74 lib/libgeneric.o
                0x34818bc0                memset
 .text.memcpy   0x34818c34       0x74 lib/libgeneric.o
                0x34818c34                memcpy
 .text.memmove  0x34818ca8       0x64 lib/libgeneric.o
                0x34818ca8                memmove
 .text.memcmp   0x34818d0c       0x38 lib/libgeneric.o
                0x34818d0c                memcmp
 .text.strstr   0x34818d44       0x60 lib/libgeneric.o
                0x34818d44                strstr
 .text.strdup   0x34818da4       0x34 lib/libgeneric.o
                0x34818da4                strdup
 .text.strmhz   0x34818dd8       0x6c lib/libgeneric.o
                0x34818dd8                strmhz
 .text.udelay   0x34818e44       0x2c lib/libgeneric.o
                0x34818e44                udelay
 .text.simple_strtoul
                0x34818e70       0xb0 lib/libgeneric.o
                0x34818e70                simple_strtoul
 .text.simple_strtol
                0x34818f20       0x28 lib/libgeneric.o
                0x34818f20                simple_strtol
 .text.simple_strtoull
                0x34818f48       0xd0 lib/libgeneric.o
                0x34818f48                simple_strtoull
 .text.skip_atoi
                0x34819018       0x38 lib/libgeneric.o
 .text.put_dec_trunc
                0x34819050       0xc4 lib/libgeneric.o
 .text.simple_itoa
                0x34819114       0x58 lib/libgeneric.o
                0x34819114                simple_itoa
 .text.panic    0x3481916c       0x44 lib/libgeneric.o
                0x3481916c                panic
 .text.string   0x348191b0       0xa8 lib/libgeneric.o
 .text.put_dec  0x34819258      0x118 lib/libgeneric.o
 .text.number   0x34819370      0x234 lib/libgeneric.o
 .text.strict_strtoul
                0x348195a4       0x78 lib/libgeneric.o
                0x348195a4                strict_strtoul
 .text.vsprintf
                0x3481961c      0x65c lib/libgeneric.o
                0x3481961c                vsprintf
 .text.sprintf  0x34819c78       0x24 lib/libgeneric.o
                0x34819c78                sprintf
 .text.inflate_fast
                0x34819c9c      0x538 lib/zlib/libz.o
                0x34819c9c                inflate_fast
 .text.inflate_table
                0x3481a1d4      0x560 lib/zlib/libz.o
                0x3481a1d4                inflate_table
 .text.inflateReset
                0x3481a734       0x80 lib/zlib/libz.o
                0x3481a734                inflateReset
 .text.inflateInit2_
                0x3481a7b4       0xfc lib/zlib/libz.o
                0x3481a7b4                inflateInit2_
 .text.inflateEnd
                0x3481a8b0       0x64 lib/zlib/libz.o
                0x3481a8b0                inflateEnd
 .text.adler32  0x3481a914      0x2fc lib/zlib/libz.o
                0x3481a914                adler32
 .text.zcfree   0x3481ac10        0x8 lib/zlib/libz.o
                0x3481ac10                zcfree
 .text.zcalloc  0x3481ac18        0x8 lib/zlib/libz.o
                0x3481ac18                zcalloc
 .text.inflate  0x3481ac20     0x173c lib/zlib/libz.o
                0x3481ac20                inflate
 .text.ArpInit  0x3481c35c       0x50 net/libnet.o
                0x3481c35c                ArpInit
 .text.ArpReceive
                0x3481c3ac      0x220 net/libnet.o
                0x3481c3ac                ArpReceive
 .text.arp_raw_request
                0x3481c5cc       0xcc net/libnet.o
                0x3481c5cc                arp_raw_request
 .text.ArpRequest
                0x3481c698       0x8c net/libnet.o
                0x3481c698                ArpRequest
 .text.ArpTimeoutCheck
                0x3481c724       0x80 net/libnet.o
                0x3481c724                ArpTimeoutCheck
 .text.truncate_sz
                0x3481c7a4       0x34 net/libnet.o
 .text.BootpRequest
                0x3481c7d8      0x214 net/libnet.o
                0x3481c7d8                BootpRequest
 .text.BootpHandler
                0x3481c9ec      0x330 net/libnet.o
 .text.BootpTimeout
                0x3481cd1c       0x44 net/libnet.o
 .text.eth_get_dev_by_index
                0x3481cd60       0x40 net/libnet.o
                0x3481cd60                eth_get_dev_by_index
 .text.eth_get_dev_index
                0x3481cda0       0x1c net/libnet.o
                0x3481cda0                eth_get_dev_index
 .text.eth_halt
                0x3481cdbc       0x34 net/libnet.o
                0x3481cdbc                eth_halt
 .text.eth_send
                0x3481cdf0       0x34 net/libnet.o
                0x3481cdf0                eth_send
 .text.eth_rx   0x3481ce24       0x2c net/libnet.o
                0x3481ce24                eth_rx
 .text.eth_get_name
                0x3481ce50       0x20 net/libnet.o
                0x3481ce50                eth_get_name
 .text.eth_current_changed
                0x3481ce70       0x5c net/libnet.o
 .text.eth_set_current
                0x3481cecc       0xb4 net/libnet.o
                0x3481cecc                eth_set_current
 .text.eth_try_another
                0x3481cf80       0x88 net/libnet.o
                0x3481cf80                eth_try_another
 .text.eth_register
                0x3481d008       0x84 net/libnet.o
                0x3481d008                eth_register
 .text.eth_setenv_enetaddr
                0x3481d08c       0x38 net/libnet.o
                0x3481d08c                eth_setenv_enetaddr
 .text.eth_parse_enetaddr
                0x3481d0c4       0x58 net/libnet.o
                0x3481d0c4                eth_parse_enetaddr
 .text.eth_getenv_enetaddr
                0x3481d11c       0x58 net/libnet.o
                0x3481d11c                eth_getenv_enetaddr
 .text.eth_getenv_enetaddr_by_index
                0x3481d174       0x50 net/libnet.o
                0x3481d174                eth_getenv_enetaddr_by_index
 .text.eth_init
                0x3481d1c4       0xc8 net/libnet.o
                0x3481d1c4                eth_init
 .text.eth_write_hwaddr
                0x3481d28c      0x1e4 net/libnet.o
                0x3481d28c                eth_write_hwaddr
 .text.eth_initialize
                0x3481d470      0x180 net/libnet.o
                0x3481d470                eth_initialize
 .text.startAgainTimeout
                0x3481d5f0       0x14 net/libnet.o
 .text.dummy_handler
                0x3481d604        0x4 net/libnet.o
 .text.net_set_udp_handler
                0x3481d608       0x20 net/libnet.o
                0x3481d608                net_set_udp_handler
 .text.net_get_arp_handler
                0x3481d628       0x10 net/libnet.o
                0x3481d628                net_get_arp_handler
 .text.net_set_arp_handler
                0x3481d638       0x20 net/libnet.o
                0x3481d638                net_set_arp_handler
 .text.NetCksum
                0x3481d658       0x3c net/libnet.o
                0x3481d658                NetCksum
 .text.NetCksumOk
                0x3481d694       0x20 net/libnet.o
                0x3481d694                NetCksumOk
 .text.copy_filename
                0x3481d6b4       0x58 net/libnet.o
                0x3481d6b4                copy_filename
 .text.on_bootfile
                0x3481d70c       0x2c net/libnet.o
 .text.string_to_VLAN
                0x3481d738       0x48 net/libnet.o
                0x3481d738                string_to_VLAN
 .text.getenv_VLAN
                0x3481d780       0x10 net/libnet.o
                0x3481d780                getenv_VLAN
 .text.NetEthHdrSize
                0x3481d790       0x40 net/libnet.o
                0x3481d790                NetEthHdrSize
 .text.ip_to_string
                0x3481d7d0       0x48 net/libnet.o
                0x3481d7d0                ip_to_string
 .text.net_set_ip_header
                0x3481d818       0x88 net/libnet.o
                0x3481d818                net_set_ip_header
 .text.net_set_udp_header
                0x3481d8a0       0xa8 net/libnet.o
                0x3481d8a0                net_set_udp_header
 .text.net_update_ether
                0x3481d948       0x88 net/libnet.o
                0x3481d948                net_update_ether
 .text.NetSetEther
                0x3481d9d0       0xa0 net/libnet.o
                0x3481d9d0                NetSetEther
 .text.NetReceive
                0x3481da70      0x2ac net/libnet.o
                0x3481da70                NetReceive
 .text.NetSetTimeout
                0x3481dd1c       0x50 net/libnet.o
                0x3481dd1c                NetSetTimeout
 .text.net_clear_handlers
                0x3481dd6c       0x24 net/libnet.o
 .text.net_cleanup_loop
                0x3481dd90        0x4 net/libnet.o
 .text.NetSendUDPPacket
                0x3481dd94      0x104 net/libnet.o
                0x3481dd94                NetSendUDPPacket
 .text.NetStartAgain
                0x3481de98      0x124 net/libnet.o
                0x3481de98                NetStartAgain
 .text.NetInitLoop
                0x3481dfbc       0xf0 net/libnet.o
 .text.net_init
                0x3481e0ac       0x6c net/libnet.o
                0x3481e0ac                net_init
 .text.NetLoop  0x3481e118      0x328 net/libnet.o
                0x3481e118                NetLoop
 .text.net_auto_load
                0x3481e440       0x38 net/libnet.o
                0x3481e440                net_auto_load
 .text.ping_receive
                0x3481e478       0xec net/libnet.o
                0x3481e478                ping_receive
 .text.ping_start
                0x3481e564      0x12c net/libnet.o
                0x3481e564                ping_start
 .text.ping_timeout
                0x3481e690       0x1c net/libnet.o
 .text.TftpSend
                0x3481e6ac      0x1c4 net/libnet.o
 .text.TftpStart
                0x3481e870      0x344 net/libnet.o
                0x3481e870                TftpStart
 .text.TftpHandler
                0x3481ebb4      0x39c net/libnet.o
 .text.TftpTimeout
                0x3481ef50       0x88 net/libnet.o
 .text.board_init
                0x3481efd8       0x74 board/samsung/goni/libgoni.o
                0x3481efd8                board_init
 .text.dram_init
                0x3481f04c       0x10 board/samsung/goni/libgoni.o
                0x3481f04c                dram_init
 .text.dram_init_banksize
                0x3481f05c       0x34 board/samsung/goni/libgoni.o
                0x3481f05c                dram_init_banksize
 .text.checkboard
                0x3481f090       0x18 board/samsung/goni/libgoni.o
                0x3481f090                checkboard
 .text.board_mmc_init
                0x3481f0a8       0x14 board/samsung/goni/libgoni.o
                0x3481f0a8                board_mmc_init
 .text.power_init_board
                0x3481f0bc        0x8 board/samsung/goni/libgoni.o
                0x3481f0bc                power_init_board
 .text.setup_hsmmc_cfg_gpio
                0x3481f0c4       0x6c board/samsung/goni/libgoni.o
                0x3481f0c4                setup_hsmmc_cfg_gpio
 .text.setup_sdhci0_cfg_card
                0x3481f130       0x50 board/samsung/goni/libgoni.o
                0x3481f130                setup_sdhci0_cfg_card
 .text.setup_hsmmc_clock
                0x3481f180       0x98 board/samsung/goni/libgoni.o
                0x3481f180                setup_hsmmc_clock
 .text.raise    0x3481f218       0x1c /home/jimmy/news5pv210/u-boot-2013.10/arch/arm/lib/eabi_compat.o
                0x3481f218                raise
 .text          0x3481f234      0x20c /arm/arm-2009q3/bin/../lib/gcc/arm-none-linux-gnueabi/4.4.1/libgcc.a(_udivsi3.o)
                0x3481f234                __udivsi3
                0x3481f234                __aeabi_uidiv
                0x3481f420                __aeabi_uidivmod
 .text          0x3481f440      0x240 /arm/arm-2009q3/bin/../lib/gcc/arm-none-linux-gnueabi/4.4.1/libgcc.a(_divsi3.o)
                0x3481f440                __aeabi_idiv
                0x3481f440                __divsi3
                0x3481f660                __aeabi_idivmod
 .text          0x3481f680       0x1c /arm/arm-2009q3/bin/../lib/gcc/arm-none-linux-gnueabi/4.4.1/libgcc.a(_lshrdi3.o)
                0x3481f680                __aeabi_llsr
                0x3481f680                __lshrdi3
 .text          0x3481f69c       0x1c /arm/arm-2009q3/bin/../lib/gcc/arm-none-linux-gnueabi/4.4.1/libgcc.a(_ashldi3.o)
                0x3481f69c                __ashldi3
                0x3481f69c                __aeabi_llsl
 .text          0x3481f6b8       0x10 /arm/arm-2009q3/bin/../lib/gcc/arm-none-linux-gnueabi/4.4.1/libgcc.a(_dvmd_lnx.o)
                0x3481f6b8                __aeabi_ldiv0
                0x3481f6b8                __aeabi_idiv0

.glue_7         0x3481f6c8        0x0
 .glue_7        0x00000000        0x0 linker stubs

.glue_7t        0x3481f6c8        0x0
 .glue_7t       0x00000000        0x0 linker stubs

.vfp11_veneer   0x3481f6c8        0x0
 .vfp11_veneer  0x00000000        0x0 linker stubs

.v4_bx          0x3481f6c8        0x0
 .v4_bx         0x00000000        0x0 linker stubs
                0x3481f6c8                . = ALIGN (0x4)

.rodata         0x3481f6c8     0x7694
 *(SORT(.rodata*))
 .rodata.C.48.4034
                0x3481f6c8       0x80 arch/arm/lib/libarm.o
 .rodata.C.60.4615
                0x3481f748        0xc drivers/power/libpower.o
 .rodata.CSWTCH.71
                0x3481f754       0x58 common/libcommon.o
 .rodata.CSWTCH.73
                0x3481f7ac       0x20 common/libcommon.o
 .rodata.__func__.4171
                0x3481f7cc       0x18 arch/arm/cpu/armv7/libarmv7.o
 .rodata.__func__.4301
                0x3481f7e4       0x10 common/libcommon.o
 .rodata.__func__.4311
                0x3481f7f4       0x10 fs/ext4/libext4fs.o
 .rodata.__func__.4331
                0x3481f804        0xc common/libcommon.o
 .rodata.__func__.4472
                0x3481f810       0x10 drivers/power/libpower.o
 .rodata.__func__.4507
                0x3481f820       0x10 drivers/power/libpower.o
 .rodata.__func__.4517
                0x3481f830        0xc drivers/power/pmic/libpmic.o
 .rodata.__func__.4580
                0x3481f83c        0xc drivers/power/libpower.o
 .rodata.__func__.4590
                0x3481f848        0x8 common/libcommon.o
 .rodata.__func__.4648
                0x3481f850       0x10 common/libcommon.o
 .rodata.__func__.4723
                0x3481f860       0x10 common/libcommon.o
 .rodata._ctype
                0x3481f870      0x100 lib/libgeneric.o
                0x3481f870                _ctype
 .rodata.block_drvr
                0x3481f970       0x10 disk/libdisk.o
 .rodata.boot_os
                0x3481f980       0x60 common/libcommon.o
 .rodata.crc16_tab
                0x3481f9e0      0x200 lib/libgeneric.o
 .rodata.crc_table
                0x3481fbe0      0x400 lib/libgeneric.o
 .rodata.dbase.4678
                0x3481ffe0       0x40 lib/zlib/libz.o
 .rodata.default_environment
                0x34820020      0x6fc common/libcommon.o
                0x34820020                default_environment
 .rodata.delims.4177
                0x3482071c        0x4 common/libcommon.o
 .rodata.dext.4679
                0x34820720       0x40 lib/zlib/libz.o
 .rodata.digits.4386
                0x34820760       0x10 lib/libgeneric.o
 .rodata.distfix
                0x34820770       0x80 lib/zlib/libz.o
 .rodata.env_flags_varaccess_mask
                0x348207f0       0x10 common/libcommon.o
 .rodata.env_flags_varaccess_rep
                0x34820800        0x8 common/libcommon.o
 .rodata.env_flags_vartype_rep
                0x34820808        0x8 common/libcommon.o
 .rodata.erase_seq
                0x34820810        0x4 common/libcommon.o
 .rodata.hex_asc
                0x34820814       0x14 lib/libgeneric.o
 .rodata.lbase.4676
                0x34820828       0x40 lib/zlib/libz.o
 .rodata.lenfix
                0x34820868      0x800 lib/zlib/libz.o
 .rodata.lext.4677
                0x34821068       0x40 lib/zlib/libz.o
 .rodata.mtdids_default
                0x348210a8        0x4 common/libcommon.o
 .rodata.mtdparts_default
                0x348210ac        0x4 common/libcommon.o
 .rodata.name.4515
                0x348210b0       0x10 drivers/power/pmic/libpmic.o
 .rodata.names.4045
                0x348210c0        0x8 lib/libgeneric.o
 .rodata.op_table
                0x348210c8       0x68 common/libcommon.o
 .rodata.order.4983
                0x34821130       0x28 lib/zlib/libz.o
 .rodata.tab_seq
                0x34821158        0xc common/libcommon.o
 .rodata.udivslot
                0x34821164       0x40 drivers/serial/libserial.o
 .rodata.uimage_arch
                0x348211a4      0x108 common/libcommon.o
 .rodata.uimage_comp
                0x348212ac       0x48 common/libcommon.o
 .rodata.uimage_os
                0x348212f4       0x60 common/libcommon.o
 .rodata.uimage_type
                0x34821354       0xd8 common/libcommon.o
 .rodata.version_string
                0x3482142c       0x38 common/libcommon.o
                0x3482142c                version_string
 .rodata        0x34821464       0x7f common/libcommon.o
 .rodata        0x348214e3        0xe net/libnet.o
 .rodata.str1.1
                0x348214f1       0x65 arch/arm/cpu/armv7/libarmv7.o
 .rodata.str1.1
                0x34821556       0x15 arch/arm/cpu/armv7/s5p-common/libs5p-common.o
 .rodata.str1.1
                0x3482156b       0x16 arch/arm/cpu/armv7/s5pc1xx/libs5pc1xx.o
 .rodata.str1.1
                0x34821581      0x37e arch/arm/lib/libarm.o
                                0x39c (size before relaxing)
 .rodata.str1.1
                0x348218ff     0x378b common/libcommon.o
                               0x3ab5 (size before relaxing)
 .rodata.str1.1
                0x3482508a      0x403 disk/libdisk.o
                                0x432 (size before relaxing)
 .rodata.str1.1
                0x3482548d       0x3c drivers/i2c/libi2c.o
 .rodata.str1.1
                0x348254c9      0x318 drivers/mmc/libmmc.o
                                0x324 (size before relaxing)
 .rodata.str1.1
                0x348257e1      0x1f8 drivers/net/libnet.o
                                0x1fe (size before relaxing)
 .rodata.str1.1
                0x348259d9      0x258 drivers/power/libpower.o
                                0x26f (size before relaxing)
 .rodata.str1.1
                0x34825c31       0x2e drivers/power/pmic/libpmic.o
 .rodata.str1.1
                0x34825c5f       0x57 drivers/serial/libserial.o
                                 0x92 (size before relaxing)
 .rodata.str1.1
                0x34825cb6      0x39b fs/ext4/libext4fs.o
 .rodata.str1.1
                0x34826051      0x1e9 fs/fat/libfat.o
                                0x214 (size before relaxing)
 .rodata.str1.1
                0x3482623a       0xa1 fs/libfs.o
                                 0xd7 (size before relaxing)
 .rodata.str1.1
                0x348262db      0x23a lib/libgeneric.o
                                0x253 (size before relaxing)
 .rodata.str1.1
                0x34826515      0x21c lib/zlib/libz.o
                                0x21d (size before relaxing)
 .rodata.str1.1
                0x34826731      0x5da net/libnet.o
                                0x680 (size before relaxing)
 .rodata.str1.1
                0x34826d0b       0x36 board/samsung/goni/libgoni.o
 .rodata.str1.1
                0x34826d41       0x1b /home/jimmy/news5pv210/u-boot-2013.10/arch/arm/lib/eabi_compat.o

.hash           0x34826d5c       0x2c
 .hash          0x34826d5c       0x2c arch/arm/cpu/armv7/start.o
                0x34826d88                . = ALIGN (0x4)

.data           0x34826d88     0x116c
 *(.data*)
 .data.s5p_cpu_id
                0x34826d88        0x4 arch/arm/cpu/armv7/s5p-common/libs5p-common.o
                0x34826d88                s5p_cpu_id
 .data.init_sequence
                0x34826d8c       0x34 arch/arm/lib/libarm.o
                0x34826d8c                init_sequence
 .data.bootm_help_text
                0x34826dc0      0x248 common/libcommon.o
 .data.cmd_bootm_sub
                0x34827008       0xc0 common/libcommon.o
 .data.do_echo  0x348270c8        0x4 common/libcommon.o
 .data.dp_last_length
                0x348270cc        0x4 common/libcommon.o
 .data.mtdparts_help_text
                0x348270d0      0x4d4 common/libcommon.o
 .data.env_help_text
                0x348275a4      0x218 common/libcommon.o
 .data.env_id   0x348277bc        0x4 common/libcommon.o
 .data.cmd_env_sub
                0x348277c0       0xd8 common/libcommon.o
 .data.source_help_text
                0x34827898       0x50 common/libcommon.o
 .data.av_      0x348278e8      0x408 common/libcommon.o
 .data.sbrk_base
                0x34827cf0        0x4 common/libcommon.o
 .data.trim_threshold
                0x34827cf4        0x4 common/libcommon.o
 .data.env_htab
                0x34827cf8       0x10 common/libcommon.o
                0x34827cf8                env_htab
 .data.env_name_spec
                0x34827d08        0x4 common/libcommon.o
                0x34827d08                env_name_spec
 .data.reserved_list
                0x34827d0c       0x84 common/libcommon.o
 .data.load_addr
                0x34827d90        0x4 common/libcommon.o
                0x34827d90                load_addr
 .data.hist_cur
                0x34827d94        0x4 common/libcommon.o
 .data.stdio_names
                0x34827d98        0xc common/libcommon.o
                0x34827d98                stdio_names
 .data.cur_dev_num
                0x34827da4        0x4 drivers/mmc/libmmc.o
 .data.pmic_list
                0x34827da8        0x8 drivers/power/libpower.o
 .data          0x34827db0        0x8 drivers/serial/libserial.o
                0x34827db0                config
 .data.s5p_serial1_device
                0x34827db8       0x30 drivers/serial/libserial.o
                0x34827db8                s5p_serial1_device
 .data.s5p_serial0_device
                0x34827de8       0x30 drivers/serial/libserial.o
                0x34827de8                s5p_serial0_device
 .data.s5p_serial2_device
                0x34827e18       0x30 drivers/serial/libserial.o
                0x34827e18                s5p_serial2_device
 .data.s5p_serial3_device
                0x34827e48       0x30 drivers/serial/libserial.o
                0x34827e48                s5p_serial3_device
 .data.ext4fs_indir3_blkno
                0x34827e78        0x4 fs/ext4/libext4fs.o
                0x34827e78                ext4fs_indir3_blkno
 .data.ext4fs_indir1_blkno
                0x34827e7c        0x4 fs/ext4/libext4fs.o
                0x34827e7c                ext4fs_indir1_blkno
 .data.ext4fs_indir2_blkno
                0x34827e80        0x4 fs/ext4/libext4fs.o
                0x34827e80                ext4fs_indir2_blkno
 .data.fstypes  0x34827e84       0x48 fs/libfs.o
 .data.NetOurNativeVLAN
                0x34827ecc        0x2 net/libnet.o
                0x34827ecc                NetOurNativeVLAN
 *fill*         0x34827ece        0x2 00
 .data.NetBcastAddr
                0x34827ed0        0x8 net/libnet.o
                0x34827ed0                NetBcastAddr
 .data.first_call.4326
                0x34827ed8        0x4 net/libnet.o
 .data.NetOurVLAN
                0x34827edc        0x2 net/libnet.o
                0x34827edc                NetOurVLAN
 *fill*         0x34827ede        0x2 00
 .data.TftpTimeoutCountMax
                0x34827ee0        0x4 net/libnet.o
 .data.TftpBlkSizeOption
                0x34827ee4        0x2 net/libnet.o
 *fill*         0x34827ee6        0x2 00
 .data.TftpTimeoutMSecs
                0x34827ee8        0x4 net/libnet.o
 .data.TftpBlkSize
                0x34827eec        0x2 net/libnet.o
 *fill*         0x34827eee        0x2 00
 .data.TftpRRQTimeoutCountMax
                0x34827ef0        0x4 net/libnet.o
                0x34827ef0                TftpRRQTimeoutCountMax

.got            0x34827ef4        0x0
 .got           0x00000000        0x0 arch/arm/cpu/armv7/start.o

.got.plt        0x34827ef4        0xc
 .got.plt       0x34827ef4        0xc arch/arm/cpu/armv7/start.o
                0x34827ef4                _GLOBAL_OFFSET_TABLE_
                0x34827f00                . = ALIGN (0x4)
                0x34827f00                . = .
                0x34827f00                . = ALIGN (0x4)

.u_boot_list    0x34827f00      0x568
 *(SORT(.u_boot_list*))
 .u_boot_list_2_cmd_1
                0x34827f00        0x0 common/libcommon.o
 .u_boot_list_2_cmd_2_base
                0x34827f00       0x18 common/libcommon.o
                0x34827f00                _u_boot_list_2_cmd_2_base
 .u_boot_list_2_cmd_2_bdinfo
                0x34827f18       0x18 common/libcommon.o
                0x34827f18                _u_boot_list_2_cmd_2_bdinfo
 .u_boot_list_2_cmd_2_boot
                0x34827f30       0x18 common/libcommon.o
                0x34827f30                _u_boot_list_2_cmd_2_boot
 .u_boot_list_2_cmd_2_bootd
                0x34827f48       0x18 common/libcommon.o
                0x34827f48                _u_boot_list_2_cmd_2_bootd
 .u_boot_list_2_cmd_2_bootm
                0x34827f60       0x18 common/libcommon.o
                0x34827f60                _u_boot_list_2_cmd_2_bootm
 .u_boot_list_2_cmd_2_bootp
                0x34827f78       0x18 common/libcommon.o
                0x34827f78                _u_boot_list_2_cmd_2_bootp
 .u_boot_list_2_cmd_2_chpart
                0x34827f90       0x18 common/libcommon.o
                0x34827f90                _u_boot_list_2_cmd_2_chpart
 .u_boot_list_2_cmd_2_cmp
                0x34827fa8       0x18 common/libcommon.o
                0x34827fa8                _u_boot_list_2_cmd_2_cmp
 .u_boot_list_2_cmd_2_coninfo
                0x34827fc0       0x18 common/libcommon.o
                0x34827fc0                _u_boot_list_2_cmd_2_coninfo
 .u_boot_list_2_cmd_2_cp
                0x34827fd8       0x18 common/libcommon.o
                0x34827fd8                _u_boot_list_2_cmd_2_cp
 .u_boot_list_2_cmd_2_crc32
                0x34827ff0       0x18 common/libcommon.o
                0x34827ff0                _u_boot_list_2_cmd_2_crc32
 .u_boot_list_2_cmd_2_dcache
                0x34828008       0x18 common/libcommon.o
                0x34828008                _u_boot_list_2_cmd_2_dcache
 .u_boot_list_2_cmd_2_echo
                0x34828020       0x18 common/libcommon.o
                0x34828020                _u_boot_list_2_cmd_2_echo
 .u_boot_list_2_cmd_2_editenv
                0x34828038       0x18 common/libcommon.o
                0x34828038                _u_boot_list_2_cmd_2_editenv
 .u_boot_list_2_cmd_2_env
                0x34828050       0x18 common/libcommon.o
                0x34828050                _u_boot_list_2_cmd_2_env
 .u_boot_list_2_cmd_2_exit
                0x34828068       0x18 common/libcommon.o
                0x34828068                _u_boot_list_2_cmd_2_exit
 .u_boot_list_2_cmd_2_ext2load
                0x34828080       0x18 common/libcommon.o
                0x34828080                _u_boot_list_2_cmd_2_ext2load
 .u_boot_list_2_cmd_2_ext2ls
                0x34828098       0x18 common/libcommon.o
                0x34828098                _u_boot_list_2_cmd_2_ext2ls
 .u_boot_list_2_cmd_2_false
                0x348280b0       0x18 common/libcommon.o
                0x348280b0                _u_boot_list_2_cmd_2_false
 .u_boot_list_2_cmd_2_fatinfo
                0x348280c8       0x18 common/libcommon.o
                0x348280c8                _u_boot_list_2_cmd_2_fatinfo
 .u_boot_list_2_cmd_2_fatload
                0x348280e0       0x18 common/libcommon.o
                0x348280e0                _u_boot_list_2_cmd_2_fatload
 .u_boot_list_2_cmd_2_fatls
                0x348280f8       0x18 common/libcommon.o
                0x348280f8                _u_boot_list_2_cmd_2_fatls
 .u_boot_list_2_cmd_2_go
                0x34828110       0x18 common/libcommon.o
                0x34828110                _u_boot_list_2_cmd_2_go
 .u_boot_list_2_cmd_2_help
                0x34828128       0x18 common/libcommon.o
                0x34828128                _u_boot_list_2_cmd_2_help
 .u_boot_list_2_cmd_2_icache
                0x34828140       0x18 common/libcommon.o
                0x34828140                _u_boot_list_2_cmd_2_icache
 .u_boot_list_2_cmd_2_iminfo
                0x34828158       0x18 common/libcommon.o
                0x34828158                _u_boot_list_2_cmd_2_iminfo
 .u_boot_list_2_cmd_2_itest
                0x34828170       0x18 common/libcommon.o
                0x34828170                _u_boot_list_2_cmd_2_itest
 .u_boot_list_2_cmd_2_loadb
                0x34828188       0x18 common/libcommon.o
                0x34828188                _u_boot_list_2_cmd_2_loadb
 .u_boot_list_2_cmd_2_loads
                0x348281a0       0x18 common/libcommon.o
                0x348281a0                _u_boot_list_2_cmd_2_loads
 .u_boot_list_2_cmd_2_loadx
                0x348281b8       0x18 common/libcommon.o
                0x348281b8                _u_boot_list_2_cmd_2_loadx
 .u_boot_list_2_cmd_2_loady
                0x348281d0       0x18 common/libcommon.o
                0x348281d0                _u_boot_list_2_cmd_2_loady
 .u_boot_list_2_cmd_2_loop
                0x348281e8       0x18 common/libcommon.o
                0x348281e8                _u_boot_list_2_cmd_2_loop
 .u_boot_list_2_cmd_2_md
                0x34828200       0x18 common/libcommon.o
                0x34828200                _u_boot_list_2_cmd_2_md
 .u_boot_list_2_cmd_2_mm
                0x34828218       0x18 common/libcommon.o
                0x34828218                _u_boot_list_2_cmd_2_mm
 .u_boot_list_2_cmd_2_mmc
                0x34828230       0x18 common/libcommon.o
                0x34828230                _u_boot_list_2_cmd_2_mmc
 .u_boot_list_2_cmd_2_mmcinfo
                0x34828248       0x18 common/libcommon.o
                0x34828248                _u_boot_list_2_cmd_2_mmcinfo
 .u_boot_list_2_cmd_2_mtdparts
                0x34828260       0x18 common/libcommon.o
                0x34828260                _u_boot_list_2_cmd_2_mtdparts
 .u_boot_list_2_cmd_2_mw
                0x34828278       0x18 common/libcommon.o
                0x34828278                _u_boot_list_2_cmd_2_mw
 .u_boot_list_2_cmd_2_nm
                0x34828290       0x18 common/libcommon.o
                0x34828290                _u_boot_list_2_cmd_2_nm
 .u_boot_list_2_cmd_2_ping
                0x348282a8       0x18 common/libcommon.o
                0x348282a8                _u_boot_list_2_cmd_2_ping
 .u_boot_list_2_cmd_2_pmic
                0x348282c0       0x18 drivers/power/libpower.o
                0x348282c0                _u_boot_list_2_cmd_2_pmic
 .u_boot_list_2_cmd_2_printenv
                0x348282d8       0x18 common/libcommon.o
                0x348282d8                _u_boot_list_2_cmd_2_printenv
 .u_boot_list_2_cmd_2_question_mark
                0x348282f0       0x18 common/libcommon.o
                0x348282f0                _u_boot_list_2_cmd_2_question_mark
 .u_boot_list_2_cmd_2_reginfo
                0x34828308       0x18 common/libcommon.o
                0x34828308                _u_boot_list_2_cmd_2_reginfo
 .u_boot_list_2_cmd_2_reset
                0x34828320       0x18 common/libcommon.o
                0x34828320                _u_boot_list_2_cmd_2_reset
 .u_boot_list_2_cmd_2_run
                0x34828338       0x18 common/libcommon.o
                0x34828338                _u_boot_list_2_cmd_2_run
 .u_boot_list_2_cmd_2_saveenv
                0x34828350       0x18 common/libcommon.o
                0x34828350                _u_boot_list_2_cmd_2_saveenv
 .u_boot_list_2_cmd_2_setenv
                0x34828368       0x18 common/libcommon.o
                0x34828368                _u_boot_list_2_cmd_2_setenv
 .u_boot_list_2_cmd_2_showvar
                0x34828380       0x18 common/libcommon.o
                0x34828380                _u_boot_list_2_cmd_2_showvar
 .u_boot_list_2_cmd_2_source
                0x34828398       0x18 common/libcommon.o
                0x34828398                _u_boot_list_2_cmd_2_source
 .u_boot_list_2_cmd_2_test
                0x348283b0       0x18 common/libcommon.o
                0x348283b0                _u_boot_list_2_cmd_2_test
 .u_boot_list_2_cmd_2_tftpboot
                0x348283c8       0x18 common/libcommon.o
                0x348283c8                _u_boot_list_2_cmd_2_tftpboot
 .u_boot_list_2_cmd_2_true
                0x348283e0       0x18 common/libcommon.o
                0x348283e0                _u_boot_list_2_cmd_2_true
 .u_boot_list_2_cmd_2_version
                0x348283f8       0x18 common/libcommon.o
                0x348283f8                _u_boot_list_2_cmd_2_version
 .u_boot_list_2_cmd_3
                0x34828410        0x0 common/libcommon.o
 .u_boot_list_2_env_clbk_1
                0x34828410        0x0 common/libcommon.o
 .u_boot_list_2_env_clbk_2_baudrate
                0x34828410        0x8 drivers/serial/libserial.o
                0x34828410                _u_boot_list_2_env_clbk_2_baudrate
 .u_boot_list_2_env_clbk_2_bootfile
                0x34828418        0x8 net/libnet.o
                0x34828418                _u_boot_list_2_env_clbk_2_bootfile
 .u_boot_list_2_env_clbk_2_callbacks
                0x34828420        0x8 common/libcommon.o
                0x34828420                _u_boot_list_2_env_clbk_2_callbacks
 .u_boot_list_2_env_clbk_2_console
                0x34828428        0x8 common/libcommon.o
                0x34828428                _u_boot_list_2_env_clbk_2_console
 .u_boot_list_2_env_clbk_2_flags
                0x34828430        0x8 common/libcommon.o
                0x34828430                _u_boot_list_2_env_clbk_2_flags
 .u_boot_list_2_env_clbk_2_loadaddr
                0x34828438        0x8 common/libcommon.o
                0x34828438                _u_boot_list_2_env_clbk_2_loadaddr
 .u_boot_list_2_env_clbk_3
                0x34828440        0x0 common/libcommon.o
 .u_boot_list_2_i2c_1
                0x34828440        0x0 drivers/i2c/libi2c.o
 .u_boot_list_2_i2c_2_soft0
                0x34828440       0x28 drivers/i2c/libi2c.o
                0x34828440                _u_boot_list_2_i2c_2_soft0
 .u_boot_list_2_i2c_3
                0x34828468        0x0 drivers/i2c/libi2c.o
                0x34828468                . = ALIGN (0x4)

.image_copy_end
                0x34828468        0x0
 *(.__image_copy_end)
 .__image_copy_end
                0x34828468        0x0 arch/arm/lib/libarm.o

.rel_dyn_start  0x34828468        0x0
 *(.__rel_dyn_start)
 .__rel_dyn_start
                0x34828468        0x0 arch/arm/lib/libarm.o

.rel.dyn        0x34828468     0x4d50
 *(.rel*)
 .rel.got       0x00000000        0x0 arch/arm/cpu/armv7/start.o
 .rel.plt       0x00000000        0x0 arch/arm/cpu/armv7/start.o
 .rel.text      0x34828468       0x90 arch/arm/cpu/armv7/start.o
 .rel.text.v7_dcache_maint_range
                0x348284f8       0x18 arch/arm/cpu/armv7/start.o
 .rel.text.arch_cpu_init
                0x34828510        0x8 arch/arm/cpu/armv7/start.o
 .rel.text.get_device_type
                0x00000000        0x0 arch/arm/cpu/armv7/start.o
 .rel.text.print_cpuinfo
                0x34828518       0x18 arch/arm/cpu/armv7/start.o
 .rel.text.timer_get_us_down
                0x34828530        0x8 arch/arm/cpu/armv7/start.o
 .rel.text.timer_get_us
                0x00000000        0x0 arch/arm/cpu/armv7/start.o
 .rel.text.reset_timer_masked
                0x34828538        0x8 arch/arm/cpu/armv7/start.o
 .rel.text.s5p_config_sromc
                0x00000000        0x0 arch/arm/cpu/armv7/start.o
 .rel.text.pwm_enable
                0x34828540        0x8 arch/arm/cpu/armv7/start.o
 .rel.text.pwm_disable
                0x00000000        0x0 arch/arm/cpu/armv7/start.o
 .rel.text.pwm_init
                0x34828548        0x8 arch/arm/cpu/armv7/start.o
 .rel.text.pwm_config
                0x34828550        0x8 arch/arm/cpu/armv7/start.o
 .rel.text.get_pll_clk
                0x34828558       0x58 arch/arm/cpu/armv7/start.o
 .rel.text.s5pc100_get_pclk
                0x348285b0        0x8 arch/arm/cpu/armv7/start.o
 .rel.text.get_arm_clk
                0x348285b8        0x8 arch/arm/cpu/armv7/start.o
 .rel.text.s5pc110_get_pclk
                0x348285c0        0x8 arch/arm/cpu/armv7/start.o
 .rel.text.get_uart_clk
                0x348285c8        0x8 arch/arm/cpu/armv7/start.o
 .rel.text.get_pwm_clk
                0x348285d0        0x8 arch/arm/cpu/armv7/start.o
 .rel.text.init_func_i2c
                0x348285d8       0x10 arch/arm/cpu/armv7/start.o
 .rel.text.display_banner
                0x348285e8       0x10 arch/arm/cpu/armv7/start.o
 .rel.text.init_baudrate
                0x348285f8        0x8 arch/arm/cpu/armv7/start.o
 .rel.text.board_init_r
                0x34828600       0x30 arch/arm/cpu/armv7/start.o
 .rel.text.board_init_f
                0x34828630       0x30 arch/arm/cpu/armv7/start.o
 .rel.text.boot_prep_linux
                0x34828660       0x10 arch/arm/cpu/armv7/start.o
 .rel.text.boot_jump_linux
                0x34828670       0x28 arch/arm/cpu/armv7/start.o
 .rel.text.interrupt_init
                0x34828698        0x8 arch/arm/cpu/armv7/start.o
 .rel.text.show_regs
                0x348286a0       0x50 arch/arm/cpu/armv7/start.o
 .rel.text.bad_mode
                0x348286f0        0x8 arch/arm/cpu/armv7/start.o
 .rel.text.do_irq
                0x348286f8        0x8 arch/arm/cpu/armv7/start.o
 .rel.text.do_fiq
                0x34828700        0x8 arch/arm/cpu/armv7/start.o
 .rel.text.do_not_used
                0x34828708        0x8 arch/arm/cpu/armv7/start.o
 .rel.text.do_data_abort
                0x34828710        0x8 arch/arm/cpu/armv7/start.o
 .rel.text.do_prefetch_abort
                0x34828718        0x8 arch/arm/cpu/armv7/start.o
 .rel.text.do_software_interrupt
                0x34828720        0x8 arch/arm/cpu/armv7/start.o
 .rel.text.do_undefined_instruction
                0x34828728        0x8 arch/arm/cpu/armv7/start.o
 .rel.text.do_reset
                0x34828730        0x8 arch/arm/cpu/armv7/start.o
 .rel.text.__enable_caches
                0x00000000        0x0 arch/arm/cpu/armv7/start.o
 .rel.rodata.C.48.4034
                0x34828738      0x100 arch/arm/cpu/armv7/start.o
 .rel.data.init_sequence
                0x34828838       0x60 arch/arm/cpu/armv7/start.o
 .rel.text.print_num
                0x34828898        0x8 arch/arm/cpu/armv7/start.o
 .rel.text.do_bdinfo
                0x348288a0       0x98 arch/arm/cpu/armv7/start.o
 .rel.text.do_go
                0x34828938       0x10 arch/arm/cpu/armv7/start.o
 .rel.text.image_info
                0x34828948       0x40 arch/arm/cpu/armv7/start.o
 .rel.text.do_iminfo
                0x34828988        0x8 arch/arm/cpu/armv7/start.o
 .rel.text.do_bootd
                0x34828990        0x8 arch/arm/cpu/armv7/start.o
 .rel.text.do_bootm_plan9
                0x34828998       0x18 arch/arm/cpu/armv7/start.o
 .rel.text.do_bootm_rtems
                0x348289b0        0x8 arch/arm/cpu/armv7/start.o
 .rel.text.do_bootm_netbsd
                0x348289b8       0x18 arch/arm/cpu/armv7/start.o
 .rel.text.T.122
                0x348289d0      0x100 arch/arm/cpu/armv7/start.o
 .rel.text.do_bootm
                0x34828ad0       0x18 arch/arm/cpu/armv7/start.o
 .rel.text.bootm_maybe_autostart
                0x34828ae8       0x20 arch/arm/cpu/armv7/start.o
 .rel.text.parse_argv
                0x34828b08       0x18 arch/arm/cpu/armv7/start.o
 .rel.text.flush_dcache_all
                0x00000000        0x0 arch/arm/cpu/armv7/start.o
 .rel.text.do_dcache
                0x34828b20       0x18 arch/arm/cpu/armv7/start.o
 .rel.text.invalidate_icache_all
                0x00000000        0x0 arch/arm/cpu/armv7/start.o
 .rel.text.do_icache
                0x34828b38       0x18 arch/arm/cpu/armv7/start.o
 .rel.text.do_coninfo
                0x34828b50       0x28 arch/arm/cpu/armv7/start.o
 .rel.text.do_echo
                0x34828b78        0x8 arch/arm/cpu/armv7/start.o
 .rel.text.do_fat_fsinfo
                0x34828b80       0x10 arch/arm/cpu/armv7/start.o
 .rel.text.do_help
                0x34828b90       0x10 arch/arm/cpu/armv7/start.o
 .rel.text.binary_test
                0x34828ba0       0x78 arch/arm/cpu/armv7/start.o
 .rel.text.do_itest
                0x34828c18       0x40 arch/arm/cpu/armv7/start.o
 .rel.text.bin_data_init
                0x34828c58       0x18 arch/arm/cpu/armv7/start.o
 .rel.text.bin_data_char
                0x34828c70       0x10 arch/arm/cpu/armv7/start.o
 .rel.text.k_data_save
                0x34828c80       0x30 arch/arm/cpu/armv7/start.o
 .rel.text.k_data_restore
                0x34828cb0       0x30 arch/arm/cpu/armv7/start.o
 .rel.text.load_serial_ymodem
                0x34828ce0       0x20 arch/arm/cpu/armv7/start.o
 .rel.text.T.117
                0x34828d00       0x18 arch/arm/cpu/armv7/start.o
 .rel.text.load_serial
                0x34828d18       0x68 arch/arm/cpu/armv7/start.o
 .rel.text.do_load_serial
                0x34828d80       0x30 arch/arm/cpu/armv7/start.o
 .rel.text.T.119
                0x34828db0        0x8 arch/arm/cpu/armv7/start.o
 .rel.text.do_load_serial_bin
                0x34828db8       0xf0 arch/arm/cpu/armv7/start.o
 .rel.text.do_mem_mw
                0x34828ea8        0x8 arch/arm/cpu/armv7/start.o
 .rel.text.do_mem_base
                0x34828eb0       0x10 arch/arm/cpu/armv7/start.o
 .rel.text.do_mem_cmp
                0x34828ec0       0x30 arch/arm/cpu/armv7/start.o
 .rel.text.do_mem_crc
                0x34828ef0        0x8 arch/arm/cpu/armv7/start.o
 .rel.text.do_mem_cp
                0x34828ef8       0x10 arch/arm/cpu/armv7/start.o
 .rel.text.mod_mem
                0x34828f08       0x48 arch/arm/cpu/armv7/start.o
 .rel.text.do_mem_md
                0x34828f50       0x20 arch/arm/cpu/armv7/start.o
 .rel.text.do_mmcinfo
                0x34828f70       0x78 arch/arm/cpu/armv7/start.o
 .rel.text.do_mmcops
                0x34828fe8       0x80 arch/arm/cpu/armv7/start.o
 .rel.text.device_find
                0x34829068        0x8 arch/arm/cpu/armv7/start.o
 .rel.text.mtd_part_info
                0x34829070       0x20 arch/arm/cpu/armv7/start.o
 .rel.text.memsize_format
                0x34829090       0x20 arch/arm/cpu/armv7/start.o
 .rel.text.index_partitions
                0x348290b0       0x28 arch/arm/cpu/armv7/start.o
 .rel.text.current_save
                0x348290d8       0x40 arch/arm/cpu/armv7/start.o
 .rel.text.part_sort_add
                0x34829118       0x18 arch/arm/cpu/armv7/start.o
 .rel.text.device_del
                0x34829130       0x18 arch/arm/cpu/armv7/start.o
 .rel.text.get_mtd_info
                0x34829148       0x28 arch/arm/cpu/armv7/start.o
 .rel.text.part_validate
                0x34829170       0x48 arch/arm/cpu/armv7/start.o
 .rel.text.device_parse
                0x348291b8       0x80 arch/arm/cpu/armv7/start.o
 .rel.text.mtd_id_parse
                0x34829238       0x30 arch/arm/cpu/armv7/start.o
 .rel.text.find_dev_and_part
                0x34829268       0x40 arch/arm/cpu/armv7/start.o
 .rel.text.T.228
                0x348292a8        0x8 arch/arm/cpu/armv7/start.o
 .rel.text.mtd_devices_init
                0x348292b0       0x10 arch/arm/cpu/armv7/start.o
 .rel.text.mtdparts_init
                0x348292c0       0xd8 arch/arm/cpu/armv7/start.o
 .rel.text.do_chpart
                0x34829398       0x38 arch/arm/cpu/armv7/start.o
 .rel.text.T.227
                0x348293d0       0x20 arch/arm/cpu/armv7/start.o
 .rel.text.do_mtdparts
                0x348293f0      0x118 arch/arm/cpu/armv7/start.o
 .rel.text.do_ping
                0x34829508       0x18 arch/arm/cpu/armv7/start.o
 .rel.text.netboot_common
                0x34829520       0x98 arch/arm/cpu/armv7/start.o
 .rel.text.get_env_id
                0x348295b8        0x8 arch/arm/cpu/armv7/start.o
 .rel.text.do_env_delete
                0x348295c0       0x10 arch/arm/cpu/armv7/start.o
 .rel.text._do_env_set
                0x348295d0       0x30 arch/arm/cpu/armv7/start.o
 .rel.text.setenv
                0x34829600        0x8 arch/arm/cpu/armv7/start.o
 .rel.text.env_print
                0x34829608       0x18 arch/arm/cpu/armv7/start.o
 .rel.text.do_env_print
                0x34829620       0x10 arch/arm/cpu/armv7/start.o
 .rel.text.setenv_hex
                0x34829630        0x8 arch/arm/cpu/armv7/start.o
 .rel.text.do_env
                0x34829638        0x8 arch/arm/cpu/armv7/start.o
 .rel.text.do_env_import
                0x34829640       0x50 arch/arm/cpu/armv7/start.o
 .rel.text.do_env_export
                0x34829690       0x40 arch/arm/cpu/armv7/start.o
 .rel.text.do_env_default
                0x348296d0        0x8 arch/arm/cpu/armv7/start.o
 .rel.text.do_env_save
                0x348296d8       0x10 arch/arm/cpu/armv7/start.o
 .rel.text.getenv_f
                0x348296e8        0x8 arch/arm/cpu/armv7/start.o
 .rel.text.getenv
                0x348296f0        0x8 arch/arm/cpu/armv7/start.o
 .rel.text.do_env_edit
                0x348296f8       0x10 arch/arm/cpu/armv7/start.o
 .rel.text.source
                0x34829708       0x38 arch/arm/cpu/armv7/start.o
 .rel.text.do_source
                0x34829740        0x8 arch/arm/cpu/armv7/start.o
 .rel.text.do_test
                0x34829748       0x78 arch/arm/cpu/armv7/start.o
 .rel.text.do_version
                0x348297c0       0x20 arch/arm/cpu/armv7/start.o
 .rel.text.cmd_get_data_size
                0x348297e0        0x8 arch/arm/cpu/armv7/start.o
 .rel.text.cmd_usage
                0x348297e8       0x18 arch/arm/cpu/armv7/start.o
 .rel.text.find_cmd
                0x34829800       0x10 arch/arm/cpu/armv7/start.o
 .rel.text.cmd_process
                0x34829810       0x18 arch/arm/cpu/armv7/start.o
 .rel.text._do_help
                0x34829828       0x10 arch/arm/cpu/armv7/start.o
 .rel.text.console_setfile
                0x34829838       0x10 arch/arm/cpu/armv7/start.o
 .rel.text.fgetc
                0x34829848        0x8 arch/arm/cpu/armv7/start.o
 .rel.text.ftstc
                0x34829850        0x8 arch/arm/cpu/armv7/start.o
 .rel.text.fputc
                0x34829858        0x8 arch/arm/cpu/armv7/start.o
 .rel.text.fputs
                0x34829860        0x8 arch/arm/cpu/armv7/start.o
 .rel.text.disable_ctrlc
                0x00000000        0x0 arch/arm/cpu/armv7/start.o
 .rel.text.had_ctrlc
                0x34829868        0x8 arch/arm/cpu/armv7/start.o
 .rel.text.clear_ctrlc
                0x34829870        0x8 arch/arm/cpu/armv7/start.o
 .rel.text.ctrlc
                0x34829878       0x10 arch/arm/cpu/armv7/start.o
 .rel.text.on_console
                0x34829888       0x20 arch/arm/cpu/armv7/start.o
 .rel.text.stdio_print_current_devices
                0x348298a8       0x40 arch/arm/cpu/armv7/start.o
 .rel.text.console_init_r
                0x348298e8       0x48 arch/arm/cpu/armv7/start.o
 .rel.text.mallopt
                0x00000000        0x0 arch/arm/cpu/armv7/start.o
 .rel.text.mem_malloc_init
                0x34829930       0x18 arch/arm/cpu/armv7/start.o
 .rel.text.sbrk
                0x34829948       0x18 arch/arm/cpu/armv7/start.o
 .rel.text.malloc_trim
                0x34829960       0x18 arch/arm/cpu/armv7/start.o
 .rel.text.free
                0x34829978       0x20 arch/arm/cpu/armv7/start.o
 .rel.text.malloc
                0x34829998       0x48 arch/arm/cpu/armv7/start.o
 .rel.text.calloc
                0x348299e0        0x8 arch/arm/cpu/armv7/start.o
 .rel.text.realloc
                0x348299e8        0x8 arch/arm/cpu/armv7/start.o
 .rel.text.env_attr_lookup
                0x348299f0        0x8 arch/arm/cpu/armv7/start.o
 .rel.text.on_callbacks
                0x348299f8       0x20 arch/arm/cpu/armv7/start.o
 .rel.text.find_env_callback
                0x34829a18       0x10 arch/arm/cpu/armv7/start.o
 .rel.text.set_callback
                0x34829a28        0x8 arch/arm/cpu/armv7/start.o
 .rel.text.env_callback_init
                0x34829a30       0x10 arch/arm/cpu/armv7/start.o
 .rel.text.env_get_addr
                0x34829a40        0x8 arch/arm/cpu/armv7/start.o
 .rel.text.env_get_char
                0x34829a48        0x8 arch/arm/cpu/armv7/start.o
 .rel.text.set_default_vars
                0x34829a50       0x10 arch/arm/cpu/armv7/start.o
 .rel.text.set_default_env
                0x34829a60       0x40 arch/arm/cpu/armv7/start.o
 .rel.text.env_relocate
                0x34829aa0        0x8 arch/arm/cpu/armv7/start.o
 .rel.text.env_import
                0x34829aa8       0x38 arch/arm/cpu/armv7/start.o
 .rel.text.skip_num
                0x34829ae0        0x8 arch/arm/cpu/armv7/start.o
 .rel.text.on_flags
                0x34829ae8       0x20 arch/arm/cpu/armv7/start.o
 .rel.text.env_flags_parse_varaccess_from_binflags
                0x00000000        0x0 arch/arm/cpu/armv7/start.o
 .rel.text.env_flags_validate
                0x34829b08       0x68 arch/arm/cpu/armv7/start.o
 .rel.text.env_flags_parse_varaccess
                0x34829b70       0x10 arch/arm/cpu/armv7/start.o
 .rel.text.env_flags_parse_vartype
                0x34829b80       0x10 arch/arm/cpu/armv7/start.o
 .rel.text.env_parse_flags_to_bin
                0x34829b90        0x8 arch/arm/cpu/armv7/start.o
 .rel.text.set_flags
                0x34829b98        0x8 arch/arm/cpu/armv7/start.o
 .rel.text.env_flags_init
                0x34829ba0       0x18 arch/arm/cpu/armv7/start.o
 .rel.text.env_init
                0x34829bb8        0x8 arch/arm/cpu/armv7/start.o
 .rel.text.init_mmc_for_env
                0x34829bc0       0x10 arch/arm/cpu/armv7/start.o
 .rel.text.saveenv
                0x34829bd0       0x48 arch/arm/cpu/armv7/start.o
 .rel.text.jumptable_init
                0x34829c18       0x98 arch/arm/cpu/armv7/start.o
 .rel.text.hash_command
                0x34829cb0        0x8 arch/arm/cpu/armv7/start.o
 .rel.text.hash_block
                0x00000000        0x0 arch/arm/cpu/armv7/start.o
 .rel.text.setup_string_in_str
                0x34829cb8       0x10 arch/arm/cpu/armv7/start.o
 .rel.text.indenter
                0x00000000        0x0 arch/arm/cpu/armv7/start.o
 .rel.text.is_assignment
                0x34829cc8        0x8 arch/arm/cpu/armv7/start.o
 .rel.text.mapset
                0x34829cd0        0x8 arch/arm/cpu/armv7/start.o
 .rel.text.syntax_err
                0x34829cd8        0x8 arch/arm/cpu/armv7/start.o
 .rel.text.do_showvar
                0x34829ce0       0x20 arch/arm/cpu/armv7/start.o
 .rel.text.u_boot_hush_start
                0x34829d00       0x18 arch/arm/cpu/armv7/start.o
 .rel.text.xmalloc
                0x34829d18        0x8 arch/arm/cpu/armv7/start.o
 .rel.text.file_get
                0x34829d20       0x30 arch/arm/cpu/armv7/start.o
 .rel.text.unset_local_var
                0x00000000        0x0 arch/arm/cpu/armv7/start.o
 .rel.text.xrealloc
                0x34829d50        0x8 arch/arm/cpu/armv7/start.o
 .rel.text.done_word
                0x34829d58       0x10 arch/arm/cpu/armv7/start.o
 .rel.text.get_local_var
                0x34829d68       0x20 arch/arm/cpu/armv7/start.o
 .rel.text.set_local_var
                0x34829d88       0x20 arch/arm/cpu/armv7/start.o
 .rel.text.insert_var_value_sub
                0x34829da8        0x8 arch/arm/cpu/armv7/start.o
 .rel.text.b_addqchr
                0x34829db0        0x8 arch/arm/cpu/armv7/start.o
 .rel.text.parse_stream_outer
                0x34829db8       0x60 arch/arm/cpu/armv7/start.o
 .rel.text.parse_file_outer
                0x34829e18       0x10 arch/arm/cpu/armv7/start.o
 .rel.text.parse_string_outer
                0x34829e28        0x8 arch/arm/cpu/armv7/start.o
 .rel.text.run_list_real
                0x34829e30       0x38 arch/arm/cpu/armv7/start.o
 .rel.text.genimg_get_os_name
                0x34829e68       0x10 arch/arm/cpu/armv7/start.o
 .rel.text.genimg_get_arch_name
                0x34829e78       0x10 arch/arm/cpu/armv7/start.o
 .rel.text.genimg_get_type_name
                0x34829e88       0x10 arch/arm/cpu/armv7/start.o
 .rel.text.genimg_get_comp_name
                0x34829e98       0x10 arch/arm/cpu/armv7/start.o
 .rel.text.on_loadaddr
                0x34829ea8        0x8 arch/arm/cpu/armv7/start.o
 .rel.text.getenv_bootm_low
                0x34829eb0        0x8 arch/arm/cpu/armv7/start.o
 .rel.text.genimg_get_comp_id
                0x00000000        0x0 arch/arm/cpu/armv7/start.o
 .rel.text.genimg_get_type_id
                0x00000000        0x0 arch/arm/cpu/armv7/start.o
 .rel.text.genimg_get_arch_id
                0x00000000        0x0 arch/arm/cpu/armv7/start.o
 .rel.text.genimg_get_os_id
                0x00000000        0x0 arch/arm/cpu/armv7/start.o
 .rel.text.genimg_print_size
                0x34829eb8       0x10 arch/arm/cpu/armv7/start.o
 .rel.text.image_print_contents
                0x34829ec8       0x50 arch/arm/cpu/armv7/start.o
 .rel.text.boot_ramdisk_high
                0x34829f18       0x20 arch/arm/cpu/armv7/start.o
 .rel.text.getenv_bootm_size
                0x34829f38       0x10 arch/arm/cpu/armv7/start.o
 .rel.text.getenv_bootm_mapsize
                0x00000000        0x0 arch/arm/cpu/armv7/start.o
 .rel.text.boot_get_ramdisk
                0x34829f48       0x50 arch/arm/cpu/armv7/start.o
 .rel.text.parse_line
                0x00000000        0x0 arch/arm/cpu/armv7/start.o
 .rel.text.do_run
                0x34829f98        0x8 arch/arm/cpu/armv7/start.o
 .rel.text.delete_char
                0x34829fa0       0x10 arch/arm/cpu/armv7/start.o
 .rel.text.cread_add_char
                0x34829fb0        0x8 arch/arm/cpu/armv7/start.o
 .rel.text.readline_into_buffer
                0x34829fb8       0xa8 arch/arm/cpu/armv7/start.o
 .rel.text.readline
                0x3482a060        0x8 arch/arm/cpu/armv7/start.o
 .rel.text.main_loop
                0x3482a068       0x28 arch/arm/cpu/armv7/start.o
 .rel.text.srec_decode
                0x3482a090       0x50 arch/arm/cpu/armv7/start.o
 .rel.text.stdio_get_list
                0x3482a0e0        0x8 arch/arm/cpu/armv7/start.o
 .rel.text.stdio_register
                0x3482a0e8        0x8 arch/arm/cpu/armv7/start.o
 .rel.text.stdio_init
                0x3482a0f0       0x30 arch/arm/cpu/armv7/start.o
 .rel.text.stdio_get_by_name
                0x3482a120       0x10 arch/arm/cpu/armv7/start.o
 .rel.text.xyzModem_error
                0x3482a130       0x10 arch/arm/cpu/armv7/start.o
 .rel.text.xyzModem_flush
                0x3482a140        0x8 arch/arm/cpu/armv7/start.o
 .rel.text.xyzModem_stream_terminate
                0x3482a148        0x8 arch/arm/cpu/armv7/start.o
 .rel.text.xyzModem_stream_close
                0x3482a150       0x20 arch/arm/cpu/armv7/start.o
 .rel.text.xyzModem_get_hdr
                0x3482a170       0x28 arch/arm/cpu/armv7/start.o
 .rel.text.xyzModem_stream_read
                0x3482a198        0x8 arch/arm/cpu/armv7/start.o
 .rel.text.xyzModem_stream_open
                0x3482a1a0       0x10 arch/arm/cpu/armv7/start.o
 .rel.rodata.boot_os
                0x3482a1b0       0x20 arch/arm/cpu/armv7/start.o
 .rel.rodata.op_table
                0x3482a1d0       0x68 arch/arm/cpu/armv7/start.o
 .rel.rodata.mtdids_default
                0x3482a238        0x8 arch/arm/cpu/armv7/start.o
 .rel.rodata.mtdparts_default
                0x3482a240        0x8 arch/arm/cpu/armv7/start.o
 .rel.rodata.uimage_comp
                0x3482a248       0x60 arch/arm/cpu/armv7/start.o
 .rel.rodata.uimage_os
                0x3482a2a8       0x78 arch/arm/cpu/armv7/start.o
 .rel.rodata.uimage_arch
                0x3482a320      0x158 arch/arm/cpu/armv7/start.o
 .rel.rodata.uimage_type
                0x3482a478      0x118 arch/arm/cpu/armv7/start.o
 .rel.rodata.CSWTCH.73
                0x3482a590       0x40 arch/arm/cpu/armv7/start.o
 .rel.u_boot_list_2_cmd_2_bdinfo
                0x3482a5d0       0x20 arch/arm/cpu/armv7/start.o
 .rel.u_boot_list_2_cmd_2_go
                0x3482a5f0       0x20 arch/arm/cpu/armv7/start.o
 .rel.u_boot_list_2_cmd_2_reset
                0x3482a610       0x20 arch/arm/cpu/armv7/start.o
 .rel.u_boot_list_2_cmd_2_iminfo
                0x3482a630       0x20 arch/arm/cpu/armv7/start.o
 .rel.u_boot_list_2_cmd_2_boot
                0x3482a650       0x20 arch/arm/cpu/armv7/start.o
 .rel.u_boot_list_2_cmd_2_bootd
                0x3482a670       0x20 arch/arm/cpu/armv7/start.o
 .rel.u_boot_list_2_cmd_2_bootm
                0x3482a690       0x20 arch/arm/cpu/armv7/start.o
 .rel.data.cmd_bootm_sub
                0x3482a6b0       0xc0 arch/arm/cpu/armv7/start.o
 .rel.u_boot_list_2_cmd_2_icache
                0x3482a770       0x20 arch/arm/cpu/armv7/start.o
 .rel.u_boot_list_2_cmd_2_dcache
                0x3482a790       0x20 arch/arm/cpu/armv7/start.o
 .rel.u_boot_list_2_cmd_2_coninfo
                0x3482a7b0       0x20 arch/arm/cpu/armv7/start.o
 .rel.u_boot_list_2_cmd_2_echo
                0x3482a7d0       0x20 arch/arm/cpu/armv7/start.o
 .rel.u_boot_list_2_cmd_2_exit
                0x3482a7f0       0x20 arch/arm/cpu/armv7/start.o
 .rel.u_boot_list_2_cmd_2_ext2ls
                0x3482a810       0x20 arch/arm/cpu/armv7/start.o
 .rel.u_boot_list_2_cmd_2_ext2load
                0x3482a830       0x20 arch/arm/cpu/armv7/start.o
 .rel.u_boot_list_2_cmd_2_fatinfo
                0x3482a850       0x20 arch/arm/cpu/armv7/start.o
 .rel.u_boot_list_2_cmd_2_fatls
                0x3482a870       0x20 arch/arm/cpu/armv7/start.o
 .rel.u_boot_list_2_cmd_2_fatload
                0x3482a890       0x20 arch/arm/cpu/armv7/start.o
 .rel.u_boot_list_2_cmd_2_question_mark
                0x3482a8b0       0x20 arch/arm/cpu/armv7/start.o
 .rel.u_boot_list_2_cmd_2_help
                0x3482a8d0       0x20 arch/arm/cpu/armv7/start.o
 .rel.u_boot_list_2_cmd_2_itest
                0x3482a8f0       0x20 arch/arm/cpu/armv7/start.o
 .rel.u_boot_list_2_cmd_2_loadb
                0x3482a910       0x20 arch/arm/cpu/armv7/start.o
 .rel.u_boot_list_2_cmd_2_loadx
                0x3482a930       0x20 arch/arm/cpu/armv7/start.o
 .rel.u_boot_list_2_cmd_2_loady
                0x3482a950       0x20 arch/arm/cpu/armv7/start.o
 .rel.u_boot_list_2_cmd_2_loads
                0x3482a970       0x20 arch/arm/cpu/armv7/start.o
 .rel.u_boot_list_2_cmd_2_base
                0x3482a990       0x20 arch/arm/cpu/armv7/start.o
 .rel.u_boot_list_2_cmd_2_mm
                0x3482a9b0       0x20 arch/arm/cpu/armv7/start.o
 .rel.u_boot_list_2_cmd_2_nm
                0x3482a9d0       0x20 arch/arm/cpu/armv7/start.o
 .rel.u_boot_list_2_cmd_2_cmp
                0x3482a9f0       0x20 arch/arm/cpu/armv7/start.o
 .rel.u_boot_list_2_cmd_2_loop
                0x3482aa10       0x20 arch/arm/cpu/armv7/start.o
 .rel.u_boot_list_2_cmd_2_cp
                0x3482aa30       0x20 arch/arm/cpu/armv7/start.o
 .rel.u_boot_list_2_cmd_2_crc32
                0x3482aa50       0x20 arch/arm/cpu/armv7/start.o
 .rel.u_boot_list_2_cmd_2_md
                0x3482aa70       0x20 arch/arm/cpu/armv7/start.o
 .rel.u_boot_list_2_cmd_2_mw
                0x3482aa90       0x20 arch/arm/cpu/armv7/start.o
 .rel.u_boot_list_2_cmd_2_mmcinfo
                0x3482aab0       0x20 arch/arm/cpu/armv7/start.o
 .rel.u_boot_list_2_cmd_2_mmc
                0x3482aad0       0x20 arch/arm/cpu/armv7/start.o
 .rel.u_boot_list_2_cmd_2_mtdparts
                0x3482aaf0       0x20 arch/arm/cpu/armv7/start.o
 .rel.u_boot_list_2_cmd_2_chpart
                0x3482ab10       0x20 arch/arm/cpu/armv7/start.o
 .rel.u_boot_list_2_cmd_2_ping
                0x3482ab30       0x20 arch/arm/cpu/armv7/start.o
 .rel.u_boot_list_2_cmd_2_bootp
                0x3482ab50       0x20 arch/arm/cpu/armv7/start.o
 .rel.u_boot_list_2_cmd_2_tftpboot
                0x3482ab70       0x20 arch/arm/cpu/armv7/start.o
 .rel.u_boot_list_2_cmd_2_setenv
                0x3482ab90       0x20 arch/arm/cpu/armv7/start.o
 .rel.u_boot_list_2_cmd_2_env
                0x3482abb0       0x20 arch/arm/cpu/armv7/start.o
 .rel.u_boot_list_2_cmd_2_editenv
                0x3482abd0       0x20 arch/arm/cpu/armv7/start.o
 .rel.u_boot_list_2_cmd_2_saveenv
                0x3482abf0       0x20 arch/arm/cpu/armv7/start.o
 .rel.data.cmd_env_sub
                0x3482ac10      0x120 arch/arm/cpu/armv7/start.o
 .rel.u_boot_list_2_cmd_2_printenv
                0x3482ad30       0x20 arch/arm/cpu/armv7/start.o
 .rel.u_boot_list_2_cmd_2_run
                0x3482ad50       0x20 arch/arm/cpu/armv7/start.o
 .rel.u_boot_list_2_cmd_2_reginfo
                0x3482ad70       0x20 arch/arm/cpu/armv7/start.o
 .rel.u_boot_list_2_cmd_2_source
                0x3482ad90       0x20 arch/arm/cpu/armv7/start.o
 .rel.u_boot_list_2_cmd_2_test
                0x3482adb0       0x20 arch/arm/cpu/armv7/start.o
 .rel.u_boot_list_2_cmd_2_true
                0x3482add0       0x18 arch/arm/cpu/armv7/start.o
 .rel.u_boot_list_2_cmd_2_false
                0x3482ade8       0x18 arch/arm/cpu/armv7/start.o
 .rel.u_boot_list_2_cmd_2_version
                0x3482ae00       0x20 arch/arm/cpu/armv7/start.o
 .rel.u_boot_list_2_env_clbk_2_console
                0x3482ae20       0x10 arch/arm/cpu/armv7/start.o
 .rel.data.av_  0x3482ae30      0x800 arch/arm/cpu/armv7/start.o
 .rel.u_boot_list_2_env_clbk_2_callbacks
                0x3482b630       0x10 arch/arm/cpu/armv7/start.o
 .rel.data.env_htab
                0x3482b640        0x8 arch/arm/cpu/armv7/start.o
 .rel.u_boot_list_2_env_clbk_2_flags
                0x3482b648       0x10 arch/arm/cpu/armv7/start.o
 .rel.data.env_name_spec
                0x3482b658        0x8 arch/arm/cpu/armv7/start.o
 .rel.data.hash_algo
                0x00000000        0x0 arch/arm/cpu/armv7/start.o
 .rel.data.reserved_list
                0x3482b660       0x58 arch/arm/cpu/armv7/start.o
 .rel.u_boot_list_2_cmd_2_showvar
                0x3482b6b8       0x20 arch/arm/cpu/armv7/start.o
 .rel.u_boot_list_2_env_clbk_2_loadaddr
                0x3482b6d8       0x10 arch/arm/cpu/armv7/start.o
 .rel.data.stdio_names
                0x3482b6e8       0x18 arch/arm/cpu/armv7/start.o
 .rel.text.get_dev
                0x3482b700        0x8 arch/arm/cpu/armv7/start.o
 .rel.text.get_device
                0x3482b708       0x10 arch/arm/cpu/armv7/start.o
 .rel.text.get_device_and_partition
                0x3482b718       0x70 arch/arm/cpu/armv7/start.o
 .rel.text.print_part
                0x00000000        0x0 arch/arm/cpu/armv7/start.o
 .rel.text.dev_print
                0x3482b788      0x110 arch/arm/cpu/armv7/start.o
 .rel.text.get_partition_info_extended
                0x3482b898       0x80 arch/arm/cpu/armv7/start.o
 .rel.text.test_block_type
                0x3482b918       0x10 arch/arm/cpu/armv7/start.o
 .rel.text.print_partition_extended
                0x00000000        0x0 arch/arm/cpu/armv7/start.o
 .rel.text.print_part_dos
                0x00000000        0x0 arch/arm/cpu/armv7/start.o
 .rel.rodata.block_drvr
                0x3482b928       0x10 arch/arm/cpu/armv7/start.o
 .rel.text.i2c_get_adapter
                0x3482b938       0x18 arch/arm/cpu/armv7/start.o
 .rel.text.i2c_init_bus
                0x3482b950       0x10 arch/arm/cpu/armv7/start.o
 .rel.text.i2c_set_bus_num
                0x3482b960       0x18 arch/arm/cpu/armv7/start.o
 .rel.text.soft_i2c_init
                0x3482b978        0x8 arch/arm/cpu/armv7/start.o
 .rel.u_boot_list_2_i2c_2_soft0
                0x3482b980       0x28 arch/arm/cpu/armv7/start.o
 .rel.text.input_stdio_register
                0x00000000        0x0 arch/arm/cpu/armv7/start.o
 .rel.text.input_init
                0x00000000        0x0 arch/arm/cpu/armv7/start.o
 .rel.text.input_send_keycodes
                0x00000000        0x0 arch/arm/cpu/armv7/start.o
 .rel.rodata.kbd_to_ansi364
                0x00000000        0x0 arch/arm/cpu/armv7/start.o
 .rel.text.s3c_hsmmc_initialize
                0x3482b9a8       0x38 arch/arm/cpu/armv7/start.o
 .rel.text.sdhci_change_clock
                0x3482b9e0        0x8 arch/arm/cpu/armv7/start.o
 .rel.text.s3c_hsmmc_send_command
                0x3482b9e8       0x30 arch/arm/cpu/armv7/start.o
 .rel.text.T.64
                0x3482ba18        0x8 arch/arm/cpu/armv7/start.o
 .rel.text.mmc_register
                0x3482ba20       0x20 arch/arm/cpu/armv7/start.o
 .rel.text.print_mmc_devices
                0x3482ba40       0x20 arch/arm/cpu/armv7/start.o
 .rel.text.find_mmc_device
                0x3482ba60       0x10 arch/arm/cpu/armv7/start.o
 .rel.text.mmc_bwrite
                0x3482ba70       0x10 arch/arm/cpu/armv7/start.o
 .rel.text.mmc_bread_primitive
                0x3482ba80        0x8 arch/arm/cpu/armv7/start.o
 .rel.text.mmc_startup
                0x3482ba88       0x70 arch/arm/cpu/armv7/start.o
 .rel.text.mmc_initialize
                0x3482baf8       0x20 arch/arm/cpu/armv7/start.o
 .rel.text.get_mtd_device
                0x00000000        0x0 arch/arm/cpu/armv7/start.o
 .rel.text.put_mtd_device
                0x00000000        0x0 arch/arm/cpu/armv7/start.o
 .rel.text.del_mtd_device
                0x00000000        0x0 arch/arm/cpu/armv7/start.o
 .rel.text.add_mtd_device
                0x00000000        0x0 arch/arm/cpu/armv7/start.o
 .rel.text.get_mtd_device_nm
                0x3482bb18        0x8 arch/arm/cpu/armv7/start.o
 .rel.text.mtd_erase_callback
                0x00000000        0x0 arch/arm/cpu/armv7/start.o
 .rel.text.del_mtd_partitions
                0x00000000        0x0 arch/arm/cpu/armv7/start.o
 .rel.text.add_mtd_partitions
                0x00000000        0x0 arch/arm/cpu/armv7/start.o
 .rel.text.dm9000_reset
                0x3482bb20        0x8 arch/arm/cpu/armv7/start.o
 .rel.text.dm9000_rx
                0x3482bb28       0x38 arch/arm/cpu/armv7/start.o
 .rel.text.dm9000_init
                0x3482bb60      0x108 arch/arm/cpu/armv7/start.o
 .rel.text.dm9000_send
                0x3482bc68       0x10 arch/arm/cpu/armv7/start.o
 .rel.text.dm9000_initialize
                0x3482bc78       0x30 arch/arm/cpu/armv7/start.o
 .rel.text.power_get_interface
                0x3482bca8        0x8 arch/arm/cpu/armv7/start.o
 .rel.text.pmic_get
                0x3482bcb0       0x10 arch/arm/cpu/armv7/start.o
 .rel.text.check_reg
                0x3482bcc0        0x8 arch/arm/cpu/armv7/start.o
 .rel.text.do_pmic
                0x3482bcc8       0xa0 arch/arm/cpu/armv7/start.o
 .rel.text.pmic_alloc
                0x3482bd68       0x18 arch/arm/cpu/armv7/start.o
 .rel.text.pmic_probe
                0x00000000        0x0 arch/arm/cpu/armv7/start.o
 .rel.text.pmic_reg_read
                0x3482bd80       0x10 arch/arm/cpu/armv7/start.o
 .rel.text.pmic_reg_write
                0x3482bd90       0x10 arch/arm/cpu/armv7/start.o
 .rel.rodata.C.60.4615
                0x3482bda0       0x18 arch/arm/cpu/armv7/start.o
 .rel.u_boot_list_2_cmd_2_pmic
                0x3482bdb8       0x20 arch/arm/cpu/armv7/start.o
 .rel.data.pmic_list
                0x3482bdd8       0x10 arch/arm/cpu/armv7/start.o
 .rel.text.pmic_init
                0x3482bde8       0x20 arch/arm/cpu/armv7/start.o
 .rel.text.serial_register
                0x3482be08        0x8 arch/arm/cpu/armv7/start.o
 .rel.text.serial_reinit_all
                0x00000000        0x0 arch/arm/cpu/armv7/start.o
 .rel.text.get_current
                0x3482be10       0x10 arch/arm/cpu/armv7/start.o
 .rel.text.on_baudrate
                0x3482be20       0x18 arch/arm/cpu/armv7/start.o
 .rel.text.serial_assign
                0x3482be38       0x10 arch/arm/cpu/armv7/start.o
 .rel.text.serial_stdio_init
                0x3482be48        0x8 arch/arm/cpu/armv7/start.o
 .rel.text.serial_err_check
                0x3482be50        0x8 arch/arm/cpu/armv7/start.o
 .rel.text.serial_getc_dev
                0x3482be58       0x10 arch/arm/cpu/armv7/start.o
 .rel.text.serial_tstc_dev
                0x3482be68       0x10 arch/arm/cpu/armv7/start.o
 .rel.text.default_serial_console
                0x3482be78       0x10 arch/arm/cpu/armv7/start.o
 .rel.text.s5p_serial_initialize
                0x3482be88       0x20 arch/arm/cpu/armv7/start.o
 .rel.text.serial_putc_dev
                0x3482bea8       0x10 arch/arm/cpu/armv7/start.o
 .rel.text.serial_setbrg_dev
                0x3482beb8       0x18 arch/arm/cpu/armv7/start.o
 .rel.text.serial_init_dev
                0x3482bed0        0x8 arch/arm/cpu/armv7/start.o
 .rel.u_boot_list_2_env_clbk_2_baudrate
                0x3482bed8       0x10 arch/arm/cpu/armv7/start.o
 .rel.data.s5p_serial1_device
                0x3482bee8       0x30 arch/arm/cpu/armv7/start.o
 .rel.data.s5p_serial0_device
                0x3482bf18       0x30 arch/arm/cpu/armv7/start.o
 .rel.data.s5p_serial2_device
                0x3482bf48       0x30 arch/arm/cpu/armv7/start.o
 .rel.data.s5p_serial3_device
                0x3482bf78       0x30 arch/arm/cpu/armv7/start.o
 .rel.text.usb_ep_autoconfig_reset
                0x00000000        0x0 arch/arm/cpu/armv7/start.o
 .rel.text.usb_ep_autoconfig
                0x00000000        0x0 arch/arm/cpu/armv7/start.o
 .rel.text.set_udc_gadget_private_data
                0x00000000        0x0 arch/arm/cpu/armv7/start.o
 .rel.text.s3c_udc_ep_set_stall
                0x00000000        0x0 arch/arm/cpu/armv7/start.o
 .rel.text.s3c_udc_ep_clear_stall
                0x00000000        0x0 arch/arm/cpu/armv7/start.o
 .rel.text.s3c_udc_ep_activate
                0x00000000        0x0 arch/arm/cpu/armv7/start.o
 .rel.text.set_max_pktsize
                0x00000000        0x0 arch/arm/cpu/armv7/start.o
 .rel.text.otg_phy_off
                0x00000000        0x0 arch/arm/cpu/armv7/start.o
 .rel.text.reconfig_usbd
                0x00000000        0x0 arch/arm/cpu/armv7/start.o
 .rel.text.s3c_dequeue
                0x00000000        0x0 arch/arm/cpu/armv7/start.o
 .rel.text.s3c_ep_enable
                0x00000000        0x0 arch/arm/cpu/armv7/start.o
 .rel.text.setdma_rx
                0x00000000        0x0 arch/arm/cpu/armv7/start.o
 .rel.text.s3c_udc_pre_setup
                0x00000000        0x0 arch/arm/cpu/armv7/start.o
 .rel.text.complete_rx
                0x00000000        0x0 arch/arm/cpu/armv7/start.o
 .rel.text.udc_set_address
                0x00000000        0x0 arch/arm/cpu/armv7/start.o
 .rel.text.usb_gadget_unregister_driver
                0x00000000        0x0 arch/arm/cpu/armv7/start.o
 .rel.text.setdma_tx
                0x00000000        0x0 arch/arm/cpu/armv7/start.o
 .rel.text.s3c_udc_probe
                0x00000000        0x0 arch/arm/cpu/armv7/start.o
 .rel.text.s3c_udc_get_status
                0x00000000        0x0 arch/arm/cpu/armv7/start.o
 .rel.text.s3c_ep0_setup
                0x00000000        0x0 arch/arm/cpu/armv7/start.o
 .rel.text.usb_gadget_handle_interrupts
                0x00000000        0x0 arch/arm/cpu/armv7/start.o
 .rel.text.otg_phy_init
                0x00000000        0x0 arch/arm/cpu/armv7/start.o
 .rel.text.usb_gadget_register_driver
                0x00000000        0x0 arch/arm/cpu/armv7/start.o
 .rel.text.s3c_queue
                0x00000000        0x0 arch/arm/cpu/armv7/start.o
 .rel.text.s3c_free_request
                0x00000000        0x0 arch/arm/cpu/armv7/start.o
 .rel.data.memory
                0x00000000        0x0 arch/arm/cpu/armv7/start.o
 .rel.data.s3c_ep_ops
                0x00000000        0x0 arch/arm/cpu/armv7/start.o
 .rel.text.wdt_stop
                0x00000000        0x0 arch/arm/cpu/armv7/start.o
 .rel.text.wdt_start
                0x00000000        0x0 arch/arm/cpu/armv7/start.o
 .rel.text.get_fs
                0x3482bfa8        0x8 arch/arm/cpu/armv7/start.o
 .rel.text.ext4fs_read_file
                0x3482bfb0        0x8 arch/arm/cpu/armv7/start.o
 .rel.text.ext4fs_read
                0x3482bfb8       0x10 arch/arm/cpu/armv7/start.o
 .rel.text.ext4_read_file
                0x3482bfc8       0x10 arch/arm/cpu/armv7/start.o
 .rel.text.ext4fs_free_node
                0x3482bfd8        0x8 arch/arm/cpu/armv7/start.o
 .rel.text.ext4fs_ls
                0x3482bfe0       0x10 arch/arm/cpu/armv7/start.o
 .rel.text.ext4fs_close
                0x3482bff0       0x58 arch/arm/cpu/armv7/start.o
 .rel.text.read_allocated_block
                0x3482c048       0xb8 arch/arm/cpu/armv7/start.o
 .rel.text.ext4fs_mount
                0x3482c100       0x10 arch/arm/cpu/armv7/start.o
 .rel.text.ext4fs_iterate_dir
                0x3482c110       0x28 arch/arm/cpu/armv7/start.o
 .rel.text.ext4fs_find_file1
                0x3482c138       0x10 arch/arm/cpu/armv7/start.o
 .rel.text.ext4fs_find_file
                0x3482c148        0x8 arch/arm/cpu/armv7/start.o
 .rel.text.ext4fs_open
                0x3482c150       0x10 arch/arm/cpu/armv7/start.o
 .rel.text.ext4fs_set_blk_dev
                0x3482c160       0x18 arch/arm/cpu/armv7/start.o
 .rel.text.ext4fs_devread
                0x3482c178       0x40 arch/arm/cpu/armv7/start.o
 .rel.text.downcase
                0x3482c1b8        0x8 arch/arm/cpu/armv7/start.o
 .rel.text.disk_read
                0x3482c1c0       0x10 arch/arm/cpu/armv7/start.o
 .rel.text.read_bootsectandvi
                0x3482c1d0       0x20 arch/arm/cpu/armv7/start.o
 .rel.text.file_fat_detectfs
                0x3482c1f0       0xb0 arch/arm/cpu/armv7/start.o
 .rel.text.get_cluster
                0x3482c2a0        0x8 arch/arm/cpu/armv7/start.o
 .rel.text.get_vfatname
                0x3482c2a8       0x10 arch/arm/cpu/armv7/start.o
 .rel.text.do_fat_read_at
                0x3482c2b8       0x60 arch/arm/cpu/armv7/start.o
 .rel.text.file_fat_read_at
                0x3482c318        0x8 arch/arm/cpu/armv7/start.o
 .rel.text.fat_read_file
                0x3482c320        0x8 arch/arm/cpu/armv7/start.o
 .rel.text.fat_set_blk_dev
                0x3482c328       0x28 arch/arm/cpu/armv7/start.o
 .rel.text.fat_register_device
                0x00000000        0x0 arch/arm/cpu/armv7/start.o
 .rel.text.file_getfsname
                0x00000000        0x0 arch/arm/cpu/armv7/start.o
 .rel.text.file_read
                0x00000000        0x0 arch/arm/cpu/armv7/start.o
 .rel.text.file_ls
                0x00000000        0x0 arch/arm/cpu/armv7/start.o
 .rel.text.file_detectfs
                0x00000000        0x0 arch/arm/cpu/armv7/start.o
 .rel.text.file_cd
                0x00000000        0x0 arch/arm/cpu/armv7/start.o
 .rel.rodata.filesystems
                0x00000000        0x0 arch/arm/cpu/armv7/start.o
 .rel.text.fs_get_info
                0x3482c350        0x8 arch/arm/cpu/armv7/start.o
 .rel.text.fs_close
                0x3482c358        0x8 arch/arm/cpu/armv7/start.o
 .rel.text.fs_ls
                0x3482c360        0x8 arch/arm/cpu/armv7/start.o
 .rel.text.fs_write
                0x00000000        0x0 arch/arm/cpu/armv7/start.o
 .rel.text.fs_probe_unsupported
                0x3482c368        0x8 arch/arm/cpu/armv7/start.o
 .rel.text.fs_read
                0x3482c370       0x10 arch/arm/cpu/armv7/start.o
 .rel.text.fs_set_blk_dev
                0x3482c380       0x28 arch/arm/cpu/armv7/start.o
 .rel.text.do_save
                0x00000000        0x0 arch/arm/cpu/armv7/start.o
 .rel.text.do_ls
                0x3482c3a8        0x8 arch/arm/cpu/armv7/start.o
 .rel.text.do_load
                0x3482c3b0       0x48 arch/arm/cpu/armv7/start.o
 .rel.data.fstypes
                0x3482c3f8       0x68 arch/arm/cpu/armv7/start.o
 .rel.text.cyg_crc16
                0x3482c460        0x8 arch/arm/cpu/armv7/start.o
 .rel.text.crc32_no_comp
                0x3482c468        0x8 arch/arm/cpu/armv7/start.o
 .rel.text.crc7
                0x00000000        0x0 arch/arm/cpu/armv7/start.o
 .rel.text.print_size
                0x3482c470       0x28 arch/arm/cpu/armv7/start.o
 .rel.text.display_options
                0x00000000        0x0 arch/arm/cpu/armv7/start.o
 .rel.text.print_buffer
                0x3482c498       0x28 arch/arm/cpu/armv7/start.o
 .rel.text.zunzip
                0x3482c4c0       0x28 arch/arm/cpu/armv7/start.o
 .rel.text.gunzip
                0x3482c4e8       0x10 arch/arm/cpu/armv7/start.o
 .rel.text.hang
                0x3482c4f8        0x8 arch/arm/cpu/armv7/start.o
 .rel.text.hdestroy_r
                0x3482c500        0x8 arch/arm/cpu/armv7/start.o
 .rel.text.hcreate_r
                0x3482c508        0x8 arch/arm/cpu/armv7/start.o
 .rel.text.match_string
                0x3482c510        0x8 arch/arm/cpu/armv7/start.o
 .rel.text.hexport_r
                0x3482c518       0x18 arch/arm/cpu/armv7/start.o
 .rel.text.hsearch_r
                0x3482c530        0x8 arch/arm/cpu/armv7/start.o
 .rel.text.hdelete_r
                0x3482c538        0x8 arch/arm/cpu/armv7/start.o
 .rel.text.himport_r
                0x3482c540       0x20 arch/arm/cpu/armv7/start.o
 .rel.text.hmatch_r
                0x00000000        0x0 arch/arm/cpu/armv7/start.o
 .rel.text.skip_spaces
                0x3482c560        0x8 arch/arm/cpu/armv7/start.o
 .rel.text.strim
                0x3482c568        0x8 arch/arm/cpu/armv7/start.o
 .rel.text.lmb_alloc_base
                0x3482c570        0x8 arch/arm/cpu/armv7/start.o
 .rel.text.strncasecmp
                0x00000000        0x0 arch/arm/cpu/armv7/start.o
 .rel.text.strtok
                0x00000000        0x0 arch/arm/cpu/armv7/start.o
 .rel.text.strmhz
                0x3482c578       0x10 arch/arm/cpu/armv7/start.o
 .rel.text.simple_strtoul
                0x3482c588        0x8 arch/arm/cpu/armv7/start.o
 .rel.text.simple_strtoull
                0x3482c590        0x8 arch/arm/cpu/armv7/start.o
 .rel.text.simple_itoa
                0x3482c598        0x8 arch/arm/cpu/armv7/start.o
 .rel.text.__assert_fail
                0x00000000        0x0 arch/arm/cpu/armv7/start.o
 .rel.text.string
                0x3482c5a0        0x8 arch/arm/cpu/armv7/start.o
 .rel.text.number
                0x3482c5a8        0x8 arch/arm/cpu/armv7/start.o
 .rel.text.vsprintf
                0x3482c5b0       0x10 arch/arm/cpu/armv7/start.o
 .rel.text.print_grouped_ull
                0x00000000        0x0 arch/arm/cpu/armv7/start.o
 .rel.text.inflate_fast
                0x3482c5c0       0x18 arch/arm/cpu/armv7/start.o
 .rel.text.inflate_table
                0x3482c5d8       0x20 arch/arm/cpu/armv7/start.o
 .rel.text.inflateInit2_
                0x3482c5f8       0x10 arch/arm/cpu/armv7/start.o
 .rel.text.inflate
                0x3482c608      0x188 arch/arm/cpu/armv7/start.o
 .rel.rodata.z_errmsg
                0x00000000        0x0 arch/arm/cpu/armv7/start.o
 .rel.text.ArpInit
                0x3482c790       0x30 arch/arm/cpu/armv7/start.o
 .rel.text.ArpReceive
                0x3482c7c0       0x40 arch/arm/cpu/armv7/start.o
 .rel.text.arp_raw_request
                0x3482c800       0x18 arch/arm/cpu/armv7/start.o
 .rel.text.ArpRequest
                0x3482c818       0x38 arch/arm/cpu/armv7/start.o
 .rel.text.ArpTimeoutCheck
                0x3482c850       0x20 arch/arm/cpu/armv7/start.o
 .rel.text.truncate_sz
                0x3482c870        0x8 arch/arm/cpu/armv7/start.o
 .rel.text.BootpRequest
                0x3482c878       0x48 arch/arm/cpu/armv7/start.o
 .rel.text.BootpHandler
                0x3482c8c0       0x88 arch/arm/cpu/armv7/start.o
 .rel.text.BootpTimeout
                0x3482c948       0x18 arch/arm/cpu/armv7/start.o
 .rel.text.eth_get_dev_by_index
                0x3482c960        0x8 arch/arm/cpu/armv7/start.o
 .rel.text.eth_get_dev_index
                0x3482c968        0x8 arch/arm/cpu/armv7/start.o
 .rel.text.eth_halt
                0x3482c970        0x8 arch/arm/cpu/armv7/start.o
 .rel.text.eth_send
                0x3482c978        0x8 arch/arm/cpu/armv7/start.o
 .rel.text.eth_rx
                0x3482c980        0x8 arch/arm/cpu/armv7/start.o
 .rel.text.eth_get_name
                0x3482c988       0x10 arch/arm/cpu/armv7/start.o
 .rel.text.eth_current_changed
                0x3482c998       0x10 arch/arm/cpu/armv7/start.o
 .rel.text.eth_set_current
                0x3482c9a8       0x20 arch/arm/cpu/armv7/start.o
 .rel.text.eth_try_another
                0x3482c9c8       0x28 arch/arm/cpu/armv7/start.o
 .rel.text.eth_unregister
                0x00000000        0x0 arch/arm/cpu/armv7/start.o
 .rel.text.eth_register
                0x3482c9f0       0x18 arch/arm/cpu/armv7/start.o
 .rel.text.eth_setenv_enetaddr
                0x3482ca08        0x8 arch/arm/cpu/armv7/start.o
 .rel.text.eth_get_dev_by_name
                0x00000000        0x0 arch/arm/cpu/armv7/start.o
 .rel.text.eth_getenv_enetaddr_by_index
                0x3482ca10       0x10 arch/arm/cpu/armv7/start.o
 .rel.text.eth_init
                0x3482ca20       0x20 arch/arm/cpu/armv7/start.o
 .rel.text.eth_write_hwaddr
                0x3482ca40       0x48 arch/arm/cpu/armv7/start.o
 .rel.text.eth_initialize
                0x3482ca88       0x68 arch/arm/cpu/armv7/start.o
 .rel.text.startAgainTimeout
                0x3482caf0        0x8 arch/arm/cpu/armv7/start.o
 .rel.text.net_get_udp_handler
                0x00000000        0x0 arch/arm/cpu/armv7/start.o
 .rel.text.net_set_udp_handler
                0x3482caf8       0x10 arch/arm/cpu/armv7/start.o
 .rel.text.net_get_arp_handler
                0x3482cb08        0x8 arch/arm/cpu/armv7/start.o
 .rel.text.net_set_arp_handler
                0x3482cb10       0x10 arch/arm/cpu/armv7/start.o
 .rel.text.on_bootfile
                0x3482cb20        0x8 arch/arm/cpu/armv7/start.o
 .rel.text.NetEthHdrSize
                0x3482cb28        0x8 arch/arm/cpu/armv7/start.o
 .rel.text.VLAN_to_string
                0x00000000        0x0 arch/arm/cpu/armv7/start.o
 .rel.text.ip_to_string
                0x3482cb30        0x8 arch/arm/cpu/armv7/start.o
 .rel.text.net_set_ip_header
                0x3482cb38        0x8 arch/arm/cpu/armv7/start.o
 .rel.text.net_set_udp_header
                0x3482cb40        0x8 arch/arm/cpu/armv7/start.o
 .rel.text.net_update_ether
                0x3482cb48        0x8 arch/arm/cpu/armv7/start.o
 .rel.text.NetSetEther
                0x3482cb50       0x10 arch/arm/cpu/armv7/start.o
 .rel.text.NetReceive
                0x3482cb60       0x38 arch/arm/cpu/armv7/start.o
 .rel.text.NetSetTimeout
                0x3482cb98       0x18 arch/arm/cpu/armv7/start.o
 .rel.text.NetSendUDPPacket
                0x3482cbb0       0x40 arch/arm/cpu/armv7/start.o
 .rel.text.NetStartAgain
                0x3482cbf0       0x50 arch/arm/cpu/armv7/start.o
 .rel.text.NetInitLoop
                0x3482cc40       0x78 arch/arm/cpu/armv7/start.o
 .rel.text.net_init
                0x3482ccb8       0x20 arch/arm/cpu/armv7/start.o
 .rel.text.NetLoop
                0x3482ccd8      0x148 arch/arm/cpu/armv7/start.o
 .rel.text.net_auto_load
                0x3482ce20       0x10 arch/arm/cpu/armv7/start.o
 .rel.text.ping_receive
                0x3482ce30       0x18 arch/arm/cpu/armv7/start.o
 .rel.text.ping_start
                0x3482ce48       0x58 arch/arm/cpu/armv7/start.o
 .rel.text.ping_timeout
                0x3482cea0        0x8 arch/arm/cpu/armv7/start.o
 .rel.text.TftpSend
                0x3482cea8       0xb8 arch/arm/cpu/armv7/start.o
 .rel.text.TftpStart
                0x3482cf60      0x130 arch/arm/cpu/armv7/start.o
 .rel.text.TftpHandler
                0x3482d090       0xc0 arch/arm/cpu/armv7/start.o
 .rel.text.TftpTimeout
                0x3482d150       0x40 arch/arm/cpu/armv7/start.o
 .rel.u_boot_list_2_env_clbk_2_bootfile
                0x3482d190       0x10 arch/arm/cpu/armv7/start.o
 .rel.text.board_init
                0x3482d1a0        0x8 arch/arm/cpu/armv7/start.o
 .rel.text.checkboard
                0x3482d1a8        0x8 arch/arm/cpu/armv7/start.o
 .rel.text.s5pc1xx_phy_control
                0x00000000        0x0 arch/arm/cpu/armv7/start.o
 .rel.data.s5pc110_otg_data
                0x00000000        0x0 arch/arm/cpu/armv7/start.o
 .rel.text.raise
                0x3482d1b0        0x8 arch/arm/cpu/armv7/start.o

.rel_dyn_end    0x3482d1b8        0x0
 *(.__rel_dyn_end)
 .__rel_dyn_end
                0x3482d1b8        0x0 arch/arm/lib/libarm.o
                0x3482d1b8                _end = .
                0x3482e000                . = ALIGN (0x1000)

.mmutable
 *(.mmutable)

.bss_start      0x34828468        0x0
 *(.__bss_start)
 .__bss_start   0x34828468        0x0 arch/arm/lib/libarm.o
                0x34828468                __bss_start
                0x34828468                __bss_base = .

.bss            0x34828468    0x35010
 *(.bss*)
 .bss.monitor_flash_len
                0x34828468        0x4 arch/arm/lib/libarm.o
                0x34828468                monitor_flash_len
 .bss.params    0x3482846c        0x4 arch/arm/lib/libarm.o
 .bss.images    0x34828470      0x130 common/libcommon.o
                0x34828470                images
 .bss.send_parms
                0x348285a0       0x14 common/libcommon.o
 .bss.os_data_init
                0x348285b4        0x4 common/libcommon.o
 .bss.os_data_addr_saved
                0x348285b8        0x4 common/libcommon.o
 .bss.his_pad_char
                0x348285bc        0x1 common/libcommon.o
 *fill*         0x348285bd        0x3 00
 .bss.a_b       0x348285c0       0x18 common/libcommon.o
 .bss.os_data_char
                0x348285d8        0x4 common/libcommon.o
 .bss.os_data_state
                0x348285dc        0x4 common/libcommon.o
 .bss.k_data_escape
                0x348285e0        0x4 common/libcommon.o
 .bss.os_data_state_saved
                0x348285e4        0x4 common/libcommon.o
 .bss.os_data_addr
                0x348285e8        0x4 common/libcommon.o
 .bss.send_ptr  0x348285ec        0x4 common/libcommon.o
 .bss.bin_start_address
                0x348285f0        0x4 common/libcommon.o
 .bss.his_quote
                0x348285f4        0x1 common/libcommon.o
 *fill*         0x348285f5        0x3 00
 .bss.his_pad_count
                0x348285f8        0x4 common/libcommon.o
 .bss.his_eol   0x348285fc        0x1 common/libcommon.o
 *fill*         0x348285fd        0x3 00
 .bss.k_data_escape_saved
                0x34828600        0x4 common/libcommon.o
 .bss.dp_last_addr
                0x34828604        0x4 common/libcommon.o
 .bss.base_address
                0x34828608        0x4 common/libcommon.o
 .bss.mm_last_size
                0x3482860c        0x4 common/libcommon.o
 .bss.mm_last_addr
                0x34828610        0x4 common/libcommon.o
 .bss.dp_last_size
                0x34828614        0x4 common/libcommon.o
 .bss.initialized.5963
                0x34828618        0x4 common/libcommon.o
 .bss.last_ids  0x3482861c       0x80 common/libcommon.o
 .bss.current_mtd_dev
                0x3482869c        0x4 common/libcommon.o
                0x3482869c                current_mtd_dev
 .bss.last_partition
                0x348286a0       0x10 common/libcommon.o
 .bss.last_parts
                0x348286b0      0x200 common/libcommon.o
 .bss.current_mtd_partnum
                0x348288b0        0x1 common/libcommon.o
                0x348288b0                current_mtd_partnum
 *fill*         0x348288b1        0x3 00
 .bss.mtdids    0x348288b4        0x8 common/libcommon.o
 .bss.devices   0x348288bc        0x8 common/libcommon.o
 .bss.ctrlc_was_pressed
                0x348288c4        0x4 common/libcommon.o
 .bss.ctrlc_disabled
                0x348288c8        0x4 common/libcommon.o
 .bss.mem_malloc_brk
                0x348288cc        0x4 common/libcommon.o
                0x348288cc                mem_malloc_brk
 .bss.max_total_mem
                0x348288d0        0x4 common/libcommon.o
 .bss.max_sbrked_mem
                0x348288d4        0x4 common/libcommon.o
 .bss.current_mallinfo
                0x348288d8       0x28 common/libcommon.o
 .bss.mem_malloc_end
                0x34828900        0x4 common/libcommon.o
                0x34828900                mem_malloc_end
 .bss.top_pad   0x34828904        0x4 common/libcommon.o
 .bss.mem_malloc_start
                0x34828908        0x4 common/libcommon.o
                0x34828908                mem_malloc_start
 .bss.buf.5033  0x3482890c       0x28 common/libcommon.o
 .bss.flag_repeat
                0x34828934        0x4 common/libcommon.o
 .bss.ifs       0x34828938        0x4 common/libcommon.o
 .bss.the_command.4340
                0x3482893c      0x100 common/libcommon.o
 .bss.last_return_code
                0x34828a3c        0x4 common/libcommon.o
 .bss.map       0x34828a40      0x100 common/libcommon.o
 .bss.do_repeat
                0x34828b40        0x4 common/libcommon.o
 .bss.top_vars  0x34828b44        0x4 common/libcommon.o
 .bss.hist_list
                0x34828b48       0x50 common/libcommon.o
 .bss.hist_lines
                0x34828b98     0x1414 common/libcommon.o
 .bss.hist_max  0x34829fac        0x4 common/libcommon.o
 .bss.hist_add_idx
                0x34829fb0        0x4 common/libcommon.o
 .bss.initted.5384
                0x34829fb4        0x4 common/libcommon.o
 .bss.hist_num  0x34829fb8        0x4 common/libcommon.o
 .bss.console_buffer
                0x34829fbc      0x104 common/libcommon.o
                0x34829fbc                console_buffer
 .bss.devs      0x3482a0c0       0x3c common/libcommon.o
 .bss.stdio_devices
                0x3482a0fc        0xc common/libcommon.o
                0x3482a0fc                stdio_devices
 .bss.xyz       0x3482a108      0x434 common/libcommon.o
 .bss.mmc_channel
                0x3482a53c      0x460 drivers/mmc/libmmc.o
                0x3482a53c                mmc_channel
 *fill*         0x3482a99c        0x4 00
 .bss.mmc_host  0x3482a9a0       0xe0 drivers/mmc/libmmc.o
                0x3482a9a0                mmc_host
 .bss.mmc_devices
                0x3482aa80        0x8 drivers/mmc/libmmc.o
 .bss.mtd_table
                0x3482aa88       0x80 drivers/mtd/libmtd.o
                0x3482aa88                mtd_table
 .bss.dm9000_info
                0x3482ab08       0xe8 drivers/net/libnet.o
 .bss.serial_devices
                0x3482abf0        0x4 drivers/serial/libserial.o
 .bss.serial_current
                0x3482abf4        0x4 drivers/serial/libserial.o
 .bss.ext_fs    0x3482abf8       0x48 fs/ext4/libext4fs.o
                0x3482abf8                ext_fs
 .bss.ext4fs_indir3_block
                0x3482ac40        0x4 fs/ext4/libext4fs.o
                0x3482ac40                ext4fs_indir3_block
 .bss.ext4fs_root
                0x3482ac44        0x4 fs/ext4/libext4fs.o
                0x3482ac44                ext4fs_root
 .bss.ext4fs_indir3_size
                0x3482ac48        0x4 fs/ext4/libext4fs.o
                0x3482ac48                ext4fs_indir3_size
 .bss.ext4fs_indir1_block
                0x3482ac4c        0x4 fs/ext4/libext4fs.o
                0x3482ac4c                ext4fs_indir1_block
 .bss.ext4fs_indir2_size
                0x3482ac50        0x4 fs/ext4/libext4fs.o
                0x3482ac50                ext4fs_indir2_size
 .bss.ext4fs_indir2_block
                0x3482ac54        0x4 fs/ext4/libext4fs.o
                0x3482ac54                ext4fs_indir2_block
 .bss.ext4fs_indir1_size
                0x3482ac58        0x4 fs/ext4/libext4fs.o
                0x3482ac58                ext4fs_indir1_size
 .bss.symlinknest
                0x3482ac5c        0x4 fs/ext4/libext4fs.o
 .bss.ext4fs_file
                0x3482ac60        0x4 fs/ext4/libext4fs.o
                0x3482ac60                ext4fs_file
 .bss.part_info
                0x3482ac64        0x4 fs/ext4/libext4fs.o
 .bss.ext4fs_block_dev_desc
                0x3482ac68        0x4 fs/ext4/libext4fs.o
 .bss.part_offset
                0x3482ac6c        0x4 fs/ext4/libext4fs.o
                0x3482ac6c                part_offset
 *fill*         0x3482ac70       0x10 00
 .bss.do_fat_read_at_block
                0x3482ac80    0x10000 fs/fat/libfat.o
                0x3482ac80                do_fat_read_at_block
 .bss.get_dentfromdir_block
                0x3483ac80    0x10000 fs/fat/libfat.o
                0x3483ac80                get_dentfromdir_block
 .bss.cur_part_info
                0x3484ac80       0x50 fs/fat/libfat.o
 *fill*         0x3484acd0       0x30 00
 .bss.get_contents_vfatname_block
                0x3484ad00    0x10000 fs/fat/libfat.o
                0x3484ad00                get_contents_vfatname_block
 .bss.cur_dev   0x3485ad00        0x4 fs/fat/libfat.o
 .bss.fs_partition
                0x3485ad04       0x50 fs/libfs.o
 .bss.fs_type   0x3485ad54        0x4 fs/libfs.o
 .bss.fs_dev_desc
                0x3485ad58        0x4 fs/libfs.o
 .bss.errno     0x3485ad5c        0x4 lib/libgeneric.o
                0x3485ad5c                errno
 .bss.local.4850
                0x3485ad60       0x18 lib/libgeneric.o
 .bss.NetArpWaitPacketIP
                0x3485ad78        0x4 net/libnet.o
                0x3485ad78                NetArpWaitPacketIP
 .bss.NetArpWaitTimerStart
                0x3485ad7c        0x4 net/libnet.o
                0x3485ad7c                NetArpWaitTimerStart
 .bss.NetArpWaitReplyIP
                0x3485ad80        0x4 net/libnet.o
 .bss.NetArpWaitTxPacketSize
                0x3485ad84        0x4 net/libnet.o
                0x3485ad84                NetArpWaitTxPacketSize
 .bss.NetArpWaitTry
                0x3485ad88        0x4 net/libnet.o
                0x3485ad88                NetArpWaitTry
 .bss.NetArpTxPacket
                0x3485ad8c        0x4 net/libnet.o
 .bss.NetArpPacketBuf
                0x3485ad90      0x640 net/libnet.o
 .bss.NetArpWaitPacketMAC
                0x3485b3d0        0x4 net/libnet.o
                0x3485b3d0                NetArpWaitPacketMAC
 .bss.BootpTry  0x3485b3d4        0x4 net/libnet.o
                0x3485b3d4                BootpTry
 .bss.BootpID   0x3485b3d8        0x4 net/libnet.o
                0x3485b3d8                BootpID
 .bss.first_failed.5038
                0x3485b3dc        0x4 net/libnet.o
 .bss.index.4891
                0x3485b3e0        0x4 net/libnet.o
 .bss.env_changed_id.5059
                0x3485b3e4        0x4 net/libnet.o
 .bss.act.5058  0x3485b3e8        0x4 net/libnet.o
 .bss.eth_current
                0x3485b3ec        0x4 net/libnet.o
                0x3485b3ec                eth_current
 .bss.eth_devices
                0x3485b3f0        0x4 net/libnet.o
 .bss.NetOurEther
                0x3485b3f4        0x8 net/libnet.o
                0x3485b3f4                NetOurEther
 .bss.NetServerIP
                0x3485b3fc        0x4 net/libnet.o
                0x3485b3fc                NetServerIP
 .bss.NetRestarted
                0x3485b400        0x4 net/libnet.o
 .bss.net_state
                0x3485b404        0x4 net/libnet.o
                0x3485b404                net_state
 .bss.NetRxPackets
                0x3485b408       0x10 net/libnet.o
                0x3485b408                NetRxPackets
 .bss.NetBootFileSize
                0x3485b418        0x2 net/libnet.o
                0x3485b418                NetBootFileSize
 *fill*         0x3485b41a        0x2 00
 .bss.NetEtherNullAddr
                0x3485b41c        0x8 net/libnet.o
                0x3485b41c                NetEtherNullAddr
 .bss.env_changed_id.4300
                0x3485b424        0x4 net/libnet.o
 .bss.NetRxPacket
                0x3485b428        0x4 net/libnet.o
                0x3485b428                NetRxPacket
 .bss.udp_packet_handler
                0x3485b42c        0x4 net/libnet.o
 .bss.NetDevExists
                0x3485b430        0x4 net/libnet.o
 .bss.timeStart
                0x3485b434        0x4 net/libnet.o
 .bss.timeHandler
                0x3485b438        0x4 net/libnet.o
 .bss.NetTryCount
                0x3485b43c        0x4 net/libnet.o
 .bss.NetOurDNSIP
                0x3485b440        0x4 net/libnet.o
                0x3485b440                NetOurDNSIP
 .bss.NetOurSubnetMask
                0x3485b444        0x4 net/libnet.o
                0x3485b444                NetOurSubnetMask
 .bss.NetTxPacket
                0x3485b448        0x4 net/libnet.o
                0x3485b448                NetTxPacket
 .bss.NetBootFileXferSize
                0x3485b44c        0x4 net/libnet.o
                0x3485b44c                NetBootFileXferSize
 .bss.NetOurIP  0x3485b450        0x4 net/libnet.o
                0x3485b450                NetOurIP
 .bss.NetOurNISDomain
                0x3485b454       0x20 net/libnet.o
                0x3485b454                NetOurNISDomain
 .bss.NetIPID   0x3485b474        0x4 net/libnet.o
                0x3485b474                NetIPID
 .bss.NetOurGatewayIP
                0x3485b478        0x4 net/libnet.o
                0x3485b478                NetOurGatewayIP
 .bss.arp_packet_handler
                0x3485b47c        0x4 net/libnet.o
 .bss.NetOurHostName
                0x3485b480       0x20 net/libnet.o
                0x3485b480                NetOurHostName
 .bss.NetRestartWrap
                0x3485b4a0        0x4 net/libnet.o
                0x3485b4a0                NetRestartWrap
 .bss.NetRxPacketLen
                0x3485b4a4        0x4 net/libnet.o
                0x3485b4a4                NetRxPacketLen
 .bss.BootFile  0x3485b4a8       0x80 net/libnet.o
                0x3485b4a8                BootFile
 .bss.timeDelta
                0x3485b528        0x4 net/libnet.o
 .bss.NetServerEther
                0x3485b52c        0x8 net/libnet.o
                0x3485b52c                NetServerEther
 .bss.PktBuf    0x3485b534     0x1e40 net/libnet.o
 .bss.NetOurRootPath
                0x3485d374       0x40 net/libnet.o
                0x3485d374                NetOurRootPath
 .bss.NetPingIP
                0x3485d3b4        0x4 net/libnet.o
                0x3485d3b4                NetPingIP
 .bss.PingSeqNo
                0x3485d3b8        0x2 net/libnet.o
 *fill*         0x3485d3ba        0x2 00
 .bss.default_filename
                0x3485d3bc       0x10 net/libnet.o
 .bss.TftpLastBlock
                0x3485d3cc        0x4 net/libnet.o
 .bss.time_start
                0x3485d3d0        0x4 net/libnet.o
 .bss.TftpBlock
                0x3485d3d4        0x4 net/libnet.o
 .bss.TftpOurPort
                0x3485d3d8        0x4 net/libnet.o
 .bss.TftpBlockWrap
                0x3485d3dc        0x4 net/libnet.o
 .bss.TftpRemoteIP
                0x3485d3e0        0x4 net/libnet.o
 .bss.TftpState
                0x3485d3e4        0x4 net/libnet.o
 .bss.TftpRemotePort
                0x3485d3e8        0x4 net/libnet.o
 .bss.tftp_filename
                0x3485d3ec       0x80 net/libnet.o
 .bss.TftpTimeoutCount
                0x3485d46c        0x4 net/libnet.o
 .bss.TftpBlockWrapOffset
                0x3485d470        0x4 net/libnet.o
 .bss.s5pc110_gpio
                0x3485d474        0x4 board/samsung/goni/libgoni.o
                0x3485d478                . = ALIGN (0x4)
                0x3485d478                __bss_limit = .

.dynbss         0x3485d478        0x0
 .dynbss        0x00000000        0x0 arch/arm/cpu/armv7/start.o

.bss_end        0x3485d478        0x0
 *(.__bss_end)
 .__bss_end     0x3485d478        0x0 arch/arm/lib/libarm.o
                0x3485d478                __bss_end

/DISCARD/
 *(.dynsym)
 *(.dynstr*)
 *(.dynamic*)
 *(.plt*)
 *(.interp*)
 *(.gnu*)
 *(.ARM.exidx*)
 *(.gnu.linkonce.armexidx.*)
Address of section .text set to 0x34800000
LOAD arch/arm/cpu/armv7/start.o
START GROUP
LOAD api/libapi.o
LOAD arch/arm/cpu/armv7/libarmv7.o
LOAD arch/arm/cpu/armv7/s5p-common/libs5p-common.o
LOAD arch/arm/cpu/armv7/s5pc1xx/libs5pc1xx.o
LOAD arch/arm/lib/libarm.o
LOAD board/samsung/common/libsamsung.o
LOAD common/libcommon.o
LOAD disk/libdisk.o
LOAD drivers/bios_emulator/libatibiosemu.o
LOAD drivers/block/libblock.o
LOAD drivers/crypto/libcrypto.o
LOAD drivers/dfu/libdfu.o
LOAD drivers/dma/libdma.o
LOAD drivers/fpga/libfpga.o
LOAD drivers/gpio/libgpio.o
LOAD drivers/hwmon/libhwmon.o
LOAD drivers/i2c/libi2c.o
LOAD drivers/input/libinput.o
LOAD drivers/misc/libmisc.o
LOAD drivers/mmc/libmmc.o
LOAD drivers/mtd/libmtd.o
LOAD drivers/mtd/nand/libnand.o
LOAD drivers/mtd/onenand/libonenand.o
LOAD drivers/mtd/spi/libspi_flash.o
LOAD drivers/mtd/ubi/libubi.o
LOAD drivers/net/libnet.o
LOAD drivers/net/phy/libphy.o
LOAD drivers/pci/libpci.o
LOAD drivers/pcmcia/libpcmcia.o
LOAD drivers/power/battery/libbattery.o
LOAD drivers/power/fuel_gauge/libfuel_gauge.o
LOAD drivers/power/libpower.o
LOAD drivers/power/mfd/libmfd.o
LOAD drivers/power/pmic/libpmic.o
LOAD drivers/rtc/librtc.o
LOAD drivers/serial/libserial.o
LOAD drivers/sound/libsound.o
LOAD drivers/spi/libspi.o
LOAD drivers/tpm/libtpm.o
LOAD drivers/twserial/libtws.o
LOAD drivers/usb/eth/libusb_eth.o
LOAD drivers/usb/gadget/libusb_gadget.o
LOAD drivers/usb/host/libusb_host.o
LOAD drivers/usb/musb-new/libusb_musb-new.o
LOAD drivers/usb/musb/libusb_musb.o
LOAD drivers/usb/phy/libusb_phy.o
LOAD drivers/usb/ulpi/libusb_ulpi.o
LOAD drivers/video/libvideo.o
LOAD drivers/watchdog/libwatchdog.o
LOAD fs/cbfs/libcbfs.o
LOAD fs/cramfs/libcramfs.o
LOAD fs/ext4/libext4fs.o
LOAD fs/fat/libfat.o
LOAD fs/fdos/libfdos.o
LOAD fs/jffs2/libjffs2.o
LOAD fs/libfs.o
LOAD fs/reiserfs/libreiserfs.o
LOAD fs/sandbox/libsandboxfs.o
LOAD fs/ubifs/libubifs.o
LOAD fs/yaffs2/libyaffs2.o
LOAD fs/zfs/libzfs.o
LOAD lib/libfdt/libfdt.o
LOAD lib/libgeneric.o
LOAD lib/lzma/liblzma.o
LOAD lib/lzo/liblzo.o
LOAD lib/rsa/librsa.o
LOAD lib/zlib/libz.o
LOAD net/libnet.o
LOAD post/libpost.o
LOAD test/libtest.o
LOAD board/samsung/goni/libgoni.o
END GROUP
LOAD /home/jimmy/news5pv210/u-boot-2013.10/arch/arm/lib/eabi_compat.o
LOAD /arm/arm-2009q3/bin/../lib/gcc/arm-none-linux-gnueabi/4.4.1/libgcc.a
OUTPUT(u-boot elf32-littlearm)

.ARM.attributes
                0x00000000       0x29
 .ARM.attributes
                0x00000000       0x1d arch/arm/cpu/armv7/start.o
 .ARM.attributes
                0x0000001d       0x1d board/samsung/goni/lowlevel_init.o
 .ARM.attributes
                0x0000003a       0x1d board/samsung/goni/cpu_init.o
 .ARM.attributes
                0x00000057       0x2d board/samsung/goni/movi.o
 .ARM.attributes
                0x00000084       0x2d arch/arm/cpu/armv7/libarmv7.o
 .ARM.attributes
                0x000000b1       0x2d arch/arm/cpu/armv7/s5p-common/libs5p-common.o
 .ARM.attributes
                0x000000de       0x2b arch/arm/cpu/armv7/s5pc1xx/libs5pc1xx.o
 .ARM.attributes
                0x00000109       0x29 arch/arm/lib/libarm.o
 .ARM.attributes
                0x00000132       0x2d common/libcommon.o
 .ARM.attributes
                0x0000015f       0x2d disk/libdisk.o
 .ARM.attributes
                0x0000018c       0x2d drivers/gpio/libgpio.o
 .ARM.attributes
                0x000001b9       0x2d drivers/i2c/libi2c.o
 .ARM.attributes
                0x000001e6       0x2d drivers/input/libinput.o
 .ARM.attributes
                0x00000213       0x2d drivers/mmc/libmmc.o
 .ARM.attributes
                0x00000240       0x2d drivers/mtd/libmtd.o
 .ARM.attributes
                0x0000026d       0x2d drivers/net/libnet.o
 .ARM.attributes
                0x0000029a       0x2d drivers/pcmcia/libpcmcia.o
 .ARM.attributes
                0x000002c7       0x2d drivers/power/libpower.o
 .ARM.attributes
                0x000002f4       0x2d drivers/power/pmic/libpmic.o
 .ARM.attributes
                0x00000321       0x2d drivers/rtc/librtc.o
 .ARM.attributes
                0x0000034e       0x2d drivers/serial/libserial.o
 .ARM.attributes
                0x0000037b       0x2d drivers/spi/libspi.o
 .ARM.attributes
                0x000003a8       0x2d drivers/usb/gadget/libusb_gadget.o
 .ARM.attributes
                0x000003d5       0x2d drivers/watchdog/libwatchdog.o
 .ARM.attributes
                0x00000402       0x2d fs/ext4/libext4fs.o
 .ARM.attributes
                0x0000042f       0x2d fs/fat/libfat.o
 .ARM.attributes
                0x0000045c       0x2d fs/libfs.o
 .ARM.attributes
                0x00000489       0x2d lib/libgeneric.o
 .ARM.attributes
                0x000004b6       0x2d lib/zlib/libz.o
 .ARM.attributes
                0x000004e3       0x2d net/libnet.o
 .ARM.attributes
                0x00000510       0x2d board/samsung/goni/libgoni.o
 .ARM.attributes
                0x0000053d       0x2d /home/jimmy/news5pv210/u-boot-2013.10/arch/arm/lib/eabi_compat.o
 .ARM.attributes
                0x0000056a       0x1d /arm/arm-2009q3/bin/../lib/gcc/arm-none-linux-gnueabi/4.4.1/libgcc.a(_udivsi3.o)
 .ARM.attributes
                0x00000587       0x1d /arm/arm-2009q3/bin/../lib/gcc/arm-none-linux-gnueabi/4.4.1/libgcc.a(_divsi3.o)
 .ARM.attributes
                0x000005a4       0x1d /arm/arm-2009q3/bin/../lib/gcc/arm-none-linux-gnueabi/4.4.1/libgcc.a(_lshrdi3.o)
 .ARM.attributes
                0x000005c1       0x1d /arm/arm-2009q3/bin/../lib/gcc/arm-none-linux-gnueabi/4.4.1/libgcc.a(_ashldi3.o)
 .ARM.attributes
                0x000005de       0x1d /arm/arm-2009q3/bin/../lib/gcc/arm-none-linux-gnueabi/4.4.1/libgcc.a(_dvmd_lnx.o)

.comment        0x00000000     0x1386
 .comment       0x00000000       0x2a board/samsung/goni/movi.o
 .comment       0x0000002a       0x7e arch/arm/cpu/armv7/libarmv7.o
 .comment       0x000000a8       0xa8 arch/arm/cpu/armv7/s5p-common/libs5p-common.o
 .comment       0x00000150       0x2a arch/arm/cpu/armv7/s5pc1xx/libs5pc1xx.o
 .comment       0x0000017a      0x126 arch/arm/lib/libarm.o
 .comment       0x000002a0      0x6e4 common/libcommon.o
 .comment       0x00000984       0x54 disk/libdisk.o
 .comment       0x000009d8       0x2a drivers/gpio/libgpio.o
 .comment       0x00000a02       0x54 drivers/i2c/libi2c.o
 .comment       0x00000a56       0x2a drivers/input/libinput.o
 .comment       0x00000a80       0x54 drivers/mmc/libmmc.o
 .comment       0x00000ad4       0x54 drivers/mtd/libmtd.o
 .comment       0x00000b28       0x2a drivers/net/libnet.o
 .comment       0x00000b52       0x54 drivers/pcmcia/libpcmcia.o
 .comment       0x00000ba6       0x54 drivers/power/libpower.o
 .comment       0x00000bfa       0x2a drivers/power/pmic/libpmic.o
 .comment       0x00000c24       0x2a drivers/rtc/librtc.o
 .comment       0x00000c4e       0x54 drivers/serial/libserial.o
 .comment       0x00000ca2       0x2a drivers/spi/libspi.o
 .comment       0x00000ccc       0xa8 drivers/usb/gadget/libusb_gadget.o
 .comment       0x00000d74       0x2a drivers/watchdog/libwatchdog.o
 .comment       0x00000d9e       0x7e fs/ext4/libext4fs.o
 .comment       0x00000e1c       0x54 fs/fat/libfat.o
 .comment       0x00000e70       0x2a fs/libfs.o
 .comment       0x00000e9a      0x348 lib/libgeneric.o
 .comment       0x000011e2       0x2a lib/zlib/libz.o
 .comment       0x0000120c       0xfc net/libnet.o
 .comment       0x00001308       0x54 board/samsung/goni/libgoni.o
 .comment       0x0000135c       0x2a /home/jimmy/news5pv210/u-boot-2013.10/arch/arm/lib/eabi_compat.o

.note.GNU-stack
                0x00000000        0x0
 .note.GNU-stack
                0x00000000        0x0 board/samsung/goni/movi.o
 .note.GNU-stack
                0x00000000        0x0 arch/arm/cpu/armv7/libarmv7.o
 .note.GNU-stack
                0x00000000        0x0 arch/arm/cpu/armv7/s5p-common/libs5p-common.o
 .note.GNU-stack
                0x00000000        0x0 arch/arm/cpu/armv7/s5pc1xx/libs5pc1xx.o
 .note.GNU-stack
                0x00000000        0x0 arch/arm/lib/libarm.o
 .note.GNU-stack
                0x00000000        0x0 common/libcommon.o
 .note.GNU-stack
                0x00000000        0x0 disk/libdisk.o
 .note.GNU-stack
                0x00000000        0x0 drivers/gpio/libgpio.o
 .note.GNU-stack
                0x00000000        0x0 drivers/i2c/libi2c.o
 .note.GNU-stack
                0x00000000        0x0 drivers/input/libinput.o
 .note.GNU-stack
                0x00000000        0x0 drivers/mmc/libmmc.o
 .note.GNU-stack
                0x00000000        0x0 drivers/mtd/libmtd.o
 .note.GNU-stack
                0x00000000        0x0 drivers/net/libnet.o
 .note.GNU-stack
                0x00000000        0x0 drivers/pcmcia/libpcmcia.o
 .note.GNU-stack
                0x00000000        0x0 drivers/power/libpower.o
 .note.GNU-stack
                0x00000000        0x0 drivers/power/pmic/libpmic.o
 .note.GNU-stack
                0x00000000        0x0 drivers/rtc/librtc.o
 .note.GNU-stack
                0x00000000        0x0 drivers/serial/libserial.o
 .note.GNU-stack
                0x00000000        0x0 drivers/spi/libspi.o
 .note.GNU-stack
                0x00000000        0x0 drivers/usb/gadget/libusb_gadget.o
 .note.GNU-stack
                0x00000000        0x0 drivers/watchdog/libwatchdog.o
 .note.GNU-stack
                0x00000000        0x0 fs/ext4/libext4fs.o
 .note.GNU-stack
                0x00000000        0x0 fs/fat/libfat.o
 .note.GNU-stack
                0x00000000        0x0 fs/libfs.o
 .note.GNU-stack
                0x00000000        0x0 lib/libgeneric.o
 .note.GNU-stack
                0x00000000        0x0 lib/zlib/libz.o
 .note.GNU-stack
                0x00000000        0x0 net/libnet.o
 .note.GNU-stack
                0x00000000        0x0 board/samsung/goni/libgoni.o
 .note.GNU-stack
                0x00000000        0x0 /home/jimmy/news5pv210/u-boot-2013.10/arch/arm/lib/eabi_compat.o
 .note.GNU-stack
                0x00000000        0x0 /arm/arm-2009q3/bin/../lib/gcc/arm-none-linux-gnueabi/4.4.1/libgcc.a(_udivsi3.o)
 .note.GNU-stack
                0x00000000        0x0 /arm/arm-2009q3/bin/../lib/gcc/arm-none-linux-gnueabi/4.4.1/libgcc.a(_divsi3.o)
 .note.GNU-stack
                0x00000000        0x0 /arm/arm-2009q3/bin/../lib/gcc/arm-none-linux-gnueabi/4.4.1/libgcc.a(_lshrdi3.o)
 .note.GNU-stack
                0x00000000        0x0 /arm/arm-2009q3/bin/../lib/gcc/arm-none-linux-gnueabi/4.4.1/libgcc.a(_ashldi3.o)
 .note.GNU-stack
                0x00000000        0x0 /arm/arm-2009q3/bin/../lib/gcc/arm-none-linux-gnueabi/4.4.1/libgcc.a(_dvmd_lnx.o)

.debug_line     0x00000000    0x13d6f
 .debug_line    0x00000000       0xb0 arch/arm/cpu/armv7/start.o
 .debug_line    0x000000b0      0x12b board/samsung/goni/lowlevel_init.o
 .debug_line    0x000001db      0x115 board/samsung/goni/cpu_init.o
 .debug_line    0x000002f0      0x13d board/samsung/goni/movi.o
 .debug_line    0x0000042d      0x590 arch/arm/cpu/armv7/libarmv7.o
 .debug_line    0x000009bd      0x734 arch/arm/cpu/armv7/s5p-common/libs5p-common.o
 .debug_line    0x000010f1      0x30b arch/arm/cpu/armv7/s5pc1xx/libs5pc1xx.o
 .debug_line    0x000013fc      0xfc9 arch/arm/lib/libarm.o
 .debug_line    0x000023c5     0x6fee common/libcommon.o
 .debug_line    0x000093b3      0x59f disk/libdisk.o
 .debug_line    0x00009952      0x26a drivers/gpio/libgpio.o
 .debug_line    0x00009bbc      0x5a2 drivers/i2c/libi2c.o
 .debug_line    0x0000a15e      0x2f4 drivers/input/libinput.o
 .debug_line    0x0000a452      0xa1b drivers/mmc/libmmc.o
 .debug_line    0x0000ae6d      0x926 drivers/mtd/libmtd.o
 .debug_line    0x0000b793      0x39a drivers/net/libnet.o
 .debug_line    0x0000bb2d      0x222 drivers/pcmcia/libpcmcia.o
 .debug_line    0x0000bd4f      0x445 drivers/power/libpower.o
 .debug_line    0x0000c194      0x1a7 drivers/power/pmic/libpmic.o
 .debug_line    0x0000c33b      0x111 drivers/rtc/librtc.o
 .debug_line    0x0000c44c      0x7fa drivers/serial/libserial.o
 .debug_line    0x0000cc46      0x13c drivers/spi/libspi.o
 .debug_line    0x0000cd82     0x11a4 drivers/usb/gadget/libusb_gadget.o
 .debug_line    0x0000df26      0x185 drivers/watchdog/libwatchdog.o
 .debug_line    0x0000e0ab      0xa19 fs/ext4/libext4fs.o
 .debug_line    0x0000eac4      0x7aa fs/fat/libfat.o
 .debug_line    0x0000f26e      0x33d fs/libfs.o
 .debug_line    0x0000f5ab     0x2269 lib/libgeneric.o
 .debug_line    0x00011814      0x82d lib/zlib/libz.o
 .debug_line    0x00012041     0x1724 net/libnet.o
 .debug_line    0x00013765      0x4b5 board/samsung/goni/libgoni.o
 .debug_line    0x00013c1a      0x155 /home/jimmy/news5pv210/u-boot-2013.10/arch/arm/lib/eabi_compat.o

.debug_info     0x00000000    0x4a4ec
 .debug_info    0x00000000       0x6a arch/arm/cpu/armv7/start.o
 .debug_info    0x0000006a       0x72 board/samsung/goni/lowlevel_init.o
 .debug_info    0x000000dc       0x6d board/samsung/goni/cpu_init.o
 .debug_info    0x00000149      0x359 board/samsung/goni/movi.o
 .debug_info    0x000004a2     0x1108 arch/arm/cpu/armv7/libarmv7.o
 .debug_info    0x000015aa     0x18a5 arch/arm/cpu/armv7/s5p-common/libs5p-common.o
 .debug_info    0x00002e4f     0x1072 arch/arm/cpu/armv7/s5pc1xx/libs5pc1xx.o
 .debug_info    0x00003ec1     0x375c arch/arm/lib/libarm.o
 .debug_info    0x0000761d    0x1aa81 common/libcommon.o
 .debug_info    0x0002209e     0x15ea disk/libdisk.o
 .debug_info    0x00023688      0x899 drivers/gpio/libgpio.o
 .debug_info    0x00023f21     0x16fa drivers/i2c/libi2c.o
 .debug_info    0x0002561b      0xdd4 drivers/input/libinput.o
 .debug_info    0x000263ef     0x2d93 drivers/mmc/libmmc.o
 .debug_info    0x00029182     0x2905 drivers/mtd/libmtd.o
 .debug_info    0x0002ba87      0xc89 drivers/net/libnet.o
 .debug_info    0x0002c710      0x588 drivers/pcmcia/libpcmcia.o
 .debug_info    0x0002cc98     0x12b7 drivers/power/libpower.o
 .debug_info    0x0002df4f      0x7c2 drivers/power/pmic/libpmic.o
 .debug_info    0x0002e711      0x2c4 drivers/rtc/librtc.o
 .debug_info    0x0002e9d5     0x194f drivers/serial/libserial.o
 .debug_info    0x00030324      0x385 drivers/spi/libspi.o
 .debug_info    0x000306a9     0x57a1 drivers/usb/gadget/libusb_gadget.o
 .debug_info    0x00035e4a      0x499 drivers/watchdog/libwatchdog.o
 .debug_info    0x000362e3     0x30d2 fs/ext4/libext4fs.o
 .debug_info    0x000393b5     0x1dcf fs/fat/libfat.o
 .debug_info    0x0003b184      0xe9f fs/libfs.o
 .debug_info    0x0003c023     0x60a5 lib/libgeneric.o
 .debug_info    0x000420c8     0x1237 lib/zlib/libz.o
 .debug_info    0x000432ff     0x54be net/libnet.o
 .debug_info    0x000487bd     0x1a14 board/samsung/goni/libgoni.o
 .debug_info    0x0004a1d1      0x31b /home/jimmy/news5pv210/u-boot-2013.10/arch/arm/lib/eabi_compat.o

.debug_abbrev   0x00000000    0x10583
 .debug_abbrev  0x00000000       0x14 arch/arm/cpu/armv7/start.o
 .debug_abbrev  0x00000014       0x14 board/samsung/goni/lowlevel_init.o
 .debug_abbrev  0x00000028       0x14 board/samsung/goni/cpu_init.o
 .debug_abbrev  0x0000003c      0x133 board/samsung/goni/movi.o
 .debug_abbrev  0x0000016f      0x557 arch/arm/cpu/armv7/libarmv7.o
 .debug_abbrev  0x000006c6      0x83d arch/arm/cpu/armv7/s5p-common/libs5p-common.o
 .debug_abbrev  0x00000f03      0x300 arch/arm/cpu/armv7/s5pc1xx/libs5pc1xx.o
 .debug_abbrev  0x00001203      0xd20 arch/arm/lib/libarm.o
 .debug_abbrev  0x00001f23     0x5bda common/libcommon.o
 .debug_abbrev  0x00007afd      0x55f disk/libdisk.o
 .debug_abbrev  0x0000805c      0x22d drivers/gpio/libgpio.o
 .debug_abbrev  0x00008289      0x50f drivers/i2c/libi2c.o
 .debug_abbrev  0x00008798      0x35e drivers/input/libinput.o
 .debug_abbrev  0x00008af6      0x823 drivers/mmc/libmmc.o
 .debug_abbrev  0x00009319      0x63b drivers/mtd/libmtd.o
 .debug_abbrev  0x00009954      0x30f drivers/net/libnet.o
 .debug_abbrev  0x00009c63      0x1c4 drivers/pcmcia/libpcmcia.o
 .debug_abbrev  0x00009e27      0x440 drivers/power/libpower.o
 .debug_abbrev  0x0000a267      0x193 drivers/power/pmic/libpmic.o
 .debug_abbrev  0x0000a3fa       0xe2 drivers/rtc/librtc.o
 .debug_abbrev  0x0000a4dc      0x621 drivers/serial/libserial.o
 .debug_abbrev  0x0000aafd      0x148 drivers/spi/libspi.o
 .debug_abbrev  0x0000ac45      0xc2a drivers/usb/gadget/libusb_gadget.o
 .debug_abbrev  0x0000b86f      0x1d6 drivers/watchdog/libwatchdog.o
 .debug_abbrev  0x0000ba45      0x6e3 fs/ext4/libext4fs.o
 .debug_abbrev  0x0000c128      0x5f8 fs/fat/libfat.o
 .debug_abbrev  0x0000c720      0x2b2 fs/libfs.o
 .debug_abbrev  0x0000c9d2     0x1e80 lib/libgeneric.o
 .debug_abbrev  0x0000e852      0x358 lib/zlib/libz.o
 .debug_abbrev  0x0000ebaa     0x1417 net/libnet.o
 .debug_abbrev  0x0000ffc1      0x4a1 board/samsung/goni/libgoni.o
 .debug_abbrev  0x00010462      0x121 /home/jimmy/news5pv210/u-boot-2013.10/arch/arm/lib/eabi_compat.o

.debug_aranges  0x00000000     0x2690
 .debug_aranges
                0x00000000       0x20 arch/arm/cpu/armv7/start.o
 .debug_aranges
                0x00000020       0x20 board/samsung/goni/lowlevel_init.o
 .debug_aranges
                0x00000040       0x20 board/samsung/goni/cpu_init.o
 .debug_aranges
                0x00000060       0x20 board/samsung/goni/movi.o
 .debug_aranges
                0x00000080      0x100 arch/arm/cpu/armv7/libarmv7.o
 .debug_aranges
                0x00000180       0xe0 arch/arm/cpu/armv7/s5p-common/libs5p-common.o
 .debug_aranges
                0x00000260       0x90 arch/arm/cpu/armv7/s5pc1xx/libs5pc1xx.o
 .debug_aranges
                0x000002f0      0x280 arch/arm/lib/libarm.o
 .debug_aranges
                0x00000570      0xc58 common/libcommon.o
 .debug_aranges
                0x000011c8       0x98 disk/libdisk.o
 .debug_aranges
                0x00001260       0x98 drivers/gpio/libgpio.o
 .debug_aranges
                0x000012f8       0xe0 drivers/i2c/libi2c.o
 .debug_aranges
                0x000013d8       0x60 drivers/input/libinput.o
 .debug_aranges
                0x00001438      0x148 drivers/mmc/libmmc.o
 .debug_aranges
                0x00001580      0x168 drivers/mtd/libmtd.o
 .debug_aranges
                0x000016e8       0xb8 drivers/net/libnet.o
 .debug_aranges
                0x000017a0       0x78 drivers/power/libpower.o
 .debug_aranges
                0x00001818       0x20 drivers/power/pmic/libpmic.o
 .debug_aranges
                0x00001838      0x1b0 drivers/serial/libserial.o
 .debug_aranges
                0x000019e8       0x20 drivers/spi/libspi.o
 .debug_aranges
                0x00001a08      0x198 drivers/usb/gadget/libusb_gadget.o
 .debug_aranges
                0x00001ba0       0x28 drivers/watchdog/libwatchdog.o
 .debug_aranges
                0x00001bc8       0xd8 fs/ext4/libext4fs.o
 .debug_aranges
                0x00001ca0       0xf8 fs/fat/libfat.o
 .debug_aranges
                0x00001d98       0x88 fs/libfs.o
 .debug_aranges
                0x00001e20      0x4c0 lib/libgeneric.o
 .debug_aranges
                0x000022e0       0x68 lib/zlib/libz.o
 .debug_aranges
                0x00002348      0x298 net/libnet.o
 .debug_aranges
                0x000025e0       0x80 board/samsung/goni/libgoni.o
 .debug_aranges
                0x00002660       0x30 /home/jimmy/news5pv210/u-boot-2013.10/arch/arm/lib/eabi_compat.o

.debug_frame    0x00000000     0x6ae8
 .debug_frame   0x00000000       0x30 board/samsung/goni/movi.o
 .debug_frame   0x00000030      0x23c arch/arm/cpu/armv7/libarmv7.o
 .debug_frame   0x0000026c      0x1e0 arch/arm/cpu/armv7/s5p-common/libs5p-common.o
 .debug_frame   0x0000044c       0xb8 arch/arm/cpu/armv7/s5pc1xx/libs5pc1xx.o
 .debug_frame   0x00000504      0x51c arch/arm/lib/libarm.o
 .debug_frame   0x00000a20     0x242c common/libcommon.o
 .debug_frame   0x00002e4c      0x20c disk/libdisk.o
 .debug_frame   0x00003058      0x160 drivers/gpio/libgpio.o
 .debug_frame   0x000031b8      0x2c0 drivers/i2c/libi2c.o
 .debug_frame   0x00003478      0x130 drivers/input/libinput.o
 .debug_frame   0x000035a8      0x428 drivers/mmc/libmmc.o
 .debug_frame   0x000039d0      0x4f4 drivers/mtd/libmtd.o
 .debug_frame   0x00003ec4      0x1dc drivers/net/libnet.o
 .debug_frame   0x000040a0      0x158 drivers/power/libpower.o
 .debug_frame   0x000041f8       0x30 drivers/power/pmic/libpmic.o
 .debug_frame   0x00004228      0x42c drivers/serial/libserial.o
 .debug_frame   0x00004654       0x38 drivers/spi/libspi.o
 .debug_frame   0x0000468c      0x510 drivers/usb/gadget/libusb_gadget.o
 .debug_frame   0x00004b9c       0x40 drivers/watchdog/libwatchdog.o
 .debug_frame   0x00004bdc      0x298 fs/ext4/libext4fs.o
 .debug_frame   0x00004e74      0x33c fs/fat/libfat.o
 .debug_frame   0x000051b0      0x1a8 fs/libfs.o
 .debug_frame   0x00005358      0xca0 lib/libgeneric.o
 .debug_frame   0x00005ff8      0x150 lib/zlib/libz.o
 .debug_frame   0x00006148      0x7fc net/libnet.o
 .debug_frame   0x00006944      0x118 board/samsung/goni/libgoni.o
 .debug_frame   0x00006a5c       0x4c /home/jimmy/news5pv210/u-boot-2013.10/arch/arm/lib/eabi_compat.o
 .debug_frame   0x00006aa8       0x20 /arm/arm-2009q3/bin/../lib/gcc/arm-none-linux-gnueabi/4.4.1/libgcc.a(_udivsi3.o)
 .debug_frame   0x00006ac8       0x20 /arm/arm-2009q3/bin/../lib/gcc/arm-none-linux-gnueabi/4.4.1/libgcc.a(_divsi3.o)

.debug_loc      0x00000000    0x1c55f
 .debug_loc     0x00000000       0x48 board/samsung/goni/movi.o
 .debug_loc     0x00000048      0x470 arch/arm/cpu/armv7/libarmv7.o
 .debug_loc     0x000004b8      0x48f arch/arm/cpu/armv7/s5p-common/libs5p-common.o
 .debug_loc     0x00000947      0x23f arch/arm/cpu/armv7/s5pc1xx/libs5pc1xx.o
 .debug_loc     0x00000b86      0x7d6 arch/arm/lib/libarm.o
 .debug_loc     0x0000135c     0xb425 common/libcommon.o
 .debug_loc     0x0000c781      0x8ee disk/libdisk.o
 .debug_loc     0x0000d06f      0x36c drivers/gpio/libgpio.o
 .debug_loc     0x0000d3db      0x79f drivers/i2c/libi2c.o
 .debug_loc     0x0000db7a      0x53b drivers/input/libinput.o
 .debug_loc     0x0000e0b5     0x123e drivers/mmc/libmmc.o
 .debug_loc     0x0000f2f3     0x14de drivers/mtd/libmtd.o
 .debug_loc     0x000107d1      0x493 drivers/net/libnet.o
 .debug_loc     0x00010c64      0x4ba drivers/power/libpower.o
 .debug_loc     0x0001111e       0x3d drivers/power/pmic/libpmic.o
 .debug_loc     0x0001115b      0x5d5 drivers/serial/libserial.o
 .debug_loc     0x00011730       0x97 drivers/spi/libspi.o
 .debug_loc     0x000117c7     0x1a8b drivers/usb/gadget/libusb_gadget.o
 .debug_loc     0x00013252       0x63 drivers/watchdog/libwatchdog.o
 .debug_loc     0x000132b5     0x106a fs/ext4/libext4fs.o
 .debug_loc     0x0001431f     0x1390 fs/fat/libfat.o
 .debug_loc     0x000156af      0x690 fs/libfs.o
 .debug_loc     0x00015d3f     0x35ce lib/libgeneric.o
 .debug_loc     0x0001930d     0x16d1 lib/zlib/libz.o
 .debug_loc     0x0001a9de     0x195c net/libnet.o
 .debug_loc     0x0001c33a      0x1e8 board/samsung/goni/libgoni.o
 .debug_loc     0x0001c522       0x3d /home/jimmy/news5pv210/u-boot-2013.10/arch/arm/lib/eabi_compat.o

.debug_pubnames
                0x00000000     0x4350
 .debug_pubnames
                0x00000000       0x24 board/samsung/goni/movi.o
 .debug_pubnames
                0x00000024      0x208 arch/arm/cpu/armv7/libarmv7.o
 .debug_pubnames
                0x0000022c      0x164 arch/arm/cpu/armv7/s5p-common/libs5p-common.o
 .debug_pubnames
                0x00000390       0x63 arch/arm/cpu/armv7/s5pc1xx/libs5pc1xx.o
 .debug_pubnames
                0x000003f3      0x4ba arch/arm/lib/libarm.o
 .debug_pubnames
                0x000008ad     0x15c6 common/libcommon.o
 .debug_pubnames
                0x00001e73       0xe5 disk/libdisk.o
 .debug_pubnames
                0x00001f58      0x174 drivers/gpio/libgpio.o
 .debug_pubnames
                0x000020cc      0x139 drivers/i2c/libi2c.o
 .debug_pubnames
                0x00002205       0x99 drivers/input/libinput.o
 .debug_pubnames
                0x0000229e      0x23b drivers/mmc/libmmc.o
 .debug_pubnames
                0x000024d9      0x223 drivers/mtd/libmtd.o
 .debug_pubnames
                0x000026fc       0x5d drivers/net/libnet.o
 .debug_pubnames
                0x00002759       0xd8 drivers/power/libpower.o
 .debug_pubnames
                0x00002831       0x20 drivers/power/pmic/libpmic.o
 .debug_pubnames
                0x00002851      0x451 drivers/serial/libserial.o
 .debug_pubnames
                0x00002ca2       0x29 drivers/spi/libspi.o
 .debug_pubnames
                0x00002ccb      0x29c drivers/usb/gadget/libusb_gadget.o
 .debug_pubnames
                0x00002f67       0x2d drivers/watchdog/libwatchdog.o
 .debug_pubnames
                0x00002f94      0x2b7 fs/ext4/libext4fs.o
 .debug_pubnames
                0x0000324b      0x18b fs/fat/libfat.o
 .debug_pubnames
                0x000033d6       0x71 fs/libfs.o
 .debug_pubnames
                0x00003447      0x63a lib/libgeneric.o
 .debug_pubnames
                0x00003a81       0xb4 lib/zlib/libz.o
 .debug_pubnames
                0x00003b35      0x6d5 net/libnet.o
 .debug_pubnames
                0x0000420a       0xf4 board/samsung/goni/libgoni.o
 .debug_pubnames
                0x000042fe       0x52 /home/jimmy/news5pv210/u-boot-2013.10/arch/arm/lib/eabi_compat.o

.debug_ranges   0x00000000     0x52f0
 .debug_ranges  0x00000000       0x18 board/samsung/goni/movi.o
 .debug_ranges  0x00000018      0x118 arch/arm/cpu/armv7/libarmv7.o
 .debug_ranges  0x00000130      0x1f8 arch/arm/cpu/armv7/s5p-common/libs5p-common.o
 .debug_ranges  0x00000328      0x148 arch/arm/cpu/armv7/s5pc1xx/libs5pc1xx.o
 .debug_ranges  0x00000470      0x2d8 arch/arm/lib/libarm.o
 .debug_ranges  0x00000748     0x1918 common/libcommon.o
 .debug_ranges  0x00002060      0x138 disk/libdisk.o
 .debug_ranges  0x00002198       0x90 drivers/gpio/libgpio.o
 .debug_ranges  0x00002228      0x180 drivers/i2c/libi2c.o
 .debug_ranges  0x000023a8      0x160 drivers/input/libinput.o
 .debug_ranges  0x00002508      0x2f8 drivers/mmc/libmmc.o
 .debug_ranges  0x00002800      0x300 drivers/mtd/libmtd.o
 .debug_ranges  0x00002b00      0x178 drivers/net/libnet.o
 .debug_ranges  0x00002c78       0xc8 drivers/power/libpower.o
 .debug_ranges  0x00002d40       0x18 drivers/power/pmic/libpmic.o
 .debug_ranges  0x00002d58      0x3c8 drivers/serial/libserial.o
 .debug_ranges  0x00003120       0x18 drivers/spi/libspi.o
 .debug_ranges  0x00003138      0xb68 drivers/usb/gadget/libusb_gadget.o
 .debug_ranges  0x00003ca0       0x50 drivers/watchdog/libwatchdog.o
 .debug_ranges  0x00003cf0      0x360 fs/ext4/libext4fs.o
 .debug_ranges  0x00004050      0x1c0 fs/fat/libfat.o
 .debug_ranges  0x00004210       0x80 fs/libfs.o
 .debug_ranges  0x00004290      0x700 lib/libgeneric.o
 .debug_ranges  0x00004990       0x90 lib/zlib/libz.o
 .debug_ranges  0x00004a20      0x7e8 net/libnet.o
 .debug_ranges  0x00005208       0xc0 board/samsung/goni/libgoni.o
 .debug_ranges  0x000052c8       0x28 /home/jimmy/news5pv210/u-boot-2013.10/arch/arm/lib/eabi_compat.o

.debug_str      0x00000000     0xa8e8
 .debug_str     0x00000000      0x1a9 board/samsung/goni/movi.o
                                0x238 (size before relaxing)
 .debug_str     0x000001a9      0x32f arch/arm/cpu/armv7/libarmv7.o
                                0x9a8 (size before relaxing)
 .debug_str     0x000004d8      0x420 arch/arm/cpu/armv7/s5p-common/libs5p-common.o
                                0xd7d (size before relaxing)
 .debug_str     0x000008f8      0x2cc arch/arm/cpu/armv7/s5pc1xx/libs5pc1xx.o
                                0x51a (size before relaxing)
 .debug_str     0x00000bc4     0x12ce arch/arm/lib/libarm.o
                               0x2e7e (size before relaxing)
 .debug_str     0x00001e92     0x347e common/libcommon.o
                               0xea43 (size before relaxing)
 .debug_str     0x00005310      0x299 disk/libdisk.o
                                0x9a5 (size before relaxing)
 .debug_str     0x000055a9      0x156 drivers/gpio/libgpio.o
                                0x392 (size before relaxing)
 .debug_str     0x000056ff      0x281 drivers/i2c/libi2c.o
                                0x9de (size before relaxing)
 .debug_str     0x00005980      0x322 drivers/input/libinput.o
                                0x5a1 (size before relaxing)
 .debug_str     0x00005ca2      0x454 drivers/mmc/libmmc.o
                                0xdeb (size before relaxing)
 .debug_str     0x000060f6      0x3c1 drivers/mtd/libmtd.o
                                0xf21 (size before relaxing)
 .debug_str     0x000064b7      0x2e4 drivers/net/libnet.o
                                0x4e8 (size before relaxing)
 .debug_str     0x0000679b       0x52 drivers/pcmcia/libpcmcia.o
                                0x423 (size before relaxing)
 .debug_str     0x000067ed      0x23b drivers/power/libpower.o
                                0x84a (size before relaxing)
 .debug_str     0x00006a28      0x428 drivers/power/pmic/libpmic.o
                                0x72c (size before relaxing)
 .debug_str     0x00006e50       0x39 drivers/rtc/librtc.o
                                0x207 (size before relaxing)
 .debug_str     0x00006e89      0x4a8 drivers/serial/libserial.o
                                0xc20 (size before relaxing)
 .debug_str     0x00007331       0x6f drivers/spi/libspi.o
                                0x24a (size before relaxing)
 .debug_str     0x000073a0      0xb4b drivers/usb/gadget/libusb_gadget.o
                               0x1915 (size before relaxing)
 .debug_str     0x00007eeb       0x96 drivers/watchdog/libwatchdog.o
                                0x28a (size before relaxing)
 .debug_str     0x00007f81      0x91c fs/ext4/libext4fs.o
                               0x1a4d (size before relaxing)
 .debug_str     0x0000889d      0x5b3 fs/fat/libfat.o
                                0xb7f (size before relaxing)
 .debug_str     0x00008e50       0xdd fs/libfs.o
                                0x60e (size before relaxing)
 .debug_str     0x00008f2d      0x7bf lib/libgeneric.o
                               0x3266 (size before relaxing)
 .debug_str     0x000096ec      0x2da lib/zlib/libz.o
                                0x690 (size before relaxing)
 .debug_str     0x000099c6      0xdcb net/libnet.o
                               0x3fcd (size before relaxing)
 .debug_str     0x0000a791      0x10e board/samsung/goni/libgoni.o
                                0xe88 (size before relaxing)
 .debug_str     0x0000a89f       0x49 /home/jimmy/news5pv210/u-boot-2013.10/arch/arm/lib/eabi_compat.o
                                0x24a (size before relaxing)
