
mynoos.elf:     file format elf32-littlearm


Disassembly of section .text:

d0020010 <_start>:
d0020010:	ea000006 	b	d0020030 <reset>
d0020014:	e59ff0c8 	ldr	pc, [pc, #200]	; d00200e4 <_undefined_instruction>
d0020018:	e59ff0c8 	ldr	pc, [pc, #200]	; d00200e8 <_software_interrupt>
d002001c:	e59ff0c8 	ldr	pc, [pc, #200]	; d00200ec <_prefetch_abort>
d0020020:	e59ff0c8 	ldr	pc, [pc, #200]	; d00200f0 <_data_abort>
d0020024:	e59ff0c8 	ldr	pc, [pc, #200]	; d00200f4 <_not_used>
d0020028:	e59ff0c8 	ldr	pc, [pc, #200]	; d00200f8 <_irq>
d002002c:	e59ff0c8 	ldr	pc, [pc, #200]	; d00200fc <_fiq>

d0020030 <reset>:
d0020030:	e10f0000 	mrs	r0, CPSR
d0020034:	e3c0001f 	bic	r0, r0, #31
d0020038:	e38000d3 	orr	r0, r0, #211	; 0xd3
d002003c:	e129f000 	msr	CPSR_fc, r0
d0020040:	ee110f10 	mrc	15, 0, r0, cr1, cr0, {0}
d0020044:	e3c00a02 	bic	r0, r0, #8192	; 0x2000
d0020048:	ee010f10 	mcr	15, 0, r0, cr1, cr0, {0}
d002004c:	e59f00fc 	ldr	r0, [pc, #252]	; d0020150 <fmt+0x8>
d0020050:	ee0c0f10 	mcr	15, 0, r0, cr12, cr0, {0}
d0020054:	e59f00f8 	ldr	r0, [pc, #248]	; d0020154 <fmt+0xc>
d0020058:	e3a01000 	mov	r1, #0
d002005c:	e5801000 	str	r1, [r0]
d0020060:	eb000015 	bl	d00200bc <disable_interrupt>
d0020064:	eb000009 	bl	d0020090 <disable_mmu>
d0020068:	eb00093a 	bl	d0022558 <clock_init>
d002006c:	e59fd0e4 	ldr	sp, [pc, #228]	; d0020158 <fmt+0x10>
d0020070:	ee110f10 	mrc	15, 0, r0, cr1, cr0, {0}
d0020074:	e3800a01 	orr	r0, r0, #4096	; 0x1000
d0020078:	ee010f10 	mcr	15, 0, r0, cr1, cr0, {0}
d002007c:	eb000b3f 	bl	d0022d80 <buzzer_init>
d0020080:	eb000043 	bl	d0020194 <sdram_asm_init>
d0020084:	eb000c22 	bl	d0023114 <copy_bl2_2_ddr>
d0020088:	eb000b46 	bl	d0022da8 <buzzer_on>

d002008c <run_on_dram>:
d002008c:	eafffffe 	b	d002008c <run_on_dram>

d0020090 <disable_mmu>:
d0020090:	ee070f15 	mcr	15, 0, r0, cr7, cr5, {0}
d0020094:	ee070f36 	mcr	15, 0, r0, cr7, cr6, {1}
d0020098:	ee110f10 	mrc	15, 0, r0, cr1, cr0, {0}
d002009c:	e3c00007 	bic	r0, r0, #7
d00200a0:	ee010f10 	mcr	15, 0, r0, cr1, cr0, {0}
d00200a4:	e1a0f00e 	mov	pc, lr

d00200a8 <stack_init>:
d00200a8:	e321f0d2 	msr	CPSR_c, #210	; 0xd2
d00200ac:	e3a0d42e 	mov	sp, #771751936	; 0x2e000000
d00200b0:	e321f0d3 	msr	CPSR_c, #211	; 0xd3
d00200b4:	e3a0d42f 	mov	sp, #788529152	; 0x2f000000
d00200b8:	e1a0f00e 	mov	pc, lr

d00200bc <disable_interrupt>:
d00200bc:	e3e00000 	mvn	r0, #0
d00200c0:	e59f1094 	ldr	r1, [pc, #148]	; d002015c <fmt+0x14>
d00200c4:	e5810000 	str	r0, [r1]
d00200c8:	e59f1090 	ldr	r1, [pc, #144]	; d0020160 <fmt+0x18>
d00200cc:	e5810000 	str	r0, [r1]
d00200d0:	e59f108c 	ldr	r1, [pc, #140]	; d0020164 <fmt+0x1c>
d00200d4:	e5810000 	str	r0, [r1]
d00200d8:	e59f1088 	ldr	r1, [pc, #136]	; d0020168 <fmt+0x20>
d00200dc:	e5810000 	str	r0, [r1]
d00200e0:	e1a0f00e 	mov	pc, lr

d00200e4 <_undefined_instruction>:
d00200e4:	d0020100 	andle	r0, r2, r0, lsl #2

d00200e8 <_software_interrupt>:
d00200e8:	d0020104 	andle	r0, r2, r4, lsl #2

d00200ec <_prefetch_abort>:
d00200ec:	d0020124 	andle	r0, r2, r4, lsr #2

d00200f0 <_data_abort>:
d00200f0:	d0020128 	andle	r0, r2, r8, lsr #2

d00200f4 <_not_used>:
d00200f4:	d002012c 	andle	r0, r2, ip, lsr #2

d00200f8 <_irq>:
d00200f8:	d0020144 	andle	r0, r2, r4, asr #2

d00200fc <_fiq>:
d00200fc:	d0020144 	andle	r0, r2, r4, asr #2

d0020100 <undefined_instruction>:
d0020100:	e1a00000 	nop			; (mov r0, r0)

d0020104 <software_interrupt>:
d0020104:	e59fd060 	ldr	sp, [pc, #96]	; d002016c <fmt+0x24>
d0020108:	e92d5fff 	push	{r0, r1, r2, r3, r4, r5, r6, r7, r8, r9, sl, fp, ip, lr}
d002010c:	e51e4004 	ldr	r4, [lr, #-4]
d0020110:	e3c444ff 	bic	r4, r4, #-16777216	; 0xff000000
d0020114:	e3540001 	cmp	r4, #1
d0020118:	059fe050 	ldreq	lr, [pc, #80]	; d0020170 <fmt+0x28>
d002011c:	13e00000 	mvnne	r0, #0

d0020120 <swi_return>:
d0020120:	e8fd9fff 	ldm	sp!, {r0, r1, r2, r3, r4, r5, r6, r7, r8, r9, sl, fp, ip, pc}^

d0020124 <prefetch_abort>:
d0020124:	e1a00000 	nop			; (mov r0, r0)

d0020128 <data_abort>:
d0020128:	e1a00000 	nop			; (mov r0, r0)

d002012c <not_used>:
d002012c:	e1a00000 	nop			; (mov r0, r0)

d0020130 <IRQ_handle>:
d0020130:	e59fd03c 	ldr	sp, [pc, #60]	; d0020174 <fmt+0x2c>
d0020134:	e24ee004 	sub	lr, lr, #4
d0020138:	e92d5fff 	push	{r0, r1, r2, r3, r4, r5, r6, r7, r8, r9, sl, fp, ip, lr}
d002013c:	eb000a4a 	bl	d0022a6c <irq_handler>
d0020140:	e8fd9fff 	ldm	sp!, {r0, r1, r2, r3, r4, r5, r6, r7, r8, r9, sl, fp, ip, pc}^

d0020144 <irq>:
d0020144:	eafffffe 	b	d0020144 <irq>

d0020148 <fmt>:
d0020148:	6c6c6568 	cfstr64vs	mvdx6, [ip], #-416	; 0xfffffe60
d002014c:	00000a6f 	andeq	r0, r0, pc, ror #20
d0020150:	d0020010 	andle	r0, r2, r0, lsl r0
d0020154:	e2700000 	rsbs	r0, r0, #0
d0020158:	d0037d80 	andle	r7, r3, r0, lsl #27
d002015c:	f2000014 	vqadd.s8	d0, d0, d4
d0020160:	f2100014 	vqadd.s16	d0, d0, d4
d0020164:	f2200014 	vqadd.s32	d0, d0, d4
d0020168:	f2300014 	vqadd.s64	d0, d0, d4
d002016c:	20004000 	andcs	r4, r0, r0
d0020170:	d0020120 	andle	r0, r2, r0, lsr #2
d0020174:	d0037f80 	andle	r7, r3, r0, lsl #31
d0020178:	00001a41 	andeq	r1, r0, r1, asr #20
d002017c:	61656100 	cmnvs	r5, r0, lsl #2
d0020180:	01006962 	tsteq	r0, r2, ror #18
d0020184:	00000010 	andeq	r0, r0, r0, lsl r0
d0020188:	45543505 	ldrbmi	r3, [r4, #-1285]	; 0x505
d002018c:	08040600 	stmdaeq	r4, {r9, sl}
d0020190:	00010901 	andeq	r0, r1, r1, lsl #18

d0020194 <sdram_asm_init>:
d0020194:	e59f01a4 	ldr	r0, [pc, #420]	; d0020340 <find_lock_val+0xe4>
d0020198:	e3a01000 	mov	r1, #0
d002019c:	e5801000 	str	r1, [r0]
d00201a0:	e59f019c 	ldr	r0, [pc, #412]	; d0020344 <find_lock_val+0xe8>
d00201a4:	e59f119c 	ldr	r1, [pc, #412]	; d0020348 <find_lock_val+0xec>
d00201a8:	e58013cc 	str	r1, [r0, #972]	; 0x3cc
d00201ac:	e59f1194 	ldr	r1, [pc, #404]	; d0020348 <find_lock_val+0xec>
d00201b0:	e58013ec 	str	r1, [r0, #1004]	; 0x3ec
d00201b4:	e59f118c 	ldr	r1, [pc, #396]	; d0020348 <find_lock_val+0xec>
d00201b8:	e580140c 	str	r1, [r0, #1036]	; 0x40c
d00201bc:	e59f1184 	ldr	r1, [pc, #388]	; d0020348 <find_lock_val+0xec>
d00201c0:	e580142c 	str	r1, [r0, #1068]	; 0x42c
d00201c4:	e59f117c 	ldr	r1, [pc, #380]	; d0020348 <find_lock_val+0xec>
d00201c8:	e580144c 	str	r1, [r0, #1100]	; 0x44c
d00201cc:	e59f1174 	ldr	r1, [pc, #372]	; d0020348 <find_lock_val+0xec>
d00201d0:	e580146c 	str	r1, [r0, #1132]	; 0x46c
d00201d4:	e59f116c 	ldr	r1, [pc, #364]	; d0020348 <find_lock_val+0xec>
d00201d8:	e580148c 	str	r1, [r0, #1164]	; 0x48c
d00201dc:	e59f1164 	ldr	r1, [pc, #356]	; d0020348 <find_lock_val+0xec>
d00201e0:	e58014ac 	str	r1, [r0, #1196]	; 0x4ac
d00201e4:	e59f1160 	ldr	r1, [pc, #352]	; d002034c <find_lock_val+0xf0>
d00201e8:	e58014cc 	str	r1, [r0, #1228]	; 0x4cc
d00201ec:	e59f0150 	ldr	r0, [pc, #336]	; d0020344 <find_lock_val+0xe8>
d00201f0:	e59f1150 	ldr	r1, [pc, #336]	; d0020348 <find_lock_val+0xec>
d00201f4:	e58014ec 	str	r1, [r0, #1260]	; 0x4ec
d00201f8:	e59f1148 	ldr	r1, [pc, #328]	; d0020348 <find_lock_val+0xec>
d00201fc:	e580150c 	str	r1, [r0, #1292]	; 0x50c
d0020200:	e59f1140 	ldr	r1, [pc, #320]	; d0020348 <find_lock_val+0xec>
d0020204:	e580152c 	str	r1, [r0, #1324]	; 0x52c
d0020208:	e59f1138 	ldr	r1, [pc, #312]	; d0020348 <find_lock_val+0xec>
d002020c:	e580154c 	str	r1, [r0, #1356]	; 0x54c
d0020210:	e59f1130 	ldr	r1, [pc, #304]	; d0020348 <find_lock_val+0xec>
d0020214:	e580156c 	str	r1, [r0, #1388]	; 0x56c
d0020218:	e59f1128 	ldr	r1, [pc, #296]	; d0020348 <find_lock_val+0xec>
d002021c:	e580158c 	str	r1, [r0, #1420]	; 0x58c
d0020220:	e59f1120 	ldr	r1, [pc, #288]	; d0020348 <find_lock_val+0xec>
d0020224:	e58015ac 	str	r1, [r0, #1452]	; 0x5ac
d0020228:	e59f1118 	ldr	r1, [pc, #280]	; d0020348 <find_lock_val+0xec>
d002022c:	e58015cc 	str	r1, [r0, #1484]	; 0x5cc
d0020230:	e59f1114 	ldr	r1, [pc, #276]	; d002034c <find_lock_val+0xf0>
d0020234:	e58015ec 	str	r1, [r0, #1516]	; 0x5ec
d0020238:	e3a0020f 	mov	r0, #-268435456	; 0xf0000000
d002023c:	e59f110c 	ldr	r1, [pc, #268]	; d0020350 <find_lock_val+0xf4>
d0020240:	e5801018 	str	r1, [r0, #24]
d0020244:	e3a01086 	mov	r1, #134	; 0x86
d0020248:	e580101c 	str	r1, [r0, #28]
d002024c:	e59f1100 	ldr	r1, [pc, #256]	; d0020354 <find_lock_val+0xf8>
d0020250:	e5801018 	str	r1, [r0, #24]
d0020254:	e59f10fc 	ldr	r1, [pc, #252]	; d0020358 <find_lock_val+0xfc>
d0020258:	e5801018 	str	r1, [r0, #24]

d002025c <find_lock_val>:
d002025c:	e5901040 	ldr	r1, [r0, #64]	; 0x40
d0020260:	e2012007 	and	r2, r1, #7
d0020264:	e3520007 	cmp	r2, #7
d0020268:	1afffffb 	bne	d002025c <find_lock_val>
d002026c:	e2011dff 	and	r1, r1, #16320	; 0x3fc0
d0020270:	e1a02901 	lsl	r2, r1, #18
d0020274:	e3822601 	orr	r2, r2, #1048576	; 0x100000
d0020278:	e3822a01 	orr	r2, r2, #4096	; 0x1000
d002027c:	e3821003 	orr	r1, r2, #3
d0020280:	e5801018 	str	r1, [r0, #24]
d0020284:	e59f10d0 	ldr	r1, [pc, #208]	; d002035c <find_lock_val+0x100>
d0020288:	e5801000 	str	r1, [r0]
d002028c:	e59f10cc 	ldr	r1, [pc, #204]	; d0020360 <find_lock_val+0x104>
d0020290:	e5801004 	str	r1, [r0, #4]
d0020294:	e59f10c8 	ldr	r1, [pc, #200]	; d0020364 <find_lock_val+0x108>
d0020298:	e5801008 	str	r1, [r0, #8]
d002029c:	e59f10c4 	ldr	r1, [pc, #196]	; d0020368 <find_lock_val+0x10c>
d00202a0:	e580100c 	str	r1, [r0, #12]
d00202a4:	e3a014ff 	mov	r1, #-16777216	; 0xff000000
d00202a8:	e5801014 	str	r1, [r0, #20]
d00202ac:	e59f10b8 	ldr	r1, [pc, #184]	; d002036c <find_lock_val+0x110>
d00202b0:	e5801030 	str	r1, [r0, #48]	; 0x30
d00202b4:	e59f10b4 	ldr	r1, [pc, #180]	; d0020370 <find_lock_val+0x114>
d00202b8:	e5801034 	str	r1, [r0, #52]	; 0x34
d00202bc:	e59f10b0 	ldr	r1, [pc, #176]	; d0020374 <find_lock_val+0x118>
d00202c0:	e5801038 	str	r1, [r0, #56]	; 0x38
d00202c4:	e59f10ac 	ldr	r1, [pc, #172]	; d0020378 <find_lock_val+0x11c>
d00202c8:	e580103c 	str	r1, [r0, #60]	; 0x3c
d00202cc:	e3a01407 	mov	r1, #117440512	; 0x7000000
d00202d0:	e5801010 	str	r1, [r0, #16]
d00202d4:	e3a01401 	mov	r1, #16777216	; 0x1000000
d00202d8:	e5801010 	str	r1, [r0, #16]
d00202dc:	e3a01802 	mov	r1, #131072	; 0x20000
d00202e0:	e5801010 	str	r1, [r0, #16]
d00202e4:	e3a01803 	mov	r1, #196608	; 0x30000
d00202e8:	e5801010 	str	r1, [r0, #16]
d00202ec:	e3a01b41 	mov	r1, #66560	; 0x10400
d00202f0:	e5801010 	str	r1, [r0, #16]
d00202f4:	e59f1080 	ldr	r1, [pc, #128]	; d002037c <find_lock_val+0x120>
d00202f8:	e5801010 	str	r1, [r0, #16]
d00202fc:	e3a01401 	mov	r1, #16777216	; 0x1000000
d0020300:	e5801010 	str	r1, [r0, #16]
d0020304:	e3a01405 	mov	r1, #83886080	; 0x5000000
d0020308:	e5801010 	str	r1, [r0, #16]
d002030c:	e3a01405 	mov	r1, #83886080	; 0x5000000
d0020310:	e5801010 	str	r1, [r0, #16]
d0020314:	e59f1064 	ldr	r1, [pc, #100]	; d0020380 <find_lock_val+0x124>
d0020318:	e5801010 	str	r1, [r0, #16]
d002031c:	e59f1060 	ldr	r1, [pc, #96]	; d0020384 <find_lock_val+0x128>
d0020320:	e5801010 	str	r1, [r0, #16]
d0020324:	e3a01b41 	mov	r1, #66560	; 0x10400
d0020328:	e5801010 	str	r1, [r0, #16]
d002032c:	e3e01cff 	mvn	r1, #65280	; 0xff00
d0020330:	e5801028 	str	r1, [r0, #40]	; 0x28
d0020334:	e59f1024 	ldr	r1, [pc, #36]	; d0020360 <find_lock_val+0x104>
d0020338:	e5801004 	str	r1, [r0, #4]
d002033c:	e1a0f00e 	mov	pc, lr
d0020340:	f1e00000 	undefined instruction 0xf1e00000
d0020344:	e0200000 	eor	r0, r0, r0
d0020348:	0000aaaa 	andeq	sl, r0, sl, lsr #21
d002034c:	00002aaa 	andeq	r2, r0, sl, lsr #21
d0020350:	00101000 	andseq	r1, r0, r0
d0020354:	00101002 	andseq	r1, r0, r2
d0020358:	00101003 	andseq	r1, r0, r3
d002035c:	0fff2010 	svceq	0x00ff2010
d0020360:	00202400 	eoreq	r2, r0, r0, lsl #8
d0020364:	20f01323 	rscscs	r1, r0, r3, lsr #6
d0020368:	30f00312 	rscscc	r0, r0, r2, lsl r3
d002036c:	00000618 	andeq	r0, r0, r8, lsl r6
d0020370:	28233287 	stmdacs	r3!, {r0, r1, r2, r7, r9, ip, sp}
d0020374:	23240304 	teqcs	r4, #268435456	; 0x10000000
d0020378:	09c80232 	stmibeq	r8, {r1, r4, r5, r9}^
d002037c:	00000542 	andeq	r0, r0, r2, asr #10
d0020380:	00000442 	andeq	r0, r0, r2, asr #8
d0020384:	00010780 	andeq	r0, r1, r0, lsl #15
d0020388:	00001a41 	andeq	r1, r0, r1, asr #20
d002038c:	61656100 	cmnvs	r5, r0, lsl #2
d0020390:	01006962 	tsteq	r0, r2, ror #18
d0020394:	00000010 	andeq	r0, r0, r0, lsl r0
d0020398:	45543505 	ldrbmi	r3, [r4, #-1285]	; 0x505
d002039c:	08040600 	stmdaeq	r4, {r9, sl}
d00203a0:	00010901 	andeq	r0, r1, r1, lsl #18

d00203a4 <delay>:
d00203a4:	e24dd008 	sub	sp, sp, #8
d00203a8:	e3a03064 	mov	r3, #100	; 0x64
d00203ac:	e58d3004 	str	r3, [sp, #4]
d00203b0:	ea000004 	b	d00203c8 <delay+0x24>
d00203b4:	e59d2004 	ldr	r2, [sp, #4]
d00203b8:	e2421001 	sub	r1, r2, #1
d00203bc:	e3520000 	cmp	r2, #0
d00203c0:	e58d1004 	str	r1, [sp, #4]
d00203c4:	1afffffa 	bne	d00203b4 <delay+0x10>
d00203c8:	e2500001 	subs	r0, r0, #1
d00203cc:	2afffff8 	bcs	d00203b4 <delay+0x10>
d00203d0:	e28dd008 	add	sp, sp, #8
d00203d4:	e12fff1e 	bx	lr

d00203d8 <mydelay>:
d00203d8:	e59f2030 	ldr	r2, [pc, #48]	; d0020410 <mydelay+0x38>
d00203dc:	e24dd008 	sub	sp, sp, #8
d00203e0:	e3a03064 	mov	r3, #100	; 0x64
d00203e4:	e58d3004 	str	r3, [sp, #4]
d00203e8:	e59d1004 	ldr	r1, [sp, #4]
d00203ec:	e2410001 	sub	r0, r1, #1
d00203f0:	e3510000 	cmp	r1, #0
d00203f4:	e58d0004 	str	r0, [sp, #4]
d00203f8:	1afffffa 	bne	d00203e8 <mydelay+0x10>
d00203fc:	e3520000 	cmp	r2, #0
d0020400:	e2422001 	sub	r2, r2, #1
d0020404:	1afffff7 	bne	d00203e8 <mydelay+0x10>
d0020408:	e28dd008 	add	sp, sp, #8
d002040c:	e12fff1e 	bx	lr
d0020410:	0000270f 	andeq	r2, r0, pc, lsl #14

d0020414 <Hsmmc_ReadBlock_test>:
d0020414:	e3a01001 	mov	r1, #1
d0020418:	e1a02001 	mov	r2, r1
d002041c:	e59f0000 	ldr	r0, [pc, #0]	; d0020424 <Hsmmc_ReadBlock_test+0x10>
d0020420:	ea0001a2 	b	d0020ab0 <Hsmmc_ReadBlock>
d0020424:	20008000 	andcs	r8, r0, r0

d0020428 <init_sdcard>:
d0020428:	e92d4010 	push	{r4, lr}
d002042c:	e59f001c 	ldr	r0, [pc, #28]	; d0020450 <init_sdcard+0x28>
d0020430:	eb000d6f 	bl	d00239f4 <printf>
d0020434:	eb0005d2 	bl	d0021b84 <Hsmmc_Init>
d0020438:	ebfffff5 	bl	d0020414 <Hsmmc_ReadBlock_test>
d002043c:	e59f3010 	ldr	r3, [pc, #16]	; d0020454 <init_sdcard+0x2c>
d0020440:	e59f0010 	ldr	r0, [pc, #16]	; d0020458 <init_sdcard+0x30>
d0020444:	e5931000 	ldr	r1, [r3]
d0020448:	e8bd4010 	pop	{r4, lr}
d002044c:	ea000d68 	b	d00239f4 <printf>
d0020450:	d0020510 	andle	r0, r2, r0, lsl r5
d0020454:	20008000 	andcs	r8, r0, r0
d0020458:	d0020524 	andle	r0, r2, r4, lsr #10

d002045c <main>:
d002045c:	e92d4008 	push	{r3, lr}
d0020460:	eb000067 	bl	d0020604 <uart_init>
d0020464:	eb000a4f 	bl	d0022da8 <buzzer_on>
d0020468:	ebffffee 	bl	d0020428 <init_sdcard>
d002046c:	e59f3024 	ldr	r3, [pc, #36]	; d0020498 <main+0x3c>
d0020470:	e59f0024 	ldr	r0, [pc, #36]	; d002049c <main+0x40>
d0020474:	e5931000 	ldr	r1, [r3]
d0020478:	eb000d5d 	bl	d00239f4 <printf>
d002047c:	e59f001c 	ldr	r0, [pc, #28]	; d00204a0 <main+0x44>
d0020480:	eb000d5b 	bl	d00239f4 <printf>
d0020484:	eb00007d 	bl	d0020680 <getc>
d0020488:	e1a01000 	mov	r1, r0
d002048c:	e59f0010 	ldr	r0, [pc, #16]	; d00204a4 <main+0x48>
d0020490:	eb000d57 	bl	d00239f4 <printf>
d0020494:	eafffff8 	b	d002047c <main+0x20>
d0020498:	20008000 	andcs	r8, r0, r0
d002049c:	d0020554 	andle	r0, r2, r4, asr r5
d00204a0:	d0020568 	andle	r0, r2, r8, ror #10
d00204a4:	d0020580 	andle	r0, r2, r0, lsl #11

d00204a8 <nand_operation_test>:
d00204a8:	e92d4010 	push	{r4, lr}
d00204ac:	e3a00607 	mov	r0, #7340032	; 0x700000
d00204b0:	e24ddb01 	sub	sp, sp, #1024	; 0x400
d00204b4:	eb000c1d 	bl	d0023530 <erase_flash>
d00204b8:	e3a01607 	mov	r1, #7340032	; 0x700000
d00204bc:	e3a0200a 	mov	r2, #10
d00204c0:	e59f0040 	ldr	r0, [pc, #64]	; d0020508 <nand_operation_test+0x60>
d00204c4:	eb000bd5 	bl	d0023420 <nand_write>
d00204c8:	e1a0000d 	mov	r0, sp
d00204cc:	e3a01607 	mov	r1, #7340032	; 0x700000
d00204d0:	e3a02008 	mov	r2, #8
d00204d4:	eb000c32 	bl	d00235a4 <nand_read>
d00204d8:	e1a0400d 	mov	r4, sp
d00204dc:	e3500000 	cmp	r0, #0
d00204e0:	ba000006 	blt	d0020500 <nand_operation_test+0x58>
d00204e4:	e28d1b01 	add	r1, sp, #1024	; 0x400
d00204e8:	e0813000 	add	r3, r1, r0
d00204ec:	e3a02000 	mov	r2, #0
d00204f0:	e1a0100d 	mov	r1, sp
d00204f4:	e59f0010 	ldr	r0, [pc, #16]	; d002050c <nand_operation_test+0x64>
d00204f8:	e5432400 	strb	r2, [r3, #-1024]	; 0x400
d00204fc:	eb000d3c 	bl	d00239f4 <printf>
d0020500:	e28ddb01 	add	sp, sp, #1024	; 0x400
d0020504:	e8bd8010 	pop	{r4, pc}
d0020508:	d002058c 	andle	r0, r2, ip, lsl #11
d002050c:	d0020594 	mulle	r2, r4, r5
d0020510:	65746661 	ldrbvs	r6, [r4, #-1633]!	; 0x661
d0020514:	61752072 	cmnvs	r5, r2, ror r0
d0020518:	69207472 	stmdbvs	r0!, {r1, r4, r5, r6, sl, ip, sp, lr}
d002051c:	2074696e 	rsbscs	r6, r4, lr, ror #18
d0020520:	00000a0d 	andeq	r0, r0, sp, lsl #20
d0020524:	20656874 	rsbcs	r6, r5, r4, ror r8
d0020528:	6d6d7348 	stclvs	3, cr7, [sp, #-288]!	; 0xfffffee0
d002052c:	65525f63 	ldrbvs	r5, [r2, #-3939]	; 0xf63
d0020530:	6c426461 	cfstrdvs	mvd6, [r2], {97}	; 0x61
d0020534:	206b636f 	rsbcs	r6, fp, pc, ror #6
d0020538:	64207369 	strtvs	r7, [r0], #-873	; 0x369
d002053c:	20656e6f 	rsbcs	r6, r5, pc, ror #28
d0020540:	5f524444 	svcpl	0x00524444
d0020544:	52415453 	subpl	r5, r1, #1392508928	; 0x53000000
d0020548:	44415f54 	strbmi	r5, [r1], #-3924	; 0xf54
d002054c:	253a5244 	ldrcs	r5, [sl, #-580]!	; 0x244
d0020550:	00000a64 	andeq	r0, r0, r4, ror #20
d0020554:	6d206567 	cfstr32vs	mvfx6, [r0, #-412]!	; 0xfffffe64
d0020558:	66206d65 	strtvs	r6, [r0], -r5, ror #26
d002055c:	206d6f72 	rsbcs	r6, sp, r2, ror pc
d0020560:	0a78253d 	beq	d1e29a5c <bss_end+0x1e02fa0>
d0020564:	00000000 	andeq	r0, r0, r0
d0020568:	74617720 	strbtvc	r7, [r1], #-1824	; 0x720
d002056c:	20676e69 	rsbcs	r6, r7, r9, ror #28
d0020570:	20726f66 	rsbscs	r6, r2, r6, ror #30
d0020574:	63746567 	cmnvs	r4, #432013312	; 0x19c00000
d0020578:	0a726168 	beq	d1cb8b20 <bss_end+0x1c92064>
d002057c:	00000000 	andeq	r0, r0, r0
d0020580:	63746567 	cmnvs	r4, #432013312	; 0x19c00000
d0020584:	3d726168 	ldfcce	f6, [r2, #-416]!	; 0xfffffe60
d0020588:	000a6425 	andeq	r6, sl, r5, lsr #8
d002058c:	34333231 	ldrtcc	r3, [r3], #-561	; 0x231
d0020590:	00003035 	andeq	r3, r0, r5, lsr r0
d0020594:	20656874 	rsbcs	r6, r5, r4, ror r8
d0020598:	646e616e 	strbtvs	r6, [lr], #-366	; 0x16e
d002059c:	61657220 	cmnvs	r5, r0, lsr #4
d00205a0:	75622064 	strbvc	r2, [r2, #-100]!	; 0x64
d00205a4:	73692066 	cmnvc	r9, #102	; 0x66
d00205a8:	0a732520 	beq	d1ce9a30 <bss_end+0x1cc2f74>
d00205ac:	43470000 	movtmi	r0, #28672	; 0x7000
d00205b0:	28203a43 	stmdacs	r0!, {r0, r1, r6, r9, fp, ip, sp}
d00205b4:	72756f53 	rsbsvc	r6, r5, #332	; 0x14c
d00205b8:	79726563 	ldmdbvc	r2!, {r0, r1, r5, r6, r8, sl, sp, lr}^
d00205bc:	2b2b4720 	blcs	d0af2244 <bss_end+0xacb788>
d00205c0:	74694c20 	strbtvc	r4, [r9], #-3104	; 0xc20
d00205c4:	30322065 	eorscc	r2, r2, r5, rrx
d00205c8:	33713930 	cmncc	r1, #786432	; 0xc0000
d00205cc:	2937362d 	ldmdbcs	r7!, {r0, r2, r3, r5, r9, sl, ip, sp}
d00205d0:	342e3420 	strtcc	r3, [lr], #-1056	; 0x420
d00205d4:	4100312e 	tstmi	r0, lr, lsr #2
d00205d8:	0000002a 	andeq	r0, r0, sl, lsr #32
d00205dc:	62616561 	rsbvs	r6, r1, #406847488	; 0x18400000
d00205e0:	20010069 	andcs	r0, r1, r9, rrx
d00205e4:	05000000 	streq	r0, [r0]
d00205e8:	00455435 	subeq	r5, r5, r5, lsr r4
d00205ec:	01080406 	tsteq	r8, r6, lsl #8
d00205f0:	04120109 	ldreq	r0, [r2], #-265	; 0x109
d00205f4:	01150114 	tsteq	r5, r4, lsl r1
d00205f8:	01180317 	tsteq	r8, r7, lsl r3
d00205fc:	021a0119 	andseq	r0, sl, #1073741830	; 0x40000006
d0020600:	0000021e 	andeq	r0, r0, lr, lsl r2

d0020604 <uart_init>:
d0020604:	e59fc048 	ldr	ip, [pc, #72]	; d0020654 <uart_init+0x50>
d0020608:	e59f3048 	ldr	r3, [pc, #72]	; d0020658 <uart_init+0x54>
d002060c:	e59c2020 	ldr	r2, [ip, #32]
d0020610:	e3a01000 	mov	r1, #0
d0020614:	e3c200ff 	bic	r0, r2, #255	; 0xff
d0020618:	e58c0020 	str	r0, [ip, #32]
d002061c:	e59c2020 	ldr	r2, [ip, #32]
d0020620:	e3820022 	orr	r0, r2, #34	; 0x22
d0020624:	e3a02003 	mov	r2, #3
d0020628:	e58c0020 	str	r0, [ip, #32]
d002062c:	e5832800 	str	r2, [r3, #2048]	; 0x800
d0020630:	e3a0c005 	mov	ip, #5
d0020634:	e3a00023 	mov	r0, #35	; 0x23
d0020638:	e59f201c 	ldr	r2, [pc, #28]	; d002065c <uart_init+0x58>
d002063c:	e583c804 	str	ip, [r3, #2052]	; 0x804
d0020640:	e583180c 	str	r1, [r3, #2060]	; 0x80c
d0020644:	e5831808 	str	r1, [r3, #2056]	; 0x808
d0020648:	e5830828 	str	r0, [r3, #2088]	; 0x828
d002064c:	e583282c 	str	r2, [r3, #2092]	; 0x82c
d0020650:	e12fff1e 	bx	lr
d0020654:	e0200000 	eor	r0, r0, r0
d0020658:	e2900000 	adds	r0, r0, #0
d002065c:	00000888 	andeq	r0, r0, r8, lsl #17

d0020660 <putc>:
d0020660:	e59f3014 	ldr	r3, [pc, #20]	; d002067c <putc+0x1c>
d0020664:	e5932810 	ldr	r2, [r3, #2064]	; 0x810
d0020668:	e3120002 	tst	r2, #2
d002066c:	0afffffc 	beq	d0020664 <putc+0x4>
d0020670:	e59f3004 	ldr	r3, [pc, #4]	; d002067c <putc+0x1c>
d0020674:	e5830820 	str	r0, [r3, #2080]	; 0x820
d0020678:	e12fff1e 	bx	lr
d002067c:	e2900000 	adds	r0, r0, #0

d0020680 <getc>:
d0020680:	e59f2018 	ldr	r2, [pc, #24]	; d00206a0 <getc+0x20>
d0020684:	e5923810 	ldr	r3, [r2, #2064]	; 0x810
d0020688:	e3130001 	tst	r3, #1
d002068c:	0afffffc 	beq	d0020684 <getc+0x4>
d0020690:	e59f1008 	ldr	r1, [pc, #8]	; d00206a0 <getc+0x20>
d0020694:	e5910824 	ldr	r0, [r1, #2084]	; 0x824
d0020698:	e200000f 	and	r0, r0, #15
d002069c:	e12fff1e 	bx	lr
d00206a0:	e2900000 	adds	r0, r0, #0
d00206a4:	43434700 	movtmi	r4, #14080	; 0x3700
d00206a8:	5328203a 	teqpl	r8, #58	; 0x3a
d00206ac:	6372756f 	cmnvs	r2, #465567744	; 0x1bc00000
d00206b0:	20797265 	rsbscs	r7, r9, r5, ror #4
d00206b4:	202b2b47 	eorcs	r2, fp, r7, asr #22
d00206b8:	6574694c 	ldrbvs	r6, [r4, #-2380]!	; 0x94c
d00206bc:	30303220 	eorscc	r3, r0, r0, lsr #4
d00206c0:	2d337139 	ldfcss	f7, [r3, #-228]!	; 0xffffff1c
d00206c4:	20293736 	eorcs	r3, r9, r6, lsr r7
d00206c8:	2e342e34 	mrccs	14, 1, r2, cr4, cr4, {1}
d00206cc:	2a410031 	bcs	d1060798 <bss_end+0x1039cdc>
d00206d0:	61000000 	tstvs	r0, r0
d00206d4:	69626165 	stmdbvs	r2!, {r0, r2, r5, r6, r8, sp, lr}^
d00206d8:	00200100 	eoreq	r0, r0, r0, lsl #2
d00206dc:	35050000 	strcc	r0, [r5]
d00206e0:	06004554 	undefined instruction 0x06004554
d00206e4:	09010804 	stmdbeq	r1, {r2, fp}
d00206e8:	14041201 	strne	r1, [r4], #-513	; 0x201
d00206ec:	17011501 	strne	r1, [r1, -r1, lsl #10]
d00206f0:	19011803 	stmdbne	r1, {r0, r1, fp, ip}
d00206f4:	1e021a01 	vmlane.f32	s2, s4, s2
d00206f8:	00000002 	andeq	r0, r0, r2

d00206fc <Delay_us>:
d00206fc:	e12fff1e 	bx	lr

d0020700 <Hsmmc_SetClock>:
d0020700:	e59f3178 	ldr	r3, [pc, #376]	; d0020880 <Hsmmc_SetClock+0x180>
d0020704:	e59f2178 	ldr	r2, [pc, #376]	; d0020884 <Hsmmc_SetClock+0x184>
d0020708:	e1d312bc 	ldrh	r1, [r3, #44]	; 0x2c
d002070c:	e001c002 	and	ip, r1, r2
d0020710:	e1c3c2bc 	strh	ip, [r3, #44]	; 0x2c
d0020714:	e5932080 	ldr	r2, [r3, #128]	; 0x80
d0020718:	e59f1168 	ldr	r1, [pc, #360]	; d0020888 <Hsmmc_SetClock+0x188>
d002071c:	e3c2c030 	bic	ip, r2, #48	; 0x30
d0020720:	e38c2103 	orr	r2, ip, #-1073741824	; 0xc0000000
d0020724:	e1500001 	cmp	r0, r1
d0020728:	e3822e12 	orr	r2, r2, #288	; 0x120
d002072c:	8a00004a 	bhi	d002085c <Hsmmc_SetClock+0x15c>
d0020730:	e3c2c903 	bic	ip, r2, #49152	; 0xc000
d0020734:	e3a01000 	mov	r1, #0
d0020738:	e5831084 	str	r1, [r3, #132]	; 0x84
d002073c:	e583c080 	str	ip, [r3, #128]	; 0x80
d0020740:	e59f3144 	ldr	r3, [pc, #324]	; d002088c <Hsmmc_SetClock+0x18c>
d0020744:	e1500003 	cmp	r0, r3
d0020748:	83a00001 	movhi	r0, #1
d002074c:	8a00001b 	bhi	d00207c0 <Hsmmc_SetClock+0xc0>
d0020750:	e59f2138 	ldr	r2, [pc, #312]	; d0020890 <Hsmmc_SetClock+0x190>
d0020754:	e1500002 	cmp	r0, r2
d0020758:	83a00002 	movhi	r0, #2
d002075c:	8a000017 	bhi	d00207c0 <Hsmmc_SetClock+0xc0>
d0020760:	e59fc12c 	ldr	ip, [pc, #300]	; d0020894 <Hsmmc_SetClock+0x194>
d0020764:	e150000c 	cmp	r0, ip
d0020768:	83a00003 	movhi	r0, #3
d002076c:	8a000013 	bhi	d00207c0 <Hsmmc_SetClock+0xc0>
d0020770:	e59f1120 	ldr	r1, [pc, #288]	; d0020898 <Hsmmc_SetClock+0x198>
d0020774:	e1500001 	cmp	r0, r1
d0020778:	83a00004 	movhi	r0, #4
d002077c:	8a00000f 	bhi	d00207c0 <Hsmmc_SetClock+0xc0>
d0020780:	e59f3114 	ldr	r3, [pc, #276]	; d002089c <Hsmmc_SetClock+0x19c>
d0020784:	e1500003 	cmp	r0, r3
d0020788:	83a00005 	movhi	r0, #5
d002078c:	8a00000b 	bhi	d00207c0 <Hsmmc_SetClock+0xc0>
d0020790:	e59f2108 	ldr	r2, [pc, #264]	; d00208a0 <Hsmmc_SetClock+0x1a0>
d0020794:	e1500002 	cmp	r0, r2
d0020798:	83a00006 	movhi	r0, #6
d002079c:	8a000007 	bhi	d00207c0 <Hsmmc_SetClock+0xc0>
d00207a0:	e59fc0fc 	ldr	ip, [pc, #252]	; d00208a4 <Hsmmc_SetClock+0x1a4>
d00207a4:	e150000c 	cmp	r0, ip
d00207a8:	83a00007 	movhi	r0, #7
d00207ac:	8a000003 	bhi	d00207c0 <Hsmmc_SetClock+0xc0>
d00207b0:	e59f10f0 	ldr	r1, [pc, #240]	; d00208a8 <Hsmmc_SetClock+0x1a8>
d00207b4:	e1500001 	cmp	r0, r1
d00207b8:	83a00008 	movhi	r0, #8
d00207bc:	93a00009 	movls	r0, #9
d00207c0:	e3a01001 	mov	r1, #1
d00207c4:	e1a03011 	lsl	r3, r1, r0
d00207c8:	e0830fa3 	add	r0, r3, r3, lsr #31
d00207cc:	e1a0c150 	asr	ip, r0, r1
d00207d0:	e1a02c0c 	lsl	r2, ip, #24
d00207d4:	e3823801 	orr	r3, r2, #65536	; 0x10000
d00207d8:	e59f20a0 	ldr	r2, [pc, #160]	; d0020880 <Hsmmc_SetClock+0x180>
d00207dc:	e1a00823 	lsr	r0, r3, #16
d00207e0:	e1c202bc 	strh	r0, [r2, #44]	; 0x2c
d00207e4:	e3a03ffa 	mov	r3, #1000	; 0x3e8
d00207e8:	ea000005 	b	d0020804 <Hsmmc_SetClock+0x104>
d00207ec:	e3530000 	cmp	r3, #0
d00207f0:	e2403001 	sub	r3, r0, #1
d00207f4:	012fff1e 	bxeq	lr
d00207f8:	e1d212bc 	ldrh	r1, [r2, #44]	; 0x2c
d00207fc:	e3110002 	tst	r1, #2
d0020800:	1a000004 	bne	d0020818 <Hsmmc_SetClock+0x118>
d0020804:	e1d2c2bc 	ldrh	ip, [r2, #44]	; 0x2c
d0020808:	e2430001 	sub	r0, r3, #1
d002080c:	e31c0002 	tst	ip, #2
d0020810:	e59fc068 	ldr	ip, [pc, #104]	; d0020880 <Hsmmc_SetClock+0x180>
d0020814:	0afffff4 	beq	d00207ec <Hsmmc_SetClock+0xec>
d0020818:	e1dc02bc 	ldrh	r0, [ip, #44]	; 0x2c
d002081c:	e3a03ffa 	mov	r3, #1000	; 0x3e8
d0020820:	e3802004 	orr	r2, r0, #4
d0020824:	e1cc22bc 	strh	r2, [ip, #44]	; 0x2c
d0020828:	e59f2050 	ldr	r2, [pc, #80]	; d0020880 <Hsmmc_SetClock+0x180>
d002082c:	ea000005 	b	d0020848 <Hsmmc_SetClock+0x148>
d0020830:	e3530000 	cmp	r3, #0
d0020834:	e2403001 	sub	r3, r0, #1
d0020838:	012fff1e 	bxeq	lr
d002083c:	e1d212bc 	ldrh	r1, [r2, #44]	; 0x2c
d0020840:	e3110008 	tst	r1, #8
d0020844:	112fff1e 	bxne	lr
d0020848:	e1d2c2bc 	ldrh	ip, [r2, #44]	; 0x2c
d002084c:	e2430001 	sub	r0, r3, #1
d0020850:	e31c0008 	tst	ip, #8
d0020854:	0afffff5 	beq	d0020830 <Hsmmc_SetClock+0x130>
d0020858:	e12fff1e 	bx	lr
d002085c:	e59f1048 	ldr	r1, [pc, #72]	; d00208ac <Hsmmc_SetClock+0x1ac>
d0020860:	e3822903 	orr	r2, r2, #49152	; 0xc000
d0020864:	e1500001 	cmp	r0, r1
d0020868:	e59fc040 	ldr	ip, [pc, #64]	; d00208b0 <Hsmmc_SetClock+0x1b0>
d002086c:	e583c084 	str	ip, [r3, #132]	; 0x84
d0020870:	83a00000 	movhi	r0, #0
d0020874:	e5832080 	str	r2, [r3, #128]	; 0x80
d0020878:	9affffb0 	bls	d0020740 <Hsmmc_SetClock+0x40>
d002087c:	eaffffcf 	b	d00207c0 <Hsmmc_SetClock+0xc0>
d0020880:	eb200000 	bl	d0820888 <bss_end+0x7f9dcc>
d0020884:	0000fffb 	strdeq	pc, [r0], -fp
d0020888:	0007a120 	andeq	sl, r7, r0, lsr #2
d002088c:	016e35ff 	strdeq	r3, [lr, #-95]!	; 0xffffffa1
d0020890:	00b71aff 	ldrshteq	r1, [r7], pc
d0020894:	005b8d7f 	subseq	r8, fp, pc, ror sp
d0020898:	002dc6bf 	strheq	ip, [sp], -pc
d002089c:	0016e35f 	andseq	lr, r6, pc, asr r3
d00208a0:	000b71af 	andeq	r7, fp, pc, lsr #3
d00208a4:	0005b8d7 	ldrdeq	fp, [r5], -r7
d00208a8:	0002dc6b 	andeq	sp, r2, fp, ror #24
d00208ac:	02dc6bff 	sbcseq	r6, ip, #261120	; 0x3fc00
d00208b0:	80800000 	addhi	r0, r0, r0

d00208b4 <Hsmmc_WaitForCommandDone>:
d00208b4:	e92d4010 	push	{r4, lr}
d00208b8:	e59f30b0 	ldr	r3, [pc, #176]	; d0020970 <Hsmmc_WaitForCommandDone+0xbc>
d00208bc:	e3a02000 	mov	r2, #0
d00208c0:	ea00000a 	b	d00208f0 <Hsmmc_WaitForCommandDone+0x3c>
d00208c4:	e1d303b0 	ldrh	r0, [r3, #48]	; 0x30
d00208c8:	e3100001 	tst	r0, #1
d00208cc:	1a00001f 	bne	d0020950 <Hsmmc_WaitForCommandDone+0x9c>
d00208d0:	e1d313b0 	ldrh	r1, [r3, #48]	; 0x30
d00208d4:	e3110902 	tst	r1, #32768	; 0x8000
d00208d8:	1a000009 	bne	d0020904 <Hsmmc_WaitForCommandDone+0x50>
d00208dc:	e1d303b0 	ldrh	r0, [r3, #48]	; 0x30
d00208e0:	e3100001 	tst	r0, #1
d00208e4:	1a000019 	bne	d0020950 <Hsmmc_WaitForCommandDone+0x9c>
d00208e8:	e3520202 	cmp	r2, #536870912	; 0x20000000
d00208ec:	0a000004 	beq	d0020904 <Hsmmc_WaitForCommandDone+0x50>
d00208f0:	e1d313b0 	ldrh	r1, [r3, #48]	; 0x30
d00208f4:	e2822001 	add	r2, r2, #1
d00208f8:	e3110902 	tst	r1, #32768	; 0x8000
d00208fc:	e2822001 	add	r2, r2, #1
d0020900:	0affffef 	beq	d00208c4 <Hsmmc_WaitForCommandDone+0x10>
d0020904:	e59f2064 	ldr	r2, [pc, #100]	; d0020970 <Hsmmc_WaitForCommandDone+0xbc>
d0020908:	e1d243b2 	ldrh	r4, [r2, #50]	; 0x32
d002090c:	e1d233b0 	ldrh	r3, [r2, #48]	; 0x30
d0020910:	e1a00b84 	lsl	r0, r4, #23
d0020914:	e1c233b0 	strh	r3, [r2, #48]	; 0x30
d0020918:	e1a04ba0 	lsr	r4, r0, #23
d002091c:	e1d2e3b2 	ldrh	lr, [r2, #50]	; 0x32
d0020920:	e1a03002 	mov	r3, r2
d0020924:	e1c2e3b2 	strh	lr, [r2, #50]	; 0x32
d0020928:	e3a01001 	mov	r1, #1
d002092c:	e1c313b0 	strh	r1, [r3, #48]	; 0x30
d0020930:	e1d3c3b0 	ldrh	ip, [r3, #48]	; 0x30
d0020934:	e31c0001 	tst	ip, #1
d0020938:	1afffffa 	bne	d0020928 <Hsmmc_WaitForCommandDone+0x74>
d002093c:	e1a01004 	mov	r1, r4
d0020940:	e59f002c 	ldr	r0, [pc, #44]	; d0020974 <Hsmmc_WaitForCommandDone+0xc0>
d0020944:	eb000c2a 	bl	d00239f4 <printf>
d0020948:	e1a00004 	mov	r0, r4
d002094c:	e8bd8010 	pop	{r4, pc}
d0020950:	e59f3018 	ldr	r3, [pc, #24]	; d0020970 <Hsmmc_WaitForCommandDone+0xbc>
d0020954:	e3a0c001 	mov	ip, #1
d0020958:	e1c3c3b0 	strh	ip, [r3, #48]	; 0x30
d002095c:	e1d343b0 	ldrh	r4, [r3, #48]	; 0x30
d0020960:	e2144001 	ands	r4, r4, #1
d0020964:	1afffffa 	bne	d0020954 <Hsmmc_WaitForCommandDone+0xa0>
d0020968:	e1a00004 	mov	r0, r4
d002096c:	e8bd8010 	pop	{r4, pc}
d0020970:	eb200000 	bl	d0820978 <bss_end+0x7f9ebc>
d0020974:	d0022060 	andle	r2, r2, r0, rrx

d0020978 <Hsmmc_WaitForTransferDone>:
d0020978:	e92d4038 	push	{r3, r4, r5, lr}
d002097c:	e3a02000 	mov	r2, #0
d0020980:	e59f30ac 	ldr	r3, [pc, #172]	; d0020a34 <Hsmmc_WaitForTransferDone+0xbc>
d0020984:	ea00000a 	b	d00209b4 <Hsmmc_WaitForTransferDone+0x3c>
d0020988:	e1d303b0 	ldrh	r0, [r3, #48]	; 0x30
d002098c:	e3100002 	tst	r0, #2
d0020990:	1a00001e 	bne	d0020a10 <Hsmmc_WaitForTransferDone+0x98>
d0020994:	e1d303b0 	ldrh	r0, [r3, #48]	; 0x30
d0020998:	e3100902 	tst	r0, #32768	; 0x8000
d002099c:	1a000009 	bne	d00209c8 <Hsmmc_WaitForTransferDone+0x50>
d00209a0:	e1d303b0 	ldrh	r0, [r3, #48]	; 0x30
d00209a4:	e3100002 	tst	r0, #2
d00209a8:	1a000018 	bne	d0020a10 <Hsmmc_WaitForTransferDone+0x98>
d00209ac:	e3520202 	cmp	r2, #536870912	; 0x20000000
d00209b0:	0a000004 	beq	d00209c8 <Hsmmc_WaitForTransferDone+0x50>
d00209b4:	e1d313b0 	ldrh	r1, [r3, #48]	; 0x30
d00209b8:	e2822001 	add	r2, r2, #1
d00209bc:	e3110902 	tst	r1, #32768	; 0x8000
d00209c0:	e2822001 	add	r2, r2, #1
d00209c4:	0affffef 	beq	d0020988 <Hsmmc_WaitForTransferDone+0x10>
d00209c8:	e59f4064 	ldr	r4, [pc, #100]	; d0020a34 <Hsmmc_WaitForTransferDone+0xbc>
d00209cc:	e59f0064 	ldr	r0, [pc, #100]	; d0020a38 <Hsmmc_WaitForTransferDone+0xc0>
d00209d0:	e1d453b2 	ldrh	r5, [r4, #50]	; 0x32
d00209d4:	e1d423b0 	ldrh	r2, [r4, #48]	; 0x30
d00209d8:	e1a0eb85 	lsl	lr, r5, #23
d00209dc:	e1c423b0 	strh	r2, [r4, #48]	; 0x30
d00209e0:	e1a05bae 	lsr	r5, lr, #23
d00209e4:	e1d433b2 	ldrh	r3, [r4, #50]	; 0x32
d00209e8:	e1a01005 	mov	r1, r5
d00209ec:	e1c433b2 	strh	r3, [r4, #50]	; 0x32
d00209f0:	eb000bff 	bl	d00239f4 <printf>
d00209f4:	e3a01002 	mov	r1, #2
d00209f8:	e1c413b0 	strh	r1, [r4, #48]	; 0x30
d00209fc:	e1d4c3b0 	ldrh	ip, [r4, #48]	; 0x30
d0020a00:	e31c0002 	tst	ip, #2
d0020a04:	1afffffa 	bne	d00209f4 <Hsmmc_WaitForTransferDone+0x7c>
d0020a08:	e1a00005 	mov	r0, r5
d0020a0c:	e8bd8038 	pop	{r3, r4, r5, pc}
d0020a10:	e59f301c 	ldr	r3, [pc, #28]	; d0020a34 <Hsmmc_WaitForTransferDone+0xbc>
d0020a14:	e1d313b0 	ldrh	r1, [r3, #48]	; 0x30
d0020a18:	e381c002 	orr	ip, r1, #2
d0020a1c:	e1c3c3b0 	strh	ip, [r3, #48]	; 0x30
d0020a20:	e1d353b0 	ldrh	r5, [r3, #48]	; 0x30
d0020a24:	e2155002 	ands	r5, r5, #2
d0020a28:	1afffff9 	bne	d0020a14 <Hsmmc_WaitForTransferDone+0x9c>
d0020a2c:	e1a00005 	mov	r0, r5
d0020a30:	e8bd8038 	pop	{r3, r4, r5, pc}
d0020a34:	eb200000 	bl	d0820a3c <bss_end+0x7f9f80>
d0020a38:	d0022084 	andle	r2, r2, r4, lsl #1

d0020a3c <Hsmmc_WaitForBufferReadReady>:
d0020a3c:	e59f2064 	ldr	r2, [pc, #100]	; d0020aa8 <Hsmmc_WaitForBufferReadReady+0x6c>
d0020a40:	e92d4010 	push	{r4, lr}
d0020a44:	e1d213b0 	ldrh	r1, [r2, #48]	; 0x30
d0020a48:	e59f3058 	ldr	r3, [pc, #88]	; d0020aa8 <Hsmmc_WaitForBufferReadReady+0x6c>
d0020a4c:	e3110902 	tst	r1, #32768	; 0x8000
d0020a50:	1a000008 	bne	d0020a78 <Hsmmc_WaitForBufferReadReady+0x3c>
d0020a54:	e1d203b0 	ldrh	r0, [r2, #48]	; 0x30
d0020a58:	e3100020 	tst	r0, #32
d0020a5c:	0afffff8 	beq	d0020a44 <Hsmmc_WaitForBufferReadReady+0x8>
d0020a60:	e1d3c3b0 	ldrh	ip, [r3, #48]	; 0x30
d0020a64:	e3a04000 	mov	r4, #0
d0020a68:	e38c2020 	orr	r2, ip, #32
d0020a6c:	e1c323b0 	strh	r2, [r3, #48]	; 0x30
d0020a70:	e1a00004 	mov	r0, r4
d0020a74:	e8bd8010 	pop	{r4, pc}
d0020a78:	e1d303b2 	ldrh	r0, [r3, #50]	; 0x32
d0020a7c:	e1d313b0 	ldrh	r1, [r3, #48]	; 0x30
d0020a80:	e1a04b80 	lsl	r4, r0, #23
d0020a84:	e1c313b0 	strh	r1, [r3, #48]	; 0x30
d0020a88:	e1a04ba4 	lsr	r4, r4, #23
d0020a8c:	e1d3e3b2 	ldrh	lr, [r3, #50]	; 0x32
d0020a90:	e1a01004 	mov	r1, r4
d0020a94:	e1c3e3b2 	strh	lr, [r3, #50]	; 0x32
d0020a98:	e59f000c 	ldr	r0, [pc, #12]	; d0020aac <Hsmmc_WaitForBufferReadReady+0x70>
d0020a9c:	eb000bd4 	bl	d00239f4 <printf>
d0020aa0:	e1a00004 	mov	r0, r4
d0020aa4:	e8bd8010 	pop	{r4, pc}
d0020aa8:	eb200000 	bl	d0820ab0 <bss_end+0x7f9ff4>
d0020aac:	d00220b0 	strhle	r2, [r2], r0

d0020ab0 <Hsmmc_ReadBlock>:
d0020ab0:	e92d4ff0 	push	{r4, r5, r6, r7, r8, r9, sl, fp, lr}
d0020ab4:	e1a04000 	mov	r4, r0
d0020ab8:	e24dd00c 	sub	sp, sp, #12
d0020abc:	e1a09002 	mov	r9, r2
d0020ac0:	e59f02ec 	ldr	r0, [pc, #748]	; d0020db4 <Hsmmc_ReadBlock+0x304>
d0020ac4:	e58d1004 	str	r1, [sp, #4]
d0020ac8:	eb000bc9 	bl	d00239f4 <printf>
d0020acc:	e3540000 	cmp	r4, #0
d0020ad0:	13590000 	cmpne	r9, #0
d0020ad4:	13a03000 	movne	r3, #0
d0020ad8:	03a03001 	moveq	r3, #1
d0020adc:	03e0b000 	mvneq	fp, #0
d0020ae0:	0a0000ad 	beq	d0020d9c <Hsmmc_ReadBlock+0x2ec>
d0020ae4:	e59f22cc 	ldr	r2, [pc, #716]	; d0020db8 <Hsmmc_ReadBlock+0x308>
d0020ae8:	e58d3000 	str	r3, [sp]
d0020aec:	e1d203b0 	ldrh	r0, [r2, #48]	; 0x30
d0020af0:	e1c203b0 	strh	r0, [r2, #48]	; 0x30
d0020af4:	e1a05002 	mov	r5, r2
d0020af8:	e1d213b2 	ldrh	r1, [r2, #50]	; 0x32
d0020afc:	e1c213b2 	strh	r1, [r2, #50]	; 0x32
d0020b00:	e59fc2b4 	ldr	ip, [pc, #692]	; d0020dbc <Hsmmc_ReadBlock+0x30c>
d0020b04:	e59fb2b4 	ldr	fp, [pc, #692]	; d0020dc0 <Hsmmc_ReadBlock+0x310>
d0020b08:	e159000c 	cmp	r9, ip
d0020b0c:	e5db3000 	ldrb	r3, [fp]
d0020b10:	859f22a4 	ldrhi	r2, [pc, #676]	; d0020dbc <Hsmmc_ReadBlock+0x30c>
d0020b14:	91a02809 	lslls	r2, r9, #16
d0020b18:	82499cff 	subhi	r9, r9, #65280	; 0xff00
d0020b1c:	91a0a009 	movls	sl, r9
d0020b20:	91a02822 	lsrls	r2, r2, #16
d0020b24:	93a09000 	movls	r9, #0
d0020b28:	824990ff 	subhi	r9, r9, #255	; 0xff
d0020b2c:	81a0a002 	movhi	sl, r2
d0020b30:	e3530003 	cmp	r3, #3
d0020b34:	e3a01c72 	mov	r1, #29184	; 0x7200
d0020b38:	059d3004 	ldreq	r3, [sp, #4]
d0020b3c:	e1c510b4 	strh	r1, [r5, #4]
d0020b40:	058d3000 	streq	r3, [sp]
d0020b44:	e1c520b6 	strh	r2, [r5, #6]
d0020b48:	0a000004 	beq	d0020b60 <Hsmmc_ReadBlock+0xb0>
d0020b4c:	e2432001 	sub	r2, r3, #1
d0020b50:	e3520001 	cmp	r2, #1
d0020b54:	959d1004 	ldrls	r1, [sp, #4]
d0020b58:	91a01481 	lslls	r1, r1, #9
d0020b5c:	958d1000 	strls	r1, [sp]
d0020b60:	e35a0001 	cmp	sl, #1
d0020b64:	e59de000 	ldr	lr, [sp]
d0020b68:	e585e008 	str	lr, [r5, #8]
d0020b6c:	13a0e036 	movne	lr, #54	; 0x36
d0020b70:	03a01012 	moveq	r1, #18
d0020b74:	11c5e0bc 	strhne	lr, [r5, #12]
d0020b78:	059fe244 	ldreq	lr, [pc, #580]	; d0020dc4 <Hsmmc_ReadBlock+0x314>
d0020b7c:	159fe244 	ldrne	lr, [pc, #580]	; d0020dc8 <Hsmmc_ReadBlock+0x318>
d0020b80:	01c510bc 	strheq	r1, [r5, #12]
d0020b84:	11c5e0be 	strhne	lr, [r5, #14]
d0020b88:	01c5e0be 	strheq	lr, [r5, #14]
d0020b8c:	ebffff48 	bl	d00208b4 <Hsmmc_WaitForCommandDone>
d0020b90:	e1a0b000 	mov	fp, r0
d0020b94:	e1a01000 	mov	r1, r0
d0020b98:	e59f022c 	ldr	r0, [pc, #556]	; d0020dcc <Hsmmc_ReadBlock+0x31c>
d0020b9c:	eb000b94 	bl	d00239f4 <printf>
d0020ba0:	e35b0000 	cmp	fp, #0
d0020ba4:	1a00007f 	bne	d0020da8 <Hsmmc_ReadBlock+0x2f8>
d0020ba8:	e1a07004 	mov	r7, r4
d0020bac:	e1a0800b 	mov	r8, fp
d0020bb0:	e2846c02 	add	r6, r4, #512	; 0x200
d0020bb4:	ebffffa0 	bl	d0020a3c <Hsmmc_WaitForBufferReadReady>
d0020bb8:	e1a0b000 	mov	fp, r0
d0020bbc:	e1a01000 	mov	r1, r0
d0020bc0:	e59f0208 	ldr	r0, [pc, #520]	; d0020dd0 <Hsmmc_ReadBlock+0x320>
d0020bc4:	eb000b8a 	bl	d00239f4 <printf>
d0020bc8:	e35b0000 	cmp	fp, #0
d0020bcc:	1a000072 	bne	d0020d9c <Hsmmc_ReadBlock+0x2ec>
d0020bd0:	e3170003 	tst	r7, #3
d0020bd4:	1a000030 	bne	d0020c9c <Hsmmc_ReadBlock+0x1ec>
d0020bd8:	e595b020 	ldr	fp, [r5, #32]
d0020bdc:	e1a04007 	mov	r4, r7
d0020be0:	e0671006 	rsb	r1, r7, r6
d0020be4:	e587b000 	str	fp, [r7]
d0020be8:	e2410004 	sub	r0, r1, #4
d0020bec:	e5f41004 	ldrb	r1, [r4, #4]!
d0020bf0:	e1a03120 	lsr	r3, r0, #2
d0020bf4:	e59f01d8 	ldr	r0, [pc, #472]	; d0020dd4 <Hsmmc_ReadBlock+0x324>
d0020bf8:	e203b001 	and	fp, r3, #1
d0020bfc:	eb000b7c 	bl	d00239f4 <printf>
d0020c00:	e1540006 	cmp	r4, r6
d0020c04:	0a000011 	beq	d0020c50 <Hsmmc_ReadBlock+0x1a0>
d0020c08:	e35b0000 	cmp	fp, #0
d0020c0c:	15951020 	ldrne	r1, [r5, #32]
d0020c10:	15841000 	strne	r1, [r4]
d0020c14:	1a000008 	bne	d0020c3c <Hsmmc_ReadBlock+0x18c>
d0020c18:	e5952020 	ldr	r2, [r5, #32]
d0020c1c:	e1a0b004 	mov	fp, r4
d0020c20:	e5842000 	str	r2, [r4]
d0020c24:	e59f01a8 	ldr	r0, [pc, #424]	; d0020dd4 <Hsmmc_ReadBlock+0x324>
d0020c28:	e5fb1004 	ldrb	r1, [fp, #4]!
d0020c2c:	eb000b70 	bl	d00239f4 <printf>
d0020c30:	e595c020 	ldr	ip, [r5, #32]
d0020c34:	e584c004 	str	ip, [r4, #4]
d0020c38:	e1a0400b 	mov	r4, fp
d0020c3c:	e5f41004 	ldrb	r1, [r4, #4]!
d0020c40:	e59f018c 	ldr	r0, [pc, #396]	; d0020dd4 <Hsmmc_ReadBlock+0x324>
d0020c44:	eb000b6a 	bl	d00239f4 <printf>
d0020c48:	e1540006 	cmp	r4, r6
d0020c4c:	1afffff1 	bne	d0020c18 <Hsmmc_ReadBlock+0x168>
d0020c50:	e2888001 	add	r8, r8, #1
d0020c54:	e15a0008 	cmp	sl, r8
d0020c58:	e1a04006 	mov	r4, r6
d0020c5c:	e2877c02 	add	r7, r7, #512	; 0x200
d0020c60:	e2866c02 	add	r6, r6, #512	; 0x200
d0020c64:	8affffd2 	bhi	d0020bb4 <Hsmmc_ReadBlock+0x104>
d0020c68:	ebffff42 	bl	d0020978 <Hsmmc_WaitForTransferDone>
d0020c6c:	e1a0b000 	mov	fp, r0
d0020c70:	e1a01000 	mov	r1, r0
d0020c74:	e59f015c 	ldr	r0, [pc, #348]	; d0020dd8 <Hsmmc_ReadBlock+0x328>
d0020c78:	eb000b5d 	bl	d00239f4 <printf>
d0020c7c:	e35b0000 	cmp	fp, #0
d0020c80:	1a000043 	bne	d0020d94 <Hsmmc_ReadBlock+0x2e4>
d0020c84:	e3590000 	cmp	r9, #0
d0020c88:	0a000043 	beq	d0020d9c <Hsmmc_ReadBlock+0x2ec>
d0020c8c:	e59dc004 	ldr	ip, [sp, #4]
d0020c90:	e08cb00a 	add	fp, ip, sl
d0020c94:	e58db004 	str	fp, [sp, #4]
d0020c98:	eaffff98 	b	d0020b00 <Hsmmc_ReadBlock+0x50>
d0020c9c:	e5953020 	ldr	r3, [r5, #32]
d0020ca0:	e1a04007 	mov	r4, r7
d0020ca4:	e1a01823 	lsr	r1, r3, #16
d0020ca8:	e1a0cc23 	lsr	ip, r3, #24
d0020cac:	e1a02423 	lsr	r2, r3, #8
d0020cb0:	e067b006 	rsb	fp, r7, r6
d0020cb4:	e24b0004 	sub	r0, fp, #4
d0020cb8:	e5c72001 	strb	r2, [r7, #1]
d0020cbc:	e5c71002 	strb	r1, [r7, #2]
d0020cc0:	e5c7c003 	strb	ip, [r7, #3]
d0020cc4:	e5c73000 	strb	r3, [r7]
d0020cc8:	e5f41004 	ldrb	r1, [r4, #4]!
d0020ccc:	e1a0e120 	lsr	lr, r0, #2
d0020cd0:	e59f0104 	ldr	r0, [pc, #260]	; d0020ddc <Hsmmc_ReadBlock+0x32c>
d0020cd4:	e20eb001 	and	fp, lr, #1
d0020cd8:	eb000b45 	bl	d00239f4 <printf>
d0020cdc:	e1540006 	cmp	r4, r6
d0020ce0:	0affffda 	beq	d0020c50 <Hsmmc_ReadBlock+0x1a0>
d0020ce4:	e35b0000 	cmp	fp, #0
d0020ce8:	0a000008 	beq	d0020d10 <Hsmmc_ReadBlock+0x260>
d0020cec:	e5953020 	ldr	r3, [r5, #32]
d0020cf0:	e5c43000 	strb	r3, [r4]
d0020cf4:	e1a0ec23 	lsr	lr, r3, #24
d0020cf8:	e1a00423 	lsr	r0, r3, #8
d0020cfc:	e1a02823 	lsr	r2, r3, #16
d0020d00:	e5c40001 	strb	r0, [r4, #1]
d0020d04:	e5c42002 	strb	r2, [r4, #2]
d0020d08:	e5c4e003 	strb	lr, [r4, #3]
d0020d0c:	ea000014 	b	d0020d64 <Hsmmc_ReadBlock+0x2b4>
d0020d10:	e595e020 	ldr	lr, [r5, #32]
d0020d14:	e1a0b004 	mov	fp, r4
d0020d18:	e1a0042e 	lsr	r0, lr, #8
d0020d1c:	e1a0382e 	lsr	r3, lr, #16
d0020d20:	e1a02c2e 	lsr	r2, lr, #24
d0020d24:	e5c40001 	strb	r0, [r4, #1]
d0020d28:	e5c43002 	strb	r3, [r4, #2]
d0020d2c:	e5c42003 	strb	r2, [r4, #3]
d0020d30:	e5c4e000 	strb	lr, [r4]
d0020d34:	e59f00a0 	ldr	r0, [pc, #160]	; d0020ddc <Hsmmc_ReadBlock+0x32c>
d0020d38:	e5fb1004 	ldrb	r1, [fp, #4]!
d0020d3c:	eb000b2c 	bl	d00239f4 <printf>
d0020d40:	e5951020 	ldr	r1, [r5, #32]
d0020d44:	e5c41004 	strb	r1, [r4, #4]
d0020d48:	e1a00c21 	lsr	r0, r1, #24
d0020d4c:	e1a0c421 	lsr	ip, r1, #8
d0020d50:	e1a03821 	lsr	r3, r1, #16
d0020d54:	e1a0400b 	mov	r4, fp
d0020d58:	e5cbc001 	strb	ip, [fp, #1]
d0020d5c:	e5cb3002 	strb	r3, [fp, #2]
d0020d60:	e5cb0003 	strb	r0, [fp, #3]
d0020d64:	e5f41004 	ldrb	r1, [r4, #4]!
d0020d68:	e59f006c 	ldr	r0, [pc, #108]	; d0020ddc <Hsmmc_ReadBlock+0x32c>
d0020d6c:	eb000b20 	bl	d00239f4 <printf>
d0020d70:	e1540006 	cmp	r4, r6
d0020d74:	1affffe5 	bne	d0020d10 <Hsmmc_ReadBlock+0x260>
d0020d78:	e2888001 	add	r8, r8, #1
d0020d7c:	e15a0008 	cmp	sl, r8
d0020d80:	e1a04006 	mov	r4, r6
d0020d84:	e2877c02 	add	r7, r7, #512	; 0x200
d0020d88:	e2866c02 	add	r6, r6, #512	; 0x200
d0020d8c:	8affff88 	bhi	d0020bb4 <Hsmmc_ReadBlock+0x104>
d0020d90:	eaffffb4 	b	d0020c68 <Hsmmc_ReadBlock+0x1b8>
d0020d94:	e59f0044 	ldr	r0, [pc, #68]	; d0020de0 <Hsmmc_ReadBlock+0x330>
d0020d98:	eb000b15 	bl	d00239f4 <printf>
d0020d9c:	e1a0000b 	mov	r0, fp
d0020da0:	e28dd00c 	add	sp, sp, #12
d0020da4:	e8bd8ff0 	pop	{r4, r5, r6, r7, r8, r9, sl, fp, pc}
d0020da8:	e59f0034 	ldr	r0, [pc, #52]	; d0020de4 <Hsmmc_ReadBlock+0x334>
d0020dac:	eb000b10 	bl	d00239f4 <printf>
d0020db0:	eafffff9 	b	d0020d9c <Hsmmc_ReadBlock+0x2ec>
d0020db4:	d00220d8 	ldrdle	r2, [r2], -r8
d0020db8:	eb200000 	bl	d0820dc0 <bss_end+0x7fa304>
d0020dbc:	0000ffff 	strdeq	pc, [r0], -pc
d0020dc0:	d0022058 	andle	r2, r2, r8, asr r0
d0020dc4:	0000113a 	andeq	r1, r0, sl, lsr r1
d0020dc8:	0000123a 	andeq	r1, r0, sl, lsr r2
d0020dcc:	d00220ec 	andle	r2, r2, ip, ror #1
d0020dd0:	d0022124 	andle	r2, r2, r4, lsr #2
d0020dd4:	d0022148 	andle	r2, r2, r8, asr #2
d0020dd8:	d0022178 	andle	r2, r2, r8, ror r1
d0020ddc:	d0022160 	andle	r2, r2, r0, ror #2
d0020de0:	d0022198 	mulle	r2, r8, r1
d0020de4:	d002210c 	andle	r2, r2, ip, lsl #2

d0020de8 <Hsmmc_Switch>:
d0020de8:	e92d4070 	push	{r4, r5, r6, lr}
d0020dec:	e1a06f80 	lsl	r6, r0, #31
d0020df0:	e1e00c26 	mvn	r0, r6, lsr #24
d0020df4:	e1a05101 	lsl	r5, r1, #2
d0020df8:	e1e0ec00 	mvn	lr, r0, lsl #24
d0020dfc:	e3a0c00f 	mov	ip, #15
d0020e00:	e1ce451c 	bic	r4, lr, ip, lsl r5
d0020e04:	e1846512 	orr	r6, r4, r2, lsl r5
d0020e08:	e59f4270 	ldr	r4, [pc, #624]	; d0021080 <Hsmmc_Switch+0x298>
d0020e0c:	e59f2270 	ldr	r2, [pc, #624]	; d0021084 <Hsmmc_Switch+0x29c>
d0020e10:	e3a01001 	mov	r1, #1
d0020e14:	e3a00012 	mov	r0, #18
d0020e18:	e1a05003 	mov	r5, r3
d0020e1c:	e59f3264 	ldr	r3, [pc, #612]	; d0021088 <Hsmmc_Switch+0x2a0>
d0020e20:	e1c420b4 	strh	r2, [r4, #4]
d0020e24:	e1c410b6 	strh	r1, [r4, #6]
d0020e28:	e5846008 	str	r6, [r4, #8]
d0020e2c:	e1c400bc 	strh	r0, [r4, #12]
d0020e30:	e1c430be 	strh	r3, [r4, #14]
d0020e34:	ebfffe9e 	bl	d00208b4 <Hsmmc_WaitForCommandDone>
d0020e38:	e2506000 	subs	r6, r0, #0
d0020e3c:	1a000087 	bne	d0021060 <Hsmmc_Switch+0x278>
d0020e40:	ebfffefd 	bl	d0020a3c <Hsmmc_WaitForBufferReadReady>
d0020e44:	e2506000 	subs	r6, r0, #0
d0020e48:	1a000082 	bne	d0021058 <Hsmmc_Switch+0x270>
d0020e4c:	e5943020 	ldr	r3, [r4, #32]
d0020e50:	e5c5303f 	strb	r3, [r5, #63]	; 0x3f
d0020e54:	e1a06c43 	asr	r6, r3, #24
d0020e58:	e1a0e443 	asr	lr, r3, #8
d0020e5c:	e1a02843 	asr	r2, r3, #16
d0020e60:	e5c5e03e 	strb	lr, [r5, #62]	; 0x3e
d0020e64:	e5c5203d 	strb	r2, [r5, #61]	; 0x3d
d0020e68:	e5c5603c 	strb	r6, [r5, #60]	; 0x3c
d0020e6c:	e5940020 	ldr	r0, [r4, #32]
d0020e70:	e5c5003b 	strb	r0, [r5, #59]	; 0x3b
d0020e74:	e1a0ec40 	asr	lr, r0, #24
d0020e78:	e1a01440 	asr	r1, r0, #8
d0020e7c:	e1a0c840 	asr	ip, r0, #16
d0020e80:	e5c5103a 	strb	r1, [r5, #58]	; 0x3a
d0020e84:	e5c5e038 	strb	lr, [r5, #56]	; 0x38
d0020e88:	e5c5c039 	strb	ip, [r5, #57]	; 0x39
d0020e8c:	e5943020 	ldr	r3, [r4, #32]
d0020e90:	e5c53037 	strb	r3, [r5, #55]	; 0x37
d0020e94:	e1a00c43 	asr	r0, r3, #24
d0020e98:	e1a02443 	asr	r2, r3, #8
d0020e9c:	e1a06843 	asr	r6, r3, #16
d0020ea0:	e5c52036 	strb	r2, [r5, #54]	; 0x36
d0020ea4:	e5c56035 	strb	r6, [r5, #53]	; 0x35
d0020ea8:	e5c50034 	strb	r0, [r5, #52]	; 0x34
d0020eac:	e594c020 	ldr	ip, [r4, #32]
d0020eb0:	e5c5c033 	strb	ip, [r5, #51]	; 0x33
d0020eb4:	e1a02c4c 	asr	r2, ip, #24
d0020eb8:	e1a0144c 	asr	r1, ip, #8
d0020ebc:	e1a0e84c 	asr	lr, ip, #16
d0020ec0:	e5c51032 	strb	r1, [r5, #50]	; 0x32
d0020ec4:	e5c52030 	strb	r2, [r5, #48]	; 0x30
d0020ec8:	e5c5e031 	strb	lr, [r5, #49]	; 0x31
d0020ecc:	e5943020 	ldr	r3, [r4, #32]
d0020ed0:	e5c5302f 	strb	r3, [r5, #47]	; 0x2f
d0020ed4:	e1a0cc43 	asr	ip, r3, #24
d0020ed8:	e1a06443 	asr	r6, r3, #8
d0020edc:	e1a00843 	asr	r0, r3, #16
d0020ee0:	e5c5602e 	strb	r6, [r5, #46]	; 0x2e
d0020ee4:	e5c5002d 	strb	r0, [r5, #45]	; 0x2d
d0020ee8:	e5c5c02c 	strb	ip, [r5, #44]	; 0x2c
d0020eec:	e594e020 	ldr	lr, [r4, #32]
d0020ef0:	e5c5e02b 	strb	lr, [r5, #43]	; 0x2b
d0020ef4:	e1a06c4e 	asr	r6, lr, #24
d0020ef8:	e1a0144e 	asr	r1, lr, #8
d0020efc:	e1a0284e 	asr	r2, lr, #16
d0020f00:	e5c5102a 	strb	r1, [r5, #42]	; 0x2a
d0020f04:	e5c52029 	strb	r2, [r5, #41]	; 0x29
d0020f08:	e5c56028 	strb	r6, [r5, #40]	; 0x28
d0020f0c:	e5943020 	ldr	r3, [r4, #32]
d0020f10:	e5c53027 	strb	r3, [r5, #39]	; 0x27
d0020f14:	e1a0ec43 	asr	lr, r3, #24
d0020f18:	e1a00443 	asr	r0, r3, #8
d0020f1c:	e1a0c843 	asr	ip, r3, #16
d0020f20:	e5c50026 	strb	r0, [r5, #38]	; 0x26
d0020f24:	e5c5c025 	strb	ip, [r5, #37]	; 0x25
d0020f28:	e5c5e024 	strb	lr, [r5, #36]	; 0x24
d0020f2c:	e5942020 	ldr	r2, [r4, #32]
d0020f30:	e5c52023 	strb	r2, [r5, #35]	; 0x23
d0020f34:	e1a00c42 	asr	r0, r2, #24
d0020f38:	e1a01442 	asr	r1, r2, #8
d0020f3c:	e1a06842 	asr	r6, r2, #16
d0020f40:	e5c51022 	strb	r1, [r5, #34]	; 0x22
d0020f44:	e5c50020 	strb	r0, [r5, #32]
d0020f48:	e5c56021 	strb	r6, [r5, #33]	; 0x21
d0020f4c:	e5943020 	ldr	r3, [r4, #32]
d0020f50:	e5c5301f 	strb	r3, [r5, #31]
d0020f54:	e1a02c43 	asr	r2, r3, #24
d0020f58:	e1a0c443 	asr	ip, r3, #8
d0020f5c:	e1a0e843 	asr	lr, r3, #16
d0020f60:	e5c5c01e 	strb	ip, [r5, #30]
d0020f64:	e5c5e01d 	strb	lr, [r5, #29]
d0020f68:	e5c5201c 	strb	r2, [r5, #28]
d0020f6c:	e5946020 	ldr	r6, [r4, #32]
d0020f70:	e5c5601b 	strb	r6, [r5, #27]
d0020f74:	e1a0cc46 	asr	ip, r6, #24
d0020f78:	e1a01446 	asr	r1, r6, #8
d0020f7c:	e1a00846 	asr	r0, r6, #16
d0020f80:	e5c5101a 	strb	r1, [r5, #26]
d0020f84:	e5c5c018 	strb	ip, [r5, #24]
d0020f88:	e5c50019 	strb	r0, [r5, #25]
d0020f8c:	e5943020 	ldr	r3, [r4, #32]
d0020f90:	e5c53017 	strb	r3, [r5, #23]
d0020f94:	e1a06c43 	asr	r6, r3, #24
d0020f98:	e1a0e443 	asr	lr, r3, #8
d0020f9c:	e1a02843 	asr	r2, r3, #16
d0020fa0:	e5c5e016 	strb	lr, [r5, #22]
d0020fa4:	e5c52015 	strb	r2, [r5, #21]
d0020fa8:	e5c56014 	strb	r6, [r5, #20]
d0020fac:	e5940020 	ldr	r0, [r4, #32]
d0020fb0:	e5c50013 	strb	r0, [r5, #19]
d0020fb4:	e1a0ec40 	asr	lr, r0, #24
d0020fb8:	e1a01440 	asr	r1, r0, #8
d0020fbc:	e1a0c840 	asr	ip, r0, #16
d0020fc0:	e5c51012 	strb	r1, [r5, #18]
d0020fc4:	e5c5e010 	strb	lr, [r5, #16]
d0020fc8:	e5c5c011 	strb	ip, [r5, #17]
d0020fcc:	e5943020 	ldr	r3, [r4, #32]
d0020fd0:	e5c5300f 	strb	r3, [r5, #15]
d0020fd4:	e1a00c43 	asr	r0, r3, #24
d0020fd8:	e1a02443 	asr	r2, r3, #8
d0020fdc:	e1a06843 	asr	r6, r3, #16
d0020fe0:	e5c5200e 	strb	r2, [r5, #14]
d0020fe4:	e5c5600d 	strb	r6, [r5, #13]
d0020fe8:	e5c5000c 	strb	r0, [r5, #12]
d0020fec:	e594c020 	ldr	ip, [r4, #32]
d0020ff0:	e5c5c00b 	strb	ip, [r5, #11]
d0020ff4:	e1a02c4c 	asr	r2, ip, #24
d0020ff8:	e1a0144c 	asr	r1, ip, #8
d0020ffc:	e1a0e84c 	asr	lr, ip, #16
d0021000:	e5c5100a 	strb	r1, [r5, #10]
d0021004:	e5c52008 	strb	r2, [r5, #8]
d0021008:	e5c5e009 	strb	lr, [r5, #9]
d002100c:	e5943020 	ldr	r3, [r4, #32]
d0021010:	e5c53007 	strb	r3, [r5, #7]
d0021014:	e1a0cc43 	asr	ip, r3, #24
d0021018:	e1a06443 	asr	r6, r3, #8
d002101c:	e1a00843 	asr	r0, r3, #16
d0021020:	e5c56006 	strb	r6, [r5, #6]
d0021024:	e5c50005 	strb	r0, [r5, #5]
d0021028:	e5c5c004 	strb	ip, [r5, #4]
d002102c:	e594e020 	ldr	lr, [r4, #32]
d0021030:	e5c5e003 	strb	lr, [r5, #3]
d0021034:	e1a01c4e 	asr	r1, lr, #24
d0021038:	e1a0244e 	asr	r2, lr, #8
d002103c:	e1a0384e 	asr	r3, lr, #16
d0021040:	e5c51000 	strb	r1, [r5]
d0021044:	e5c52002 	strb	r2, [r5, #2]
d0021048:	e5c53001 	strb	r3, [r5, #1]
d002104c:	ebfffe49 	bl	d0020978 <Hsmmc_WaitForTransferDone>
d0021050:	e2506000 	subs	r6, r0, #0
d0021054:	1a000005 	bne	d0021070 <Hsmmc_Switch+0x288>
d0021058:	e1a00006 	mov	r0, r6
d002105c:	e8bd8070 	pop	{r4, r5, r6, pc}
d0021060:	e59f0024 	ldr	r0, [pc, #36]	; d002108c <Hsmmc_Switch+0x2a4>
d0021064:	eb000a62 	bl	d00239f4 <printf>
d0021068:	e1a00006 	mov	r0, r6
d002106c:	e8bd8070 	pop	{r4, r5, r6, pc}
d0021070:	e59f0018 	ldr	r0, [pc, #24]	; d0021090 <Hsmmc_Switch+0x2a8>
d0021074:	eb000a5e 	bl	d00239f4 <printf>
d0021078:	e1a00006 	mov	r0, r6
d002107c:	e8bd8070 	pop	{r4, r5, r6, pc}
d0021080:	eb200000 	bl	d0821088 <bss_end+0x7fa5cc>
d0021084:	00007040 	andeq	r7, r0, r0, asr #32
d0021088:	0000063a 	andeq	r0, r0, sl, lsr r6
d002108c:	d00221ac 	andle	r2, r2, ip, lsr #3
d0021090:	d00221bc 	strhle	r2, [r2], -ip

d0021094 <T.40>:
d0021094:	e92d4038 	push	{r3, r4, r5, lr}
d0021098:	e1a04000 	mov	r4, r0
d002109c:	e59f3130 	ldr	r3, [pc, #304]	; d00211d4 <T.40+0x140>
d00210a0:	e3a00000 	mov	r0, #0
d00210a4:	ea000005 	b	d00210c0 <T.40+0x2c>
d00210a8:	e5935024 	ldr	r5, [r3, #36]	; 0x24
d00210ac:	e3150001 	tst	r5, #1
d00210b0:	0a000006 	beq	d00210d0 <T.40+0x3c>
d00210b4:	e2800001 	add	r0, r0, #1
d00210b8:	e3500401 	cmp	r0, #16777216	; 0x1000000
d00210bc:	0a00003d 	beq	d00211b8 <T.40+0x124>
d00210c0:	e593c024 	ldr	ip, [r3, #36]	; 0x24
d00210c4:	e2800001 	add	r0, r0, #1
d00210c8:	e31c0001 	tst	ip, #1
d00210cc:	1afffff5 	bne	d00210a8 <T.40+0x14>
d00210d0:	e3520008 	cmp	r2, #8
d00210d4:	0a00001f 	beq	d0021158 <T.40+0xc4>
d00210d8:	e59f50f4 	ldr	r5, [pc, #244]	; d00211d4 <T.40+0x140>
d00210dc:	e3540012 	cmp	r4, #18
d00210e0:	e1a03404 	lsl	r3, r4, #8
d00210e4:	e2422001 	sub	r2, r2, #1
d00210e8:	e5851008 	str	r1, [r5, #8]
d00210ec:	038330c0 	orreq	r3, r3, #192	; 0xc0
d00210f0:	e3520007 	cmp	r2, #7
d00210f4:	979ff102 	ldrls	pc, [pc, r2, lsl #2]
d00210f8:	ea000008 	b	d0021120 <T.40+0x8c>
d00210fc:	d00211a8 	andle	r1, r2, r8, lsr #3
d0021100:	d00211b0 	strhle	r1, [r2], -r0
d0021104:	d00211a0 	andle	r1, r2, r0, lsr #3
d0021108:	d00211a0 	andle	r1, r2, r0, lsr #3
d002110c:	d00211a8 	andle	r1, r2, r8, lsr #3
d0021110:	d00211a8 	andle	r1, r2, r8, lsr #3
d0021114:	d00211a8 	andle	r1, r2, r8, lsr #3
d0021118:	d002111c 	andle	r1, r2, ip, lsl r1
d002111c:	e383301b 	orr	r3, r3, #27
d0021120:	e1a0e803 	lsl	lr, r3, #16
d0021124:	e59f10a8 	ldr	r1, [pc, #168]	; d00211d4 <T.40+0x140>
d0021128:	e1a0382e 	lsr	r3, lr, #16
d002112c:	e1c130be 	strh	r3, [r1, #14]
d0021130:	ebfffddf 	bl	d00208b4 <Hsmmc_WaitForCommandDone>
d0021134:	e2505000 	subs	r5, r0, #0
d0021138:	1a000001 	bne	d0021144 <T.40+0xb0>
d002113c:	e1a00005 	mov	r0, r5
d0021140:	e8bd8038 	pop	{r3, r4, r5, pc}
d0021144:	e1a01004 	mov	r1, r4
d0021148:	e59f0088 	ldr	r0, [pc, #136]	; d00211d8 <T.40+0x144>
d002114c:	eb000a28 	bl	d00239f4 <printf>
d0021150:	e1a00005 	mov	r0, r5
d0021154:	e8bd8038 	pop	{r3, r4, r5, pc}
d0021158:	e59f0074 	ldr	r0, [pc, #116]	; d00211d4 <T.40+0x140>
d002115c:	e3a03000 	mov	r3, #0
d0021160:	e590e024 	ldr	lr, [r0, #36]	; 0x24
d0021164:	e2833001 	add	r3, r3, #1
d0021168:	e31e0002 	tst	lr, #2
d002116c:	0affffd9 	beq	d00210d8 <T.40+0x44>
d0021170:	e590c024 	ldr	ip, [r0, #36]	; 0x24
d0021174:	e31c0002 	tst	ip, #2
d0021178:	0affffd6 	beq	d00210d8 <T.40+0x44>
d002117c:	e2833001 	add	r3, r3, #1
d0021180:	e3530201 	cmp	r3, #268435456	; 0x10000000
d0021184:	1afffff5 	bne	d0021160 <T.40+0xcc>
d0021188:	e59f0044 	ldr	r0, [pc, #68]	; d00211d4 <T.40+0x140>
d002118c:	e3e05001 	mvn	r5, #1
d0021190:	e5901024 	ldr	r1, [r0, #36]	; 0x24
d0021194:	e59f0040 	ldr	r0, [pc, #64]	; d00211dc <T.40+0x148>
d0021198:	eb000a15 	bl	d00239f4 <printf>
d002119c:	eaffffe6 	b	d002113c <T.40+0xa8>
d00211a0:	e3833002 	orr	r3, r3, #2
d00211a4:	eaffffdd 	b	d0021120 <T.40+0x8c>
d00211a8:	e383301a 	orr	r3, r3, #26
d00211ac:	eaffffdb 	b	d0021120 <T.40+0x8c>
d00211b0:	e3833009 	orr	r3, r3, #9
d00211b4:	eaffffd9 	b	d0021120 <T.40+0x8c>
d00211b8:	e59f3014 	ldr	r3, [pc, #20]	; d00211d4 <T.40+0x140>
d00211bc:	e3e05000 	mvn	r5, #0
d00211c0:	e5931024 	ldr	r1, [r3, #36]	; 0x24
d00211c4:	e59f0014 	ldr	r0, [pc, #20]	; d00211e0 <T.40+0x14c>
d00211c8:	eb000a09 	bl	d00239f4 <printf>
d00211cc:	e1a00005 	mov	r0, r5
d00211d0:	e8bd8038 	pop	{r3, r4, r5, pc}
d00211d4:	eb200000 	bl	d08211dc <bss_end+0x7fa720>
d00211d8:	d002221c 	andle	r2, r2, ip, lsl r2
d00211dc:	d00221f8 	strdle	r2, [r2], -r8
d00211e0:	d00221d4 	ldrdle	r2, [r2], -r4

d00211e4 <Hsmmc_Get_SCR>:
d00211e4:	e92d4070 	push	{r4, r5, r6, lr}
d00211e8:	e59f40cc 	ldr	r4, [pc, #204]	; d00212bc <Hsmmc_Get_SCR+0xd8>
d00211ec:	e3a02001 	mov	r2, #1
d00211f0:	e594c004 	ldr	ip, [r4, #4]
d00211f4:	e1a05000 	mov	r5, r0
d00211f8:	e59f40c0 	ldr	r4, [pc, #192]	; d00212c0 <Hsmmc_Get_SCR+0xdc>
d00211fc:	e1a0180c 	lsl	r1, ip, #16
d0021200:	e3a00037 	mov	r0, #55	; 0x37
d0021204:	ebffffa2 	bl	d0021094 <T.40>
d0021208:	e59f60b4 	ldr	r6, [pc, #180]	; d00212c4 <Hsmmc_Get_SCR+0xe0>
d002120c:	e3a02001 	mov	r2, #1
d0021210:	e3a01000 	mov	r1, #0
d0021214:	e3a00012 	mov	r0, #18
d0021218:	e59f30a8 	ldr	r3, [pc, #168]	; d00212c8 <Hsmmc_Get_SCR+0xe4>
d002121c:	e1c460b4 	strh	r6, [r4, #4]
d0021220:	e1c420b6 	strh	r2, [r4, #6]
d0021224:	e5841008 	str	r1, [r4, #8]
d0021228:	e1c400bc 	strh	r0, [r4, #12]
d002122c:	e1c430be 	strh	r3, [r4, #14]
d0021230:	ebfffd9f 	bl	d00208b4 <Hsmmc_WaitForCommandDone>
d0021234:	e2506000 	subs	r6, r0, #0
d0021238:	1a000017 	bne	d002129c <Hsmmc_Get_SCR+0xb8>
d002123c:	ebfffdfe 	bl	d0020a3c <Hsmmc_WaitForBufferReadReady>
d0021240:	e2506000 	subs	r6, r0, #0
d0021244:	1a000012 	bne	d0021294 <Hsmmc_Get_SCR+0xb0>
d0021248:	e594e020 	ldr	lr, [r4, #32]
d002124c:	e5c5e007 	strb	lr, [r5, #7]
d0021250:	e1a02c2e 	lsr	r2, lr, #24
d0021254:	e1a0c42e 	lsr	ip, lr, #8
d0021258:	e1a0682e 	lsr	r6, lr, #16
d002125c:	e5c56005 	strb	r6, [r5, #5]
d0021260:	e5c5c006 	strb	ip, [r5, #6]
d0021264:	e5c52004 	strb	r2, [r5, #4]
d0021268:	e5943020 	ldr	r3, [r4, #32]
d002126c:	e5c53003 	strb	r3, [r5, #3]
d0021270:	e1a01c23 	lsr	r1, r3, #24
d0021274:	e1a00423 	lsr	r0, r3, #8
d0021278:	e1a0e823 	lsr	lr, r3, #16
d002127c:	e5c51000 	strb	r1, [r5]
d0021280:	e5c50002 	strb	r0, [r5, #2]
d0021284:	e5c5e001 	strb	lr, [r5, #1]
d0021288:	ebfffdba 	bl	d0020978 <Hsmmc_WaitForTransferDone>
d002128c:	e2506000 	subs	r6, r0, #0
d0021290:	1a000005 	bne	d00212ac <Hsmmc_Get_SCR+0xc8>
d0021294:	e1a00006 	mov	r0, r6
d0021298:	e8bd8070 	pop	{r4, r5, r6, pc}
d002129c:	e59f0028 	ldr	r0, [pc, #40]	; d00212cc <Hsmmc_Get_SCR+0xe8>
d00212a0:	eb0009d3 	bl	d00239f4 <printf>
d00212a4:	e1a00006 	mov	r0, r6
d00212a8:	e8bd8070 	pop	{r4, r5, r6, pc}
d00212ac:	e59f001c 	ldr	r0, [pc, #28]	; d00212d0 <Hsmmc_Get_SCR+0xec>
d00212b0:	eb0009cf 	bl	d00239f4 <printf>
d00212b4:	e1a00006 	mov	r0, r6
d00212b8:	e8bd8070 	pop	{r4, r5, r6, pc}
d00212bc:	d0022058 	andle	r2, r2, r8, asr r0
d00212c0:	eb200000 	bl	d08212c8 <bss_end+0x7fa80c>
d00212c4:	00007008 	andeq	r7, r0, r8
d00212c8:	0000333a 	andeq	r3, r0, sl, lsr r3
d00212cc:	d002222c 	andle	r2, r2, ip, lsr #4
d00212d0:	d002223c 	andle	r2, r2, ip, lsr r2

d00212d4 <Hsmmc_GetCardState>:
d00212d4:	e92d4008 	push	{r3, lr}
d00212d8:	e59f302c 	ldr	r3, [pc, #44]	; d002130c <Hsmmc_GetCardState+0x38>
d00212dc:	e3a02001 	mov	r2, #1
d00212e0:	e5931004 	ldr	r1, [r3, #4]
d00212e4:	e3a0000d 	mov	r0, #13
d00212e8:	e1a01801 	lsl	r1, r1, #16
d00212ec:	ebffff68 	bl	d0021094 <T.40>
d00212f0:	e3500000 	cmp	r0, #0
d00212f4:	059f3014 	ldreq	r3, [pc, #20]	; d0021310 <Hsmmc_GetCardState+0x3c>
d00212f8:	13e00000 	mvnne	r0, #0
d00212fc:	05930010 	ldreq	r0, [r3, #16]
d0021300:	01a004a0 	lsreq	r0, r0, #9
d0021304:	0200000f 	andeq	r0, r0, #15
d0021308:	e8bd8008 	pop	{r3, pc}
d002130c:	d0022058 	andle	r2, r2, r8, asr r0
d0021310:	eb200000 	bl	d0821318 <bss_end+0x7fa85c>

d0021314 <Hsmmc_Get_CSD>:
d0021314:	e92d4ff0 	push	{r4, r5, r6, r7, r8, r9, sl, fp, lr}
d0021318:	e59f41fc 	ldr	r4, [pc, #508]	; d002151c <Hsmmc_Get_CSD+0x208>
d002131c:	e24dd054 	sub	sp, sp, #84	; 0x54
d0021320:	e5d43000 	ldrb	r3, [r4]
d0021324:	e58d0010 	str	r0, [sp, #16]
d0021328:	e3530001 	cmp	r3, #1
d002132c:	13530003 	cmpne	r3, #3
d0021330:	0a000005 	beq	d002134c <Hsmmc_Get_CSD+0x38>
d0021334:	e3530002 	cmp	r3, #2
d0021338:	0a000003 	beq	d002134c <Hsmmc_Get_CSD+0x38>
d002133c:	e3e05000 	mvn	r5, #0
d0021340:	e1a00005 	mov	r0, r5
d0021344:	e28dd054 	add	sp, sp, #84	; 0x54
d0021348:	e8bd8ff0 	pop	{r4, r5, r6, r7, r8, r9, sl, fp, pc}
d002134c:	e3a01000 	mov	r1, #0
d0021350:	e3a00007 	mov	r0, #7
d0021354:	e1a02001 	mov	r2, r1
d0021358:	ebffff4d 	bl	d0021094 <T.40>
d002135c:	e3a05000 	mov	r5, #0
d0021360:	ea000004 	b	d0021378 <Hsmmc_Get_CSD+0x64>
d0021364:	ebffffda 	bl	d00212d4 <Hsmmc_GetCardState>
d0021368:	e3500003 	cmp	r0, #3
d002136c:	0a000006 	beq	d002138c <Hsmmc_Get_CSD+0x78>
d0021370:	e3550ffa 	cmp	r5, #1000	; 0x3e8
d0021374:	0afffff0 	beq	d002133c <Hsmmc_Get_CSD+0x28>
d0021378:	ebffffd5 	bl	d00212d4 <Hsmmc_GetCardState>
d002137c:	e2855001 	add	r5, r5, #1
d0021380:	e2855001 	add	r5, r5, #1
d0021384:	e3500003 	cmp	r0, #3
d0021388:	1afffff5 	bne	d0021364 <Hsmmc_Get_CSD+0x50>
d002138c:	e5941004 	ldr	r1, [r4, #4]
d0021390:	e3a00009 	mov	r0, #9
d0021394:	e1a01801 	lsl	r1, r1, #16
d0021398:	e3a02002 	mov	r2, #2
d002139c:	ebffff3c 	bl	d0021094 <T.40>
d00213a0:	e3500000 	cmp	r0, #0
d00213a4:	e58d0014 	str	r0, [sp, #20]
d00213a8:	13e05000 	mvnne	r5, #0
d00213ac:	0a000005 	beq	d00213c8 <Hsmmc_Get_CSD+0xb4>
d00213b0:	e5940004 	ldr	r0, [r4, #4]
d00213b4:	e3a02001 	mov	r2, #1
d00213b8:	e1a01800 	lsl	r1, r0, #16
d00213bc:	e3a00007 	mov	r0, #7
d00213c0:	ebffff33 	bl	d0021094 <T.40>
d00213c4:	eaffffdd 	b	d0021340 <Hsmmc_Get_CSD+0x2c>
d00213c8:	e59d6010 	ldr	r6, [sp, #16]
d00213cc:	e59f314c 	ldr	r3, [pc, #332]	; d0021520 <Hsmmc_Get_CSD+0x20c>
d00213d0:	e2869001 	add	r9, r6, #1
d00213d4:	e289a001 	add	sl, r9, #1
d00213d8:	e28a8001 	add	r8, sl, #1
d00213dc:	e2887001 	add	r7, r8, #1
d00213e0:	e2876001 	add	r6, r7, #1
d00213e4:	e2865001 	add	r5, r6, #1
d00213e8:	e285e001 	add	lr, r5, #1
d00213ec:	e28ec001 	add	ip, lr, #1
d00213f0:	e28c0001 	add	r0, ip, #1
d00213f4:	e2802001 	add	r2, r0, #1
d00213f8:	e58d2004 	str	r2, [sp, #4]
d00213fc:	e59db004 	ldr	fp, [sp, #4]
d0021400:	e5931010 	ldr	r1, [r3, #16]
d0021404:	e28b2001 	add	r2, fp, #1
d0021408:	e593b014 	ldr	fp, [r3, #20]
d002140c:	e58db044 	str	fp, [sp, #68]	; 0x44
d0021410:	e593b018 	ldr	fp, [r3, #24]
d0021414:	e58db048 	str	fp, [sp, #72]	; 0x48
d0021418:	e593b01c 	ldr	fp, [r3, #28]
d002141c:	e58d1040 	str	r1, [sp, #64]	; 0x40
d0021420:	e58db04c 	str	fp, [sp, #76]	; 0x4c
d0021424:	e5dd1040 	ldrb	r1, [sp, #64]	; 0x40
d0021428:	e5dd3041 	ldrb	r3, [sp, #65]	; 0x41
d002142c:	e5ddb042 	ldrb	fp, [sp, #66]	; 0x42
d0021430:	e58d1008 	str	r1, [sp, #8]
d0021434:	e58d300c 	str	r3, [sp, #12]
d0021438:	e5dd1043 	ldrb	r1, [sp, #67]	; 0x43
d002143c:	e5dd3044 	ldrb	r3, [sp, #68]	; 0x44
d0021440:	e58db018 	str	fp, [sp, #24]
d0021444:	e5ddb045 	ldrb	fp, [sp, #69]	; 0x45
d0021448:	e58d101c 	str	r1, [sp, #28]
d002144c:	e58d3020 	str	r3, [sp, #32]
d0021450:	e5dd1046 	ldrb	r1, [sp, #70]	; 0x46
d0021454:	e5dd3047 	ldrb	r3, [sp, #71]	; 0x47
d0021458:	e58db024 	str	fp, [sp, #36]	; 0x24
d002145c:	e5ddb048 	ldrb	fp, [sp, #72]	; 0x48
d0021460:	e58d1028 	str	r1, [sp, #40]	; 0x28
d0021464:	e58d302c 	str	r3, [sp, #44]	; 0x2c
d0021468:	e5dd1049 	ldrb	r1, [sp, #73]	; 0x49
d002146c:	e5dd304a 	ldrb	r3, [sp, #74]	; 0x4a
d0021470:	e58db030 	str	fp, [sp, #48]	; 0x30
d0021474:	e5ddb04b 	ldrb	fp, [sp, #75]	; 0x4b
d0021478:	e58d1034 	str	r1, [sp, #52]	; 0x34
d002147c:	e58d3038 	str	r3, [sp, #56]	; 0x38
d0021480:	e58db03c 	str	fp, [sp, #60]	; 0x3c
d0021484:	e5dd104c 	ldrb	r1, [sp, #76]	; 0x4c
d0021488:	e58d1000 	str	r1, [sp]
d002148c:	e59d1010 	ldr	r1, [sp, #16]
d0021490:	e59db008 	ldr	fp, [sp, #8]
d0021494:	e5c1b001 	strb	fp, [r1, #1]
d0021498:	e59db00c 	ldr	fp, [sp, #12]
d002149c:	e5c9b001 	strb	fp, [r9, #1]
d00214a0:	e59d1018 	ldr	r1, [sp, #24]
d00214a4:	e5ca1001 	strb	r1, [sl, #1]
d00214a8:	e59db01c 	ldr	fp, [sp, #28]
d00214ac:	e5c8b001 	strb	fp, [r8, #1]
d00214b0:	e59d1020 	ldr	r1, [sp, #32]
d00214b4:	e5c71001 	strb	r1, [r7, #1]
d00214b8:	e59db024 	ldr	fp, [sp, #36]	; 0x24
d00214bc:	e5c6b001 	strb	fp, [r6, #1]
d00214c0:	e59d1028 	ldr	r1, [sp, #40]	; 0x28
d00214c4:	e5c51001 	strb	r1, [r5, #1]
d00214c8:	e59db02c 	ldr	fp, [sp, #44]	; 0x2c
d00214cc:	e5ceb001 	strb	fp, [lr, #1]
d00214d0:	e59d1030 	ldr	r1, [sp, #48]	; 0x30
d00214d4:	e5cc1001 	strb	r1, [ip, #1]
d00214d8:	e59d5034 	ldr	r5, [sp, #52]	; 0x34
d00214dc:	e5c05001 	strb	r5, [r0, #1]
d00214e0:	e59de004 	ldr	lr, [sp, #4]
d00214e4:	e59db038 	ldr	fp, [sp, #56]	; 0x38
d00214e8:	e5ceb001 	strb	fp, [lr, #1]
d00214ec:	e59db03c 	ldr	fp, [sp, #60]	; 0x3c
d00214f0:	e5c2b001 	strb	fp, [r2, #1]
d00214f4:	e2823001 	add	r3, r2, #1
d00214f8:	e59dc000 	ldr	ip, [sp]
d00214fc:	e5c3c001 	strb	ip, [r3, #1]
d0021500:	e2833001 	add	r3, r3, #1
d0021504:	e5dd204d 	ldrb	r2, [sp, #77]	; 0x4d
d0021508:	e5dd004e 	ldrb	r0, [sp, #78]	; 0x4e
d002150c:	e59d5014 	ldr	r5, [sp, #20]
d0021510:	e5c30002 	strb	r0, [r3, #2]
d0021514:	e5c32001 	strb	r2, [r3, #1]
d0021518:	eaffffa4 	b	d00213b0 <Hsmmc_Get_CSD+0x9c>
d002151c:	d0022058 	andle	r2, r2, r8, asr r0
d0021520:	eb200000 	bl	d0821528 <bss_end+0x7faa6c>

d0021524 <Hsmmc_WriteBlock>:
d0021524:	e3500000 	cmp	r0, #0
d0021528:	13520000 	cmpne	r2, #0
d002152c:	e92d4ff0 	push	{r4, r5, r6, r7, r8, r9, sl, fp, lr}
d0021530:	13a03000 	movne	r3, #0
d0021534:	03a03001 	moveq	r3, #1
d0021538:	e24dd00c 	sub	sp, sp, #12
d002153c:	e1a07002 	mov	r7, r2
d0021540:	e1a05000 	mov	r5, r0
d0021544:	e1a0a001 	mov	sl, r1
d0021548:	03e0b000 	mvneq	fp, #0
d002154c:	0a00008a 	beq	d002177c <Hsmmc_WriteBlock+0x258>
d0021550:	e59f2278 	ldr	r2, [pc, #632]	; d00217d0 <Hsmmc_WriteBlock+0x2ac>
d0021554:	e59f9278 	ldr	r9, [pc, #632]	; d00217d4 <Hsmmc_WriteBlock+0x2b0>
d0021558:	e1d203b0 	ldrh	r0, [r2, #48]	; 0x30
d002155c:	e1c203b0 	strh	r0, [r2, #48]	; 0x30
d0021560:	e1a04002 	mov	r4, r2
d0021564:	e1d213b2 	ldrh	r1, [r2, #50]	; 0x32
d0021568:	e58d3004 	str	r3, [sp, #4]
d002156c:	e1c213b2 	strh	r1, [r2, #50]	; 0x32
d0021570:	e59f2260 	ldr	r2, [pc, #608]	; d00217d8 <Hsmmc_WriteBlock+0x2b4>
d0021574:	e1570002 	cmp	r7, r2
d0021578:	9a000082 	bls	d0021788 <Hsmmc_WriteBlock+0x264>
d002157c:	e2477cff 	sub	r7, r7, #65280	; 0xff00
d0021580:	e1a08002 	mov	r8, r2
d0021584:	e24770ff 	sub	r7, r7, #255	; 0xff
d0021588:	e1a06002 	mov	r6, r2
d002158c:	e5993004 	ldr	r3, [r9, #4]
d0021590:	e3a02001 	mov	r2, #1
d0021594:	e1a01803 	lsl	r1, r3, #16
d0021598:	e3a00037 	mov	r0, #55	; 0x37
d002159c:	ebfffebc 	bl	d0021094 <T.40>
d00215a0:	e3a00017 	mov	r0, #23
d00215a4:	e1a01006 	mov	r1, r6
d00215a8:	e3a02001 	mov	r2, #1
d00215ac:	ebfffeb8 	bl	d0021094 <T.40>
d00215b0:	e5d93000 	ldrb	r3, [r9]
d00215b4:	e3a0bc72 	mov	fp, #29184	; 0x7200
d00215b8:	e3530003 	cmp	r3, #3
d00215bc:	e1c4b0b4 	strh	fp, [r4, #4]
d00215c0:	058da004 	streq	sl, [sp, #4]
d00215c4:	e1c480b6 	strh	r8, [r4, #6]
d00215c8:	0a000003 	beq	d00215dc <Hsmmc_WriteBlock+0xb8>
d00215cc:	e2433001 	sub	r3, r3, #1
d00215d0:	e3530001 	cmp	r3, #1
d00215d4:	91a0348a 	lslls	r3, sl, #9
d00215d8:	958d3004 	strls	r3, [sp, #4]
d00215dc:	e3560001 	cmp	r6, #1
d00215e0:	e59dc004 	ldr	ip, [sp, #4]
d00215e4:	e584c008 	str	ip, [r4, #8]
d00215e8:	03a03002 	moveq	r3, #2
d00215ec:	059fc1e8 	ldreq	ip, [pc, #488]	; d00217dc <Hsmmc_WriteBlock+0x2b8>
d00215f0:	13a03026 	movne	r3, #38	; 0x26
d00215f4:	159fc1e4 	ldrne	ip, [pc, #484]	; d00217e0 <Hsmmc_WriteBlock+0x2bc>
d00215f8:	01c430bc 	strheq	r3, [r4, #12]
d00215fc:	11c430bc 	strhne	r3, [r4, #12]
d0021600:	01c4c0be 	strheq	ip, [r4, #14]
d0021604:	11c4c0be 	strhne	ip, [r4, #14]
d0021608:	ebfffca9 	bl	d00208b4 <Hsmmc_WaitForCommandDone>
d002160c:	e250b000 	subs	fp, r0, #0
d0021610:	1a000068 	bne	d00217b8 <Hsmmc_WriteBlock+0x294>
d0021614:	e1a0800b 	mov	r8, fp
d0021618:	e1d4e3b0 	ldrh	lr, [r4, #48]	; 0x30
d002161c:	e31e0902 	tst	lr, #32768	; 0x8000
d0021620:	1a000049 	bne	d002174c <Hsmmc_WriteBlock+0x228>
d0021624:	e1d413b0 	ldrh	r1, [r4, #48]	; 0x30
d0021628:	e3110010 	tst	r1, #16
d002162c:	0afffff9 	beq	d0021618 <Hsmmc_WriteBlock+0xf4>
d0021630:	e1d403b0 	ldrh	r0, [r4, #48]	; 0x30
d0021634:	e3802010 	orr	r2, r0, #16
d0021638:	e1c423b0 	strh	r2, [r4, #48]	; 0x30
d002163c:	e2153003 	ands	r3, r5, #3
d0021640:	11a03005 	movne	r3, r5
d0021644:	12855c02 	addne	r5, r5, #512	; 0x200
d0021648:	1a000022 	bne	d00216d8 <Hsmmc_WriteBlock+0x1b4>
d002164c:	e2830004 	add	r0, r3, #4
d0021650:	e7951003 	ldr	r1, [r5, r3]
d0021654:	e2803004 	add	r3, r0, #4
d0021658:	e7952000 	ldr	r2, [r5, r0]
d002165c:	e3530c02 	cmp	r3, #512	; 0x200
d0021660:	e5841020 	str	r1, [r4, #32]
d0021664:	e5842020 	str	r2, [r4, #32]
d0021668:	1afffff7 	bne	d002164c <Hsmmc_WriteBlock+0x128>
d002166c:	e2888001 	add	r8, r8, #1
d0021670:	e1580006 	cmp	r8, r6
d0021674:	e2855c02 	add	r5, r5, #512	; 0x200
d0021678:	3affffe6 	bcc	d0021618 <Hsmmc_WriteBlock+0xf4>
d002167c:	ebfffcbd 	bl	d0020978 <Hsmmc_WaitForTransferDone>
d0021680:	e1a0b000 	mov	fp, r0
d0021684:	e1a01000 	mov	r1, r0
d0021688:	e59f0154 	ldr	r0, [pc, #340]	; d00217e4 <Hsmmc_WriteBlock+0x2c0>
d002168c:	eb0008d8 	bl	d00239f4 <printf>
d0021690:	e35b0000 	cmp	fp, #0
d0021694:	1a00004a 	bne	d00217c4 <Hsmmc_WriteBlock+0x2a0>
d0021698:	e1a0800b 	mov	r8, fp
d002169c:	ea000004 	b	d00216b4 <Hsmmc_WriteBlock+0x190>
d00216a0:	ebffff0b 	bl	d00212d4 <Hsmmc_GetCardState>
d00216a4:	e3500004 	cmp	r0, #4
d00216a8:	0a000006 	beq	d00216c8 <Hsmmc_WriteBlock+0x1a4>
d00216ac:	e3580201 	cmp	r8, #268435456	; 0x10000000
d00216b0:	0a00003e 	beq	d00217b0 <Hsmmc_WriteBlock+0x28c>
d00216b4:	ebffff06 	bl	d00212d4 <Hsmmc_GetCardState>
d00216b8:	e2888001 	add	r8, r8, #1
d00216bc:	e2888001 	add	r8, r8, #1
d00216c0:	e3500004 	cmp	r0, #4
d00216c4:	1afffff5 	bne	d00216a0 <Hsmmc_WriteBlock+0x17c>
d00216c8:	e3570000 	cmp	r7, #0
d00216cc:	0a00002a 	beq	d002177c <Hsmmc_WriteBlock+0x258>
d00216d0:	e08aa006 	add	sl, sl, r6
d00216d4:	eaffffa5 	b	d0021570 <Hsmmc_WriteBlock+0x4c>
d00216d8:	e5d31002 	ldrb	r1, [r3, #2]
d00216dc:	e5d3e001 	ldrb	lr, [r3, #1]
d00216e0:	e5d30000 	ldrb	r0, [r3]
d00216e4:	e1a0c801 	lsl	ip, r1, #16
d00216e8:	e5d32003 	ldrb	r2, [r3, #3]
d00216ec:	e08cb40e 	add	fp, ip, lr, lsl #8
d00216f0:	e08b1000 	add	r1, fp, r0
d00216f4:	e081ec02 	add	lr, r1, r2, lsl #24
d00216f8:	e2832004 	add	r2, r3, #4
d00216fc:	e584e020 	str	lr, [r4, #32]
d0021700:	e5d2c002 	ldrb	ip, [r2, #2]
d0021704:	e5d20001 	ldrb	r0, [r2, #1]
d0021708:	e5d33004 	ldrb	r3, [r3, #4]
d002170c:	e1a0b80c 	lsl	fp, ip, #16
d0021710:	e08b1400 	add	r1, fp, r0, lsl #8
d0021714:	e5d2c003 	ldrb	ip, [r2, #3]
d0021718:	e081e003 	add	lr, r1, r3
d002171c:	e2823004 	add	r3, r2, #4
d0021720:	e08ebc0c 	add	fp, lr, ip, lsl #24
d0021724:	e1530005 	cmp	r3, r5
d0021728:	e584b020 	str	fp, [r4, #32]
d002172c:	1affffe9 	bne	d00216d8 <Hsmmc_WriteBlock+0x1b4>
d0021730:	e2888001 	add	r8, r8, #1
d0021734:	e1580006 	cmp	r8, r6
d0021738:	e1a05003 	mov	r5, r3
d002173c:	2affffce 	bcs	d002167c <Hsmmc_WriteBlock+0x158>
d0021740:	e1d4e3b0 	ldrh	lr, [r4, #48]	; 0x30
d0021744:	e31e0902 	tst	lr, #32768	; 0x8000
d0021748:	0affffb5 	beq	d0021624 <Hsmmc_WriteBlock+0x100>
d002174c:	e1d4e3b2 	ldrh	lr, [r4, #50]	; 0x32
d0021750:	e1d4c3b0 	ldrh	ip, [r4, #48]	; 0x30
d0021754:	e1a0bb8e 	lsl	fp, lr, #23
d0021758:	e1c4c3b0 	strh	ip, [r4, #48]	; 0x30
d002175c:	e1a0bbab 	lsr	fp, fp, #23
d0021760:	e1d433b2 	ldrh	r3, [r4, #50]	; 0x32
d0021764:	e59f007c 	ldr	r0, [pc, #124]	; d00217e8 <Hsmmc_WriteBlock+0x2c4>
d0021768:	e1a0100b 	mov	r1, fp
d002176c:	e1c433b2 	strh	r3, [r4, #50]	; 0x32
d0021770:	eb00089f 	bl	d00239f4 <printf>
d0021774:	e35b0000 	cmp	fp, #0
d0021778:	0affffaf 	beq	d002163c <Hsmmc_WriteBlock+0x118>
d002177c:	e1a0000b 	mov	r0, fp
d0021780:	e28dd00c 	add	sp, sp, #12
d0021784:	e8bd8ff0 	pop	{r4, r5, r6, r7, r8, r9, sl, fp, pc}
d0021788:	e3570001 	cmp	r7, #1
d002178c:	01a08007 	moveq	r8, r7
d0021790:	01a06008 	moveq	r6, r8
d0021794:	03a07000 	moveq	r7, #0
d0021798:	0affff84 	beq	d00215b0 <Hsmmc_WriteBlock+0x8c>
d002179c:	e1a08807 	lsl	r8, r7, #16
d00217a0:	e1a06007 	mov	r6, r7
d00217a4:	e1a08828 	lsr	r8, r8, #16
d00217a8:	e3a07000 	mov	r7, #0
d00217ac:	eaffff76 	b	d002158c <Hsmmc_WriteBlock+0x68>
d00217b0:	e3e0b002 	mvn	fp, #2
d00217b4:	eafffff0 	b	d002177c <Hsmmc_WriteBlock+0x258>
d00217b8:	e59f002c 	ldr	r0, [pc, #44]	; d00217ec <Hsmmc_WriteBlock+0x2c8>
d00217bc:	eb00088c 	bl	d00239f4 <printf>
d00217c0:	eaffffed 	b	d002177c <Hsmmc_WriteBlock+0x258>
d00217c4:	e59f0024 	ldr	r0, [pc, #36]	; d00217f0 <Hsmmc_WriteBlock+0x2cc>
d00217c8:	eb000889 	bl	d00239f4 <printf>
d00217cc:	eaffffea 	b	d002177c <Hsmmc_WriteBlock+0x258>
d00217d0:	eb200000 	bl	d08217d8 <bss_end+0x7fad1c>
d00217d4:	d0022058 	andle	r2, r2, r8, asr r0
d00217d8:	0000ffff 	strdeq	pc, [r0], -pc
d00217dc:	0000183a 	andeq	r1, r0, sl, lsr r8
d00217e0:	0000193a 	andeq	r1, r0, sl, lsr r9
d00217e4:	d0022298 	mulle	r2, r8, r2
d00217e8:	d0022270 	andle	r2, r2, r0, ror r2
d00217ec:	d0022258 	andle	r2, r2, r8, asr r2
d00217f0:	d00222b8 	strhle	r2, [r2], -r8

d00217f4 <Hsmmc_EraseBlock>:
d00217f4:	e59f30b4 	ldr	r3, [pc, #180]	; d00218b0 <Hsmmc_EraseBlock+0xbc>
d00217f8:	e92d4010 	push	{r4, lr}
d00217fc:	e5d33000 	ldrb	r3, [r3]
d0021800:	e1a04001 	mov	r4, r1
d0021804:	e2432001 	sub	r2, r3, #1
d0021808:	e3520001 	cmp	r2, #1
d002180c:	91a00480 	lslls	r0, r0, #9
d0021810:	91a04481 	lslls	r4, r1, #9
d0021814:	8a00001d 	bhi	d0021890 <Hsmmc_EraseBlock+0x9c>
d0021818:	e1a01000 	mov	r1, r0
d002181c:	e3a02001 	mov	r2, #1
d0021820:	e3a00020 	mov	r0, #32
d0021824:	ebfffe1a 	bl	d0021094 <T.40>
d0021828:	e1a01004 	mov	r1, r4
d002182c:	e3a02001 	mov	r2, #1
d0021830:	e3a00021 	mov	r0, #33	; 0x21
d0021834:	ebfffe16 	bl	d0021094 <T.40>
d0021838:	e3a00026 	mov	r0, #38	; 0x26
d002183c:	e3a01000 	mov	r1, #0
d0021840:	e3a02008 	mov	r2, #8
d0021844:	ebfffe12 	bl	d0021094 <T.40>
d0021848:	e3500000 	cmp	r0, #0
d002184c:	1a000013 	bne	d00218a0 <Hsmmc_EraseBlock+0xac>
d0021850:	e1a04000 	mov	r4, r0
d0021854:	ea000004 	b	d002186c <Hsmmc_EraseBlock+0x78>
d0021858:	ebfffe9d 	bl	d00212d4 <Hsmmc_GetCardState>
d002185c:	e3500004 	cmp	r0, #4
d0021860:	0a000006 	beq	d0021880 <Hsmmc_EraseBlock+0x8c>
d0021864:	e3540801 	cmp	r4, #65536	; 0x10000
d0021868:	0a00000c 	beq	d00218a0 <Hsmmc_EraseBlock+0xac>
d002186c:	ebfffe98 	bl	d00212d4 <Hsmmc_GetCardState>
d0021870:	e2844001 	add	r4, r4, #1
d0021874:	e2844001 	add	r4, r4, #1
d0021878:	e3500004 	cmp	r0, #4
d002187c:	1afffff5 	bne	d0021858 <Hsmmc_EraseBlock+0x64>
d0021880:	e59f002c 	ldr	r0, [pc, #44]	; d00218b4 <Hsmmc_EraseBlock+0xc0>
d0021884:	eb00085a 	bl	d00239f4 <printf>
d0021888:	e3a00000 	mov	r0, #0
d002188c:	e8bd8010 	pop	{r4, pc}
d0021890:	e3530003 	cmp	r3, #3
d0021894:	13e00000 	mvnne	r0, #0
d0021898:	18bd8010 	popne	{r4, pc}
d002189c:	eaffffdd 	b	d0021818 <Hsmmc_EraseBlock+0x24>
d00218a0:	e59f0010 	ldr	r0, [pc, #16]	; d00218b8 <Hsmmc_EraseBlock+0xc4>
d00218a4:	eb000852 	bl	d00239f4 <printf>
d00218a8:	e3e00000 	mvn	r0, #0
d00218ac:	e8bd8010 	pop	{r4, pc}
d00218b0:	d0022058 	andle	r2, r2, r8, asr r0
d00218b4:	d00222cc 	andle	r2, r2, ip, asr #5
d00218b8:	d00222e0 	andle	r2, r2, r0, ror #5

d00218bc <Hsmmc_GetSdState>:
d00218bc:	e92d4070 	push	{r4, r5, r6, lr}
d00218c0:	e59f52a4 	ldr	r5, [pc, #676]	; d0021b6c <Hsmmc_GetSdState+0x2b0>
d00218c4:	e1a04000 	mov	r4, r0
d00218c8:	e5d50000 	ldrb	r0, [r5]
d00218cc:	e2403001 	sub	r3, r0, #1
d00218d0:	e3530002 	cmp	r3, #2
d00218d4:	9a000002 	bls	d00218e4 <Hsmmc_GetSdState+0x28>
d00218d8:	e3e06000 	mvn	r6, #0
d00218dc:	e1a00006 	mov	r0, r6
d00218e0:	e8bd8070 	pop	{r4, r5, r6, pc}
d00218e4:	ebfffe7a 	bl	d00212d4 <Hsmmc_GetCardState>
d00218e8:	e3500004 	cmp	r0, #4
d00218ec:	1afffff9 	bne	d00218d8 <Hsmmc_GetSdState+0x1c>
d00218f0:	e595e004 	ldr	lr, [r5, #4]
d00218f4:	e3a02001 	mov	r2, #1
d00218f8:	e59f5270 	ldr	r5, [pc, #624]	; d0021b70 <Hsmmc_GetSdState+0x2b4>
d00218fc:	e1a0180e 	lsl	r1, lr, #16
d0021900:	e3a00037 	mov	r0, #55	; 0x37
d0021904:	ebfffde2 	bl	d0021094 <T.40>
d0021908:	e3a06000 	mov	r6, #0
d002190c:	e59f3260 	ldr	r3, [pc, #608]	; d0021b74 <Hsmmc_GetSdState+0x2b8>
d0021910:	e3a0c001 	mov	ip, #1
d0021914:	e3a02012 	mov	r2, #18
d0021918:	e59f1258 	ldr	r1, [pc, #600]	; d0021b78 <Hsmmc_GetSdState+0x2bc>
d002191c:	e1c530b4 	strh	r3, [r5, #4]
d0021920:	e1c5c0b6 	strh	ip, [r5, #6]
d0021924:	e5856008 	str	r6, [r5, #8]
d0021928:	e1c520bc 	strh	r2, [r5, #12]
d002192c:	e1c510be 	strh	r1, [r5, #14]
d0021930:	ebfffbdf 	bl	d00208b4 <Hsmmc_WaitForCommandDone>
d0021934:	e2506000 	subs	r6, r0, #0
d0021938:	1a000088 	bne	d0021b60 <Hsmmc_GetSdState+0x2a4>
d002193c:	ebfffc3e 	bl	d0020a3c <Hsmmc_WaitForBufferReadReady>
d0021940:	e2506000 	subs	r6, r0, #0
d0021944:	1affffe4 	bne	d00218dc <Hsmmc_GetSdState+0x20>
d0021948:	e5956020 	ldr	r6, [r5, #32]
d002194c:	e5c4603f 	strb	r6, [r4, #63]	; 0x3f
d0021950:	e1a00c26 	lsr	r0, r6, #24
d0021954:	e1a02426 	lsr	r2, r6, #8
d0021958:	e1a03826 	lsr	r3, r6, #16
d002195c:	e5c4303d 	strb	r3, [r4, #61]	; 0x3d
d0021960:	e5c4003c 	strb	r0, [r4, #60]	; 0x3c
d0021964:	e5c4203e 	strb	r2, [r4, #62]	; 0x3e
d0021968:	e595e020 	ldr	lr, [r5, #32]
d002196c:	e5c4e03b 	strb	lr, [r4, #59]	; 0x3b
d0021970:	e1a06c2e 	lsr	r6, lr, #24
d0021974:	e1a0142e 	lsr	r1, lr, #8
d0021978:	e1a0c82e 	lsr	ip, lr, #16
d002197c:	e5c4103a 	strb	r1, [r4, #58]	; 0x3a
d0021980:	e5c46038 	strb	r6, [r4, #56]	; 0x38
d0021984:	e5c4c039 	strb	ip, [r4, #57]	; 0x39
d0021988:	e5952020 	ldr	r2, [r5, #32]
d002198c:	e5c42037 	strb	r2, [r4, #55]	; 0x37
d0021990:	e1a0ec22 	lsr	lr, r2, #24
d0021994:	e1a00422 	lsr	r0, r2, #8
d0021998:	e1a03822 	lsr	r3, r2, #16
d002199c:	e5c43035 	strb	r3, [r4, #53]	; 0x35
d00219a0:	e5c4e034 	strb	lr, [r4, #52]	; 0x34
d00219a4:	e5c40036 	strb	r0, [r4, #54]	; 0x36
d00219a8:	e595c020 	ldr	ip, [r5, #32]
d00219ac:	e5c4c033 	strb	ip, [r4, #51]	; 0x33
d00219b0:	e1a02c2c 	lsr	r2, ip, #24
d00219b4:	e1a0142c 	lsr	r1, ip, #8
d00219b8:	e1a0682c 	lsr	r6, ip, #16
d00219bc:	e5c41032 	strb	r1, [r4, #50]	; 0x32
d00219c0:	e5c42030 	strb	r2, [r4, #48]	; 0x30
d00219c4:	e5c46031 	strb	r6, [r4, #49]	; 0x31
d00219c8:	e5950020 	ldr	r0, [r5, #32]
d00219cc:	e5c4002f 	strb	r0, [r4, #47]	; 0x2f
d00219d0:	e1a0cc20 	lsr	ip, r0, #24
d00219d4:	e1a0e420 	lsr	lr, r0, #8
d00219d8:	e1a03820 	lsr	r3, r0, #16
d00219dc:	e5c4302d 	strb	r3, [r4, #45]	; 0x2d
d00219e0:	e5c4c02c 	strb	ip, [r4, #44]	; 0x2c
d00219e4:	e5c4e02e 	strb	lr, [r4, #46]	; 0x2e
d00219e8:	e5956020 	ldr	r6, [r5, #32]
d00219ec:	e5c4602b 	strb	r6, [r4, #43]	; 0x2b
d00219f0:	e1a00c26 	lsr	r0, r6, #24
d00219f4:	e1a01426 	lsr	r1, r6, #8
d00219f8:	e1a02826 	lsr	r2, r6, #16
d00219fc:	e5c4102a 	strb	r1, [r4, #42]	; 0x2a
d0021a00:	e5c42029 	strb	r2, [r4, #41]	; 0x29
d0021a04:	e5c40028 	strb	r0, [r4, #40]	; 0x28
d0021a08:	e595e020 	ldr	lr, [r5, #32]
d0021a0c:	e5c4e027 	strb	lr, [r4, #39]	; 0x27
d0021a10:	e1a06c2e 	lsr	r6, lr, #24
d0021a14:	e1a0c42e 	lsr	ip, lr, #8
d0021a18:	e1a0382e 	lsr	r3, lr, #16
d0021a1c:	e5c4c026 	strb	ip, [r4, #38]	; 0x26
d0021a20:	e5c43025 	strb	r3, [r4, #37]	; 0x25
d0021a24:	e5c46024 	strb	r6, [r4, #36]	; 0x24
d0021a28:	e5952020 	ldr	r2, [r5, #32]
d0021a2c:	e5c42023 	strb	r2, [r4, #35]	; 0x23
d0021a30:	e1a0ec22 	lsr	lr, r2, #24
d0021a34:	e1a01422 	lsr	r1, r2, #8
d0021a38:	e1a00822 	lsr	r0, r2, #16
d0021a3c:	e5c41022 	strb	r1, [r4, #34]	; 0x22
d0021a40:	e5c4e020 	strb	lr, [r4, #32]
d0021a44:	e5c40021 	strb	r0, [r4, #33]	; 0x21
d0021a48:	e595c020 	ldr	ip, [r5, #32]
d0021a4c:	e5c4c01f 	strb	ip, [r4, #31]
d0021a50:	e1a02c2c 	lsr	r2, ip, #24
d0021a54:	e1a0642c 	lsr	r6, ip, #8
d0021a58:	e1a0382c 	lsr	r3, ip, #16
d0021a5c:	e5c4301d 	strb	r3, [r4, #29]
d0021a60:	e5c4201c 	strb	r2, [r4, #28]
d0021a64:	e5c4601e 	strb	r6, [r4, #30]
d0021a68:	e5950020 	ldr	r0, [r5, #32]
d0021a6c:	e5c4001b 	strb	r0, [r4, #27]
d0021a70:	e1a0cc20 	lsr	ip, r0, #24
d0021a74:	e1a01420 	lsr	r1, r0, #8
d0021a78:	e1a0e820 	lsr	lr, r0, #16
d0021a7c:	e5c4101a 	strb	r1, [r4, #26]
d0021a80:	e5c4c018 	strb	ip, [r4, #24]
d0021a84:	e5c4e019 	strb	lr, [r4, #25]
d0021a88:	e5956020 	ldr	r6, [r5, #32]
d0021a8c:	e5c46017 	strb	r6, [r4, #23]
d0021a90:	e1a00c26 	lsr	r0, r6, #24
d0021a94:	e1a02426 	lsr	r2, r6, #8
d0021a98:	e1a03826 	lsr	r3, r6, #16
d0021a9c:	e5c43015 	strb	r3, [r4, #21]
d0021aa0:	e5c40014 	strb	r0, [r4, #20]
d0021aa4:	e5c42016 	strb	r2, [r4, #22]
d0021aa8:	e595e020 	ldr	lr, [r5, #32]
d0021aac:	e5c4e013 	strb	lr, [r4, #19]
d0021ab0:	e1a06c2e 	lsr	r6, lr, #24
d0021ab4:	e1a0142e 	lsr	r1, lr, #8
d0021ab8:	e1a0c82e 	lsr	ip, lr, #16
d0021abc:	e5c41012 	strb	r1, [r4, #18]
d0021ac0:	e5c46010 	strb	r6, [r4, #16]
d0021ac4:	e5c4c011 	strb	ip, [r4, #17]
d0021ac8:	e5952020 	ldr	r2, [r5, #32]
d0021acc:	e5c4200f 	strb	r2, [r4, #15]
d0021ad0:	e1a0ec22 	lsr	lr, r2, #24
d0021ad4:	e1a00422 	lsr	r0, r2, #8
d0021ad8:	e1a03822 	lsr	r3, r2, #16
d0021adc:	e5c4000e 	strb	r0, [r4, #14]
d0021ae0:	e5c4300d 	strb	r3, [r4, #13]
d0021ae4:	e5c4e00c 	strb	lr, [r4, #12]
d0021ae8:	e595c020 	ldr	ip, [r5, #32]
d0021aec:	e5c4c00b 	strb	ip, [r4, #11]
d0021af0:	e1a02c2c 	lsr	r2, ip, #24
d0021af4:	e1a0142c 	lsr	r1, ip, #8
d0021af8:	e1a0682c 	lsr	r6, ip, #16
d0021afc:	e5c4100a 	strb	r1, [r4, #10]
d0021b00:	e5c42008 	strb	r2, [r4, #8]
d0021b04:	e5c46009 	strb	r6, [r4, #9]
d0021b08:	e5950020 	ldr	r0, [r5, #32]
d0021b0c:	e5c40007 	strb	r0, [r4, #7]
d0021b10:	e1a0cc20 	lsr	ip, r0, #24
d0021b14:	e1a0e420 	lsr	lr, r0, #8
d0021b18:	e1a03820 	lsr	r3, r0, #16
d0021b1c:	e5c4e006 	strb	lr, [r4, #6]
d0021b20:	e5c43005 	strb	r3, [r4, #5]
d0021b24:	e5c4c004 	strb	ip, [r4, #4]
d0021b28:	e5956020 	ldr	r6, [r5, #32]
d0021b2c:	e5c46003 	strb	r6, [r4, #3]
d0021b30:	e1a01c26 	lsr	r1, r6, #24
d0021b34:	e1a02426 	lsr	r2, r6, #8
d0021b38:	e1a00826 	lsr	r0, r6, #16
d0021b3c:	e5c41000 	strb	r1, [r4]
d0021b40:	e5c42002 	strb	r2, [r4, #2]
d0021b44:	e5c40001 	strb	r0, [r4, #1]
d0021b48:	ebfffb8a 	bl	d0020978 <Hsmmc_WaitForTransferDone>
d0021b4c:	e2506000 	subs	r6, r0, #0
d0021b50:	0affff61 	beq	d00218dc <Hsmmc_GetSdState+0x20>
d0021b54:	e59f0020 	ldr	r0, [pc, #32]	; d0021b7c <Hsmmc_GetSdState+0x2c0>
d0021b58:	eb0007a5 	bl	d00239f4 <printf>
d0021b5c:	eaffff5e 	b	d00218dc <Hsmmc_GetSdState+0x20>
d0021b60:	e59f0018 	ldr	r0, [pc, #24]	; d0021b80 <Hsmmc_GetSdState+0x2c4>
d0021b64:	eb0007a2 	bl	d00239f4 <printf>
d0021b68:	eaffff5b 	b	d00218dc <Hsmmc_GetSdState+0x20>
d0021b6c:	d0022058 	andle	r2, r2, r8, asr r0
d0021b70:	eb200000 	bl	d0821b78 <bss_end+0x7fb0bc>
d0021b74:	00007040 	andeq	r7, r0, r0, asr #32
d0021b78:	00000d3a 	andeq	r0, r0, sl, lsr sp
d0021b7c:	d00221bc 	strhle	r2, [r2], -ip
d0021b80:	d00222f8 	strdle	r2, [r2], -r8

d0021b84 <Hsmmc_Init>:
d0021b84:	e92d40f0 	push	{r4, r5, r6, r7, lr}
d0021b88:	e24dd05c 	sub	sp, sp, #92	; 0x5c
d0021b8c:	eb000485 	bl	d0022da8 <buzzer_on>
d0021b90:	e59f0470 	ldr	r0, [pc, #1136]	; d0022008 <Hsmmc_Init+0x484>
d0021b94:	e59f2470 	ldr	r2, [pc, #1136]	; d002200c <Hsmmc_Init+0x488>
d0021b98:	e59fc470 	ldr	ip, [pc, #1136]	; d0022010 <Hsmmc_Init+0x48c>
d0021b9c:	e59f5470 	ldr	r5, [pc, #1136]	; d0022014 <Hsmmc_Init+0x490>
d0021ba0:	e59f4470 	ldr	r4, [pc, #1136]	; d0022018 <Hsmmc_Init+0x494>
d0021ba4:	e582c1e0 	str	ip, [r2, #480]	; 0x1e0
d0021ba8:	e58251e8 	str	r5, [r2, #488]	; 0x1e8
d0021bac:	e58241ec 	str	r4, [r2, #492]	; 0x1ec
d0021bb0:	e5901210 	ldr	r1, [r0, #528]	; 0x210
d0021bb4:	e282240b 	add	r2, r2, #184549376	; 0xb000000
d0021bb8:	e3c13c0f 	bic	r3, r1, #3840	; 0xf00
d0021bbc:	e383cc07 	orr	ip, r3, #1792	; 0x700
d0021bc0:	e580c210 	str	ip, [r0, #528]	; 0x210
d0021bc4:	e5905310 	ldr	r5, [r0, #784]	; 0x310
d0021bc8:	e3a03001 	mov	r3, #1
d0021bcc:	e3c54c0f 	bic	r4, r5, #3840	; 0xf00
d0021bd0:	e3841c01 	orr	r1, r4, #256	; 0x100
d0021bd4:	e5801310 	str	r1, [r0, #784]	; 0x310
d0021bd8:	e5c2302f 	strb	r3, [r2, #47]	; 0x2f
d0021bdc:	e3a03ffa 	mov	r3, #1000	; 0x3e8
d0021be0:	ea000005 	b	d0021bfc <Hsmmc_Init+0x78>
d0021be4:	e3530000 	cmp	r3, #0
d0021be8:	e2413001 	sub	r3, r1, #1
d0021bec:	0a0000c1 	beq	d0021ef8 <Hsmmc_Init+0x374>
d0021bf0:	e5d2e02f 	ldrb	lr, [r2, #47]	; 0x2f
d0021bf4:	e21e4001 	ands	r4, lr, #1
d0021bf8:	0a000004 	beq	d0021c10 <Hsmmc_Init+0x8c>
d0021bfc:	e5d2002f 	ldrb	r0, [r2, #47]	; 0x2f
d0021c00:	e2431001 	sub	r1, r3, #1
d0021c04:	e2104001 	ands	r4, r0, #1
d0021c08:	e59f540c 	ldr	r5, [pc, #1036]	; d002201c <Hsmmc_Init+0x498>
d0021c0c:	1afffff4 	bne	d0021be4 <Hsmmc_Init+0x60>
d0021c10:	e59f0408 	ldr	r0, [pc, #1032]	; d0022020 <Hsmmc_Init+0x49c>
d0021c14:	eb000776 	bl	d00239f4 <printf>
d0021c18:	e59f0404 	ldr	r0, [pc, #1028]	; d0022024 <Hsmmc_Init+0x4a0>
d0021c1c:	ebfffab7 	bl	d0020700 <Hsmmc_SetClock>
d0021c20:	e3a0000e 	mov	r0, #14
d0021c24:	e5c5002e 	strb	r0, [r5, #46]	; 0x2e
d0021c28:	e5d52028 	ldrb	r2, [r5, #40]	; 0x28
d0021c2c:	e3e0c902 	mvn	ip, #32768	; 0x8000
d0021c30:	e20210fb 	and	r1, r2, #251	; 0xfb
d0021c34:	e5c51028 	strb	r1, [r5, #40]	; 0x28
d0021c38:	e1d573b0 	ldrh	r7, [r5, #48]	; 0x30
d0021c3c:	e1c573b0 	strh	r7, [r5, #48]	; 0x30
d0021c40:	e3e03b3f 	mvn	r3, #64512	; 0xfc00
d0021c44:	e1d5e3b2 	ldrh	lr, [r5, #50]	; 0x32
d0021c48:	e59f73d8 	ldr	r7, [pc, #984]	; d0022028 <Hsmmc_Init+0x4a4>
d0021c4c:	e1c5e3b2 	strh	lr, [r5, #50]	; 0x32
d0021c50:	e1a01004 	mov	r1, r4
d0021c54:	e1c5c3b4 	strh	ip, [r5, #52]	; 0x34
d0021c58:	e1a02004 	mov	r2, r4
d0021c5c:	e1c533b6 	strh	r3, [r5, #54]	; 0x36
d0021c60:	e1a00004 	mov	r0, r4
d0021c64:	e1c5c3b8 	strh	ip, [r5, #56]	; 0x38
d0021c68:	e1c533ba 	strh	r3, [r5, #58]	; 0x3a
d0021c6c:	ebfffd08 	bl	d0021094 <T.40>
d0021c70:	e3a00008 	mov	r0, #8
d0021c74:	e59f13b0 	ldr	r1, [pc, #944]	; d002202c <Hsmmc_Init+0x4a8>
d0021c78:	e3a02007 	mov	r2, #7
d0021c7c:	e5c74000 	strb	r4, [r7]
d0021c80:	ebfffd03 	bl	d0021094 <T.40>
d0021c84:	e3500000 	cmp	r0, #0
d0021c88:	1a000074 	bne	d0021e60 <Hsmmc_Init+0x2dc>
d0021c8c:	e5953010 	ldr	r3, [r5, #16]
d0021c90:	e203e0ff 	and	lr, r3, #255	; 0xff
d0021c94:	e35e00aa 	cmp	lr, #170	; 0xaa
d0021c98:	0a0000a6 	beq	d0021f38 <Hsmmc_Init+0x3b4>
d0021c9c:	e5d73000 	ldrb	r3, [r7]
d0021ca0:	e3530003 	cmp	r3, #3
d0021ca4:	13530001 	cmpne	r3, #1
d0021ca8:	0a000001 	beq	d0021cb4 <Hsmmc_Init+0x130>
d0021cac:	e3530002 	cmp	r3, #2
d0021cb0:	1a00008e 	bne	d0021ef0 <Hsmmc_Init+0x36c>
d0021cb4:	e3a00002 	mov	r0, #2
d0021cb8:	e3a01000 	mov	r1, #0
d0021cbc:	e1a02000 	mov	r2, r0
d0021cc0:	ebfffcf3 	bl	d0021094 <T.40>
d0021cc4:	e3a01000 	mov	r1, #0
d0021cc8:	e3a02006 	mov	r2, #6
d0021ccc:	e3a00003 	mov	r0, #3
d0021cd0:	ebfffcef 	bl	d0021094 <T.40>
d0021cd4:	e59fc340 	ldr	ip, [pc, #832]	; d002201c <Hsmmc_Init+0x498>
d0021cd8:	e3a02001 	mov	r2, #1
d0021cdc:	e59c1010 	ldr	r1, [ip, #16]
d0021ce0:	e3a00007 	mov	r0, #7
d0021ce4:	e1a03821 	lsr	r3, r1, #16
d0021ce8:	e1a01803 	lsl	r1, r3, #16
d0021cec:	e5873004 	str	r3, [r7, #4]
d0021cf0:	ebfffce7 	bl	d0021094 <T.40>
d0021cf4:	e28d0050 	add	r0, sp, #80	; 0x50
d0021cf8:	ebfffd39 	bl	d00211e4 <Hsmmc_Get_SCR>
d0021cfc:	e5dd0057 	ldrb	r0, [sp, #87]	; 0x57
d0021d00:	e310000f 	tst	r0, #15
d0021d04:	0a000028 	beq	d0021dac <Hsmmc_Init+0x228>
d0021d08:	e3a00000 	mov	r0, #0
d0021d0c:	e1a01000 	mov	r1, r0
d0021d10:	e3a02001 	mov	r2, #1
d0021d14:	e1a0300d 	mov	r3, sp
d0021d18:	ebfffc32 	bl	d0020de8 <Hsmmc_Switch>
d0021d1c:	e1a0400d 	mov	r4, sp
d0021d20:	e3500000 	cmp	r0, #0
d0021d24:	1a000002 	bne	d0021d34 <Hsmmc_Init+0x1b0>
d0021d28:	e5dde022 	ldrb	lr, [sp, #34]	; 0x22
d0021d2c:	e31e0002 	tst	lr, #2
d0021d30:	0a00009c 	beq	d0021fa8 <Hsmmc_Init+0x424>
d0021d34:	e3a00000 	mov	r0, #0
d0021d38:	e1a01000 	mov	r1, r0
d0021d3c:	e3a02001 	mov	r2, #1
d0021d40:	e1a0300d 	mov	r3, sp
d0021d44:	ebfffc27 	bl	d0020de8 <Hsmmc_Switch>
d0021d48:	e3500000 	cmp	r0, #0
d0021d4c:	1a000002 	bne	d0021d5c <Hsmmc_Init+0x1d8>
d0021d50:	e5dd2022 	ldrb	r2, [sp, #34]	; 0x22
d0021d54:	e3120002 	tst	r2, #2
d0021d58:	0a000092 	beq	d0021fa8 <Hsmmc_Init+0x424>
d0021d5c:	e3a00000 	mov	r0, #0
d0021d60:	e1a01000 	mov	r1, r0
d0021d64:	e3a02001 	mov	r2, #1
d0021d68:	e1a0300d 	mov	r3, sp
d0021d6c:	ebfffc1d 	bl	d0020de8 <Hsmmc_Switch>
d0021d70:	e3500000 	cmp	r0, #0
d0021d74:	1a000002 	bne	d0021d84 <Hsmmc_Init+0x200>
d0021d78:	e5dd0022 	ldrb	r0, [sp, #34]	; 0x22
d0021d7c:	e3100002 	tst	r0, #2
d0021d80:	0a000088 	beq	d0021fa8 <Hsmmc_Init+0x424>
d0021d84:	e3a00000 	mov	r0, #0
d0021d88:	e1a01000 	mov	r1, r0
d0021d8c:	e3a02001 	mov	r2, #1
d0021d90:	e1a0300d 	mov	r3, sp
d0021d94:	ebfffc13 	bl	d0020de8 <Hsmmc_Switch>
d0021d98:	e3500000 	cmp	r0, #0
d0021d9c:	1a000002 	bne	d0021dac <Hsmmc_Init+0x228>
d0021da0:	e5dd3022 	ldrb	r3, [sp, #34]	; 0x22
d0021da4:	e3130002 	tst	r3, #2
d0021da8:	0a00007e 	beq	d0021fa8 <Hsmmc_Init+0x424>
d0021dac:	e59f027c 	ldr	r0, [pc, #636]	; d0022030 <Hsmmc_Init+0x4ac>
d0021db0:	ebfffa52 	bl	d0020700 <Hsmmc_SetClock>
d0021db4:	ebfffd46 	bl	d00212d4 <Hsmmc_GetCardState>
d0021db8:	e3500004 	cmp	r0, #4
d0021dbc:	1a00004b 	bne	d0021ef0 <Hsmmc_Init+0x36c>
d0021dc0:	e280000c 	add	r0, r0, #12
d0021dc4:	e3a01c02 	mov	r1, #512	; 0x200
d0021dc8:	e3a02001 	mov	r2, #1
d0021dcc:	ebfffcb0 	bl	d0021094 <T.40>
d0021dd0:	e3500000 	cmp	r0, #0
d0021dd4:	1a000045 	bne	d0021ef0 <Hsmmc_Init+0x36c>
d0021dd8:	e59f323c 	ldr	r3, [pc, #572]	; d002201c <Hsmmc_Init+0x498>
d0021ddc:	e3e02000 	mvn	r2, #0
d0021de0:	e1c323b0 	strh	r2, [r3, #48]	; 0x30
d0021de4:	e28d0040 	add	r0, sp, #64	; 0x40
d0021de8:	ebfffd49 	bl	d0021314 <Hsmmc_Get_CSD>
d0021dec:	e5dd404f 	ldrb	r4, [sp, #79]	; 0x4f
d0021df0:	e1b03324 	lsrs	r3, r4, #6
d0021df4:	1a000041 	bne	d0021f00 <Hsmmc_Init+0x37c>
d0021df8:	e5dd0048 	ldrb	r0, [sp, #72]	; 0x48
d0021dfc:	e5ddc047 	ldrb	ip, [sp, #71]	; 0x47
d0021e00:	e5dd1049 	ldrb	r1, [sp, #73]	; 0x49
d0021e04:	e5dd3046 	ldrb	r3, [sp, #70]	; 0x46
d0021e08:	e5dde045 	ldrb	lr, [sp, #69]	; 0x45
d0021e0c:	e5dd204a 	ldrb	r2, [sp, #74]	; 0x4a
d0021e10:	e1a04100 	lsl	r4, r0, #2
d0021e14:	e084032c 	add	r0, r4, ip, lsr #6
d0021e18:	e202200f 	and	r2, r2, #15
d0021e1c:	e2014003 	and	r4, r1, #3
d0021e20:	e2031003 	and	r1, r3, #3
d0021e24:	e1a033ae 	lsr	r3, lr, #7
d0021e28:	e080c504 	add	ip, r0, r4, lsl #10
d0021e2c:	e083e081 	add	lr, r3, r1, lsl #1
d0021e30:	e2422007 	sub	r2, r2, #7
d0021e34:	e082100e 	add	r1, r2, lr
d0021e38:	e28c0001 	add	r0, ip, #1
d0021e3c:	e1a04110 	lsl	r4, r0, r1
d0021e40:	e59f01ec 	ldr	r0, [pc, #492]	; d0022034 <Hsmmc_Init+0x4b0>
d0021e44:	eb0006ea 	bl	d00239f4 <printf>
d0021e48:	e1a015a4 	lsr	r1, r4, #11
d0021e4c:	e59f01e4 	ldr	r0, [pc, #484]	; d0022038 <Hsmmc_Init+0x4b4>
d0021e50:	eb0006e7 	bl	d00239f4 <printf>
d0021e54:	e3a00000 	mov	r0, #0
d0021e58:	e28dd05c 	add	sp, sp, #92	; 0x5c
d0021e5c:	e8bd80f0 	pop	{r4, r5, r6, r7, pc}
d0021e60:	e59f61b4 	ldr	r6, [pc, #436]	; d002201c <Hsmmc_Init+0x498>
d0021e64:	ea00000e 	b	d0021ea4 <Hsmmc_Init+0x320>
d0021e68:	e5963010 	ldr	r3, [r6, #16]
d0021e6c:	e3530000 	cmp	r3, #0
d0021e70:	ba00002b 	blt	d0021f24 <Hsmmc_Init+0x3a0>
d0021e74:	ebfffc86 	bl	d0021094 <T.40>
d0021e78:	e1a01005 	mov	r1, r5
d0021e7c:	e3a00029 	mov	r0, #41	; 0x29
d0021e80:	e3a02003 	mov	r2, #3
d0021e84:	ebfffc82 	bl	d0021094 <T.40>
d0021e88:	e3500000 	cmp	r0, #0
d0021e8c:	1a000013 	bne	d0021ee0 <Hsmmc_Init+0x35c>
d0021e90:	e596e010 	ldr	lr, [r6, #16]
d0021e94:	e35e0000 	cmp	lr, #0
d0021e98:	ba000021 	blt	d0021f24 <Hsmmc_Init+0x3a0>
d0021e9c:	e3540064 	cmp	r4, #100	; 0x64
d0021ea0:	0affff7d 	beq	d0021c9c <Hsmmc_Init+0x118>
d0021ea4:	e3a01000 	mov	r1, #0
d0021ea8:	e3a02001 	mov	r2, #1
d0021eac:	e3a00037 	mov	r0, #55	; 0x37
d0021eb0:	ebfffc77 	bl	d0021094 <T.40>
d0021eb4:	e3a01000 	mov	r1, #0
d0021eb8:	e3a02003 	mov	r2, #3
d0021ebc:	e3a00029 	mov	r0, #41	; 0x29
d0021ec0:	ebfffc73 	bl	d0021094 <T.40>
d0021ec4:	e3a02001 	mov	r2, #1
d0021ec8:	e0844002 	add	r4, r4, r2
d0021ecc:	e0844002 	add	r4, r4, r2
d0021ed0:	e2505000 	subs	r5, r0, #0
d0021ed4:	e1a01005 	mov	r1, r5
d0021ed8:	e3a00037 	mov	r0, #55	; 0x37
d0021edc:	0affffe1 	beq	d0021e68 <Hsmmc_Init+0x2e4>
d0021ee0:	e59f0154 	ldr	r0, [pc, #340]	; d002203c <Hsmmc_Init+0x4b8>
d0021ee4:	eb0006c2 	bl	d00239f4 <printf>
d0021ee8:	e3e00000 	mvn	r0, #0
d0021eec:	eaffffd9 	b	d0021e58 <Hsmmc_Init+0x2d4>
d0021ef0:	e59f0148 	ldr	r0, [pc, #328]	; d0022040 <Hsmmc_Init+0x4bc>
d0021ef4:	eb0006be 	bl	d00239f4 <printf>
d0021ef8:	e3e00000 	mvn	r0, #0
d0021efc:	eaffffd5 	b	d0021e58 <Hsmmc_Init+0x2d4>
d0021f00:	e5dd4048 	ldrb	r4, [sp, #72]	; 0x48
d0021f04:	e5dd0047 	ldrb	r0, [sp, #71]	; 0x47
d0021f08:	e5ddc046 	ldrb	ip, [sp, #70]	; 0x46
d0021f0c:	e204103f 	and	r1, r4, #63	; 0x3f
d0021f10:	e08c3400 	add	r3, ip, r0, lsl #8
d0021f14:	e0832801 	add	r2, r3, r1, lsl #16
d0021f18:	e282e001 	add	lr, r2, #1
d0021f1c:	e1a0450e 	lsl	r4, lr, #10
d0021f20:	eaffffc6 	b	d0021e40 <Hsmmc_Init+0x2bc>
d0021f24:	e3a0c001 	mov	ip, #1
d0021f28:	e5c7c000 	strb	ip, [r7]
d0021f2c:	e59f0110 	ldr	r0, [pc, #272]	; d0022044 <Hsmmc_Init+0x4c0>
d0021f30:	eb0006af 	bl	d00239f4 <printf>
d0021f34:	eaffff58 	b	d0021c9c <Hsmmc_Init+0x118>
d0021f38:	e1a02423 	lsr	r2, r3, #8
d0021f3c:	e202100f 	and	r1, r2, #15
d0021f40:	e3510001 	cmp	r1, #1
d0021f44:	1affff54 	bne	d0021c9c <Hsmmc_Init+0x118>
d0021f48:	e59f60cc 	ldr	r6, [pc, #204]	; d002201c <Hsmmc_Init+0x498>
d0021f4c:	e1a05004 	mov	r5, r4
d0021f50:	ea000001 	b	d0021f5c <Hsmmc_Init+0x3d8>
d0021f54:	e3550064 	cmp	r5, #100	; 0x64
d0021f58:	0affff4f 	beq	d0021c9c <Hsmmc_Init+0x118>
d0021f5c:	e3a01000 	mov	r1, #0
d0021f60:	e3a02001 	mov	r2, #1
d0021f64:	e3a00037 	mov	r0, #55	; 0x37
d0021f68:	ebfffc49 	bl	d0021094 <T.40>
d0021f6c:	e3841101 	orr	r1, r4, #1073741824	; 0x40000000
d0021f70:	e3a00029 	mov	r0, #41	; 0x29
d0021f74:	e3a02003 	mov	r2, #3
d0021f78:	ebfffc45 	bl	d0021094 <T.40>
d0021f7c:	e5964010 	ldr	r4, [r6, #16]
d0021f80:	e2855001 	add	r5, r5, #1
d0021f84:	e3540000 	cmp	r4, #0
d0021f88:	aafffff1 	bge	d0021f54 <Hsmmc_Init+0x3d0>
d0021f8c:	e3140101 	tst	r4, #1073741824	; 0x40000000
d0021f90:	0a000017 	beq	d0021ff4 <Hsmmc_Init+0x470>
d0021f94:	e3a03003 	mov	r3, #3
d0021f98:	e5c73000 	strb	r3, [r7]
d0021f9c:	e59f00a4 	ldr	r0, [pc, #164]	; d0022048 <Hsmmc_Init+0x4c4>
d0021fa0:	eb000693 	bl	d00239f4 <printf>
d0021fa4:	eaffff3c 	b	d0021c9c <Hsmmc_Init+0x118>
d0021fa8:	e5dd1032 	ldrb	r1, [sp, #50]	; 0x32
d0021fac:	e3110002 	tst	r1, #2
d0021fb0:	0affff7d 	beq	d0021dac <Hsmmc_Init+0x228>
d0021fb4:	e3a00001 	mov	r0, #1
d0021fb8:	e1a0300d 	mov	r3, sp
d0021fbc:	e3a01000 	mov	r1, #0
d0021fc0:	e1a02000 	mov	r2, r0
d0021fc4:	ebfffb87 	bl	d0020de8 <Hsmmc_Switch>
d0021fc8:	e3500000 	cmp	r0, #0
d0021fcc:	1affff76 	bne	d0021dac <Hsmmc_Init+0x228>
d0021fd0:	e5dde02f 	ldrb	lr, [sp, #47]	; 0x2f
d0021fd4:	e20ec00f 	and	ip, lr, #15
d0021fd8:	e35c0001 	cmp	ip, #1
d0021fdc:	1affff72 	bne	d0021dac <Hsmmc_Init+0x228>
d0021fe0:	e59f0064 	ldr	r0, [pc, #100]	; d002204c <Hsmmc_Init+0x4c8>
d0021fe4:	eb000682 	bl	d00239f4 <printf>
d0021fe8:	e59f0060 	ldr	r0, [pc, #96]	; d0022050 <Hsmmc_Init+0x4cc>
d0021fec:	ebfff9c3 	bl	d0020700 <Hsmmc_SetClock>
d0021ff0:	eaffff6f 	b	d0021db4 <Hsmmc_Init+0x230>
d0021ff4:	e3a0c002 	mov	ip, #2
d0021ff8:	e5c7c000 	strb	ip, [r7]
d0021ffc:	e59f0050 	ldr	r0, [pc, #80]	; d0022054 <Hsmmc_Init+0x4d0>
d0022000:	eb00067b 	bl	d00239f4 <printf>
d0022004:	eaffff24 	b	d0021c9c <Hsmmc_Init+0x118>
d0022008:	e0100000 	ands	r0, r0, r0
d002200c:	e0200000 	eor	r0, r0, r0
d0022010:	02222222 	eoreq	r2, r2, #536870914	; 0x20000002
d0022014:	00002aaa 	andeq	r2, r0, sl, lsr #21
d0022018:	00003fff 	strdeq	r3, [r0], -pc
d002201c:	eb200000 	bl	d0822024 <bss_end+0x7fb568>
d0022020:	d0022308 	andle	r2, r2, r8, lsl #6
d0022024:	00061a80 	andeq	r1, r6, r0, lsl #21
d0022028:	d0022058 	andle	r2, r2, r8, asr r0
d002202c:	000001aa 	andeq	r0, r0, sl, lsr #3
d0022030:	016e3600 	cmneq	lr, r0, lsl #12
d0022034:	d00223c0 	andle	r2, r2, r0, asr #7
d0022038:	d00223e0 	andle	r2, r2, r0, ror #7
d002203c:	d0022338 	andle	r2, r2, r8, lsr r3
d0022040:	d00223f4 	strdle	r2, [r2], -r4
d0022044:	d0022314 	andle	r2, r2, r4, lsl r3
d0022048:	d0022354 	andle	r2, r2, r4, asr r3
d002204c:	d0022398 	mulle	r2, r8, r3
d0022050:	02dc6c00 	sbcseq	r6, ip, #0
d0022054:	d002236c 	andle	r2, r2, ip, ror #6

d0022058 <CardType>:
d0022058:	00000000 	andeq	r0, r0, r0

d002205c <RCA>:
d002205c:	00000000 	andeq	r0, r0, r0
d0022060:	6d6d6f43 	stclvs	15, cr6, [sp, #-268]!	; 0xfffffef4
d0022064:	20646e61 	rsbcs	r6, r4, r1, ror #28
d0022068:	6f727265 	svcvs	0x00727265
d002206c:	45202c72 	strmi	r2, [r0, #-3186]!	; 0xc72
d0022070:	4e495252 	mcrmi	2, 2, r5, cr9, cr2, {2}
d0022074:	53545354 	cmppl	r4, #1342177281	; 0x50000001
d0022078:	30203d20 	eorcc	r3, r0, r0, lsr #26
d002207c:	20782578 	rsbscs	r2, r8, r8, ror r5
d0022080:	00000000 	andeq	r0, r0, r0
d0022084:	6e617254 	mcrvs	2, 3, r7, cr1, cr4, {2}
d0022088:	72656673 	rsbvc	r6, r5, #120586240	; 0x7300000
d002208c:	72726520 	rsbsvc	r6, r2, #134217728	; 0x8000000
d0022090:	202c726f 	eorcs	r7, ip, pc, ror #4
d0022094:	314d4872 	cmpcc	sp, r2, ror r8
d0022098:	5252455f 	subspl	r4, r2, #398458880	; 0x17c00000
d002209c:	53544e49 	cmppl	r4, #1168	; 0x490
d00220a0:	3d205354 	stccc	3, cr5, [r0, #-336]!	; 0xfffffeb0
d00220a4:	25783020 	ldrbcs	r3, [r8, #-32]!
d00220a8:	0d783430 	cfldrdeq	mvd3, [r8, #-192]!	; 0xffffff40
d00220ac:	0000000a 	andeq	r0, r0, sl
d00220b0:	64616552 	strbtvs	r6, [r1], #-1362	; 0x552
d00220b4:	66756220 	ldrbtvs	r6, [r5], -r0, lsr #4
d00220b8:	20726566 	rsbscs	r6, r2, r6, ror #10
d00220bc:	6f727265 	svcvs	0x00727265
d00220c0:	4e202c72 	mcrmi	12, 1, r2, cr0, cr2, {3}
d00220c4:	4e49524f 	cdpmi	2, 4, cr5, cr9, cr15, {2}
d00220c8:	53545354 	cmppl	r4, #1342177281	; 0x50000001
d00220cc:	3025203a 	eorcc	r2, r5, sl, lsr r0
d00220d0:	0a0d7834 	beq	d03801a8 <bss_end+0x3596ec>
d00220d4:	00000000 	andeq	r0, r0, r0
d00220d8:	6d6d7348 	stclvs	3, cr7, [sp, #-288]!	; 0xfffffee0
d00220dc:	65525f63 	ldrbvs	r5, [r2, #-3939]	; 0xf63
d00220e0:	6c426461 	cfstrdvs	mvd6, [r2], {97}	; 0x61
d00220e4:	0d6b636f 	stcleq	3, cr6, [fp, #-444]!	; 0xfffffe44
d00220e8:	0000000a 	andeq	r0, r0, sl
d00220ec:	6d6d7348 	stclvs	3, cr7, [sp, #-288]!	; 0xfffffee0
d00220f0:	61575f63 	cmpvs	r7, r3, ror #30
d00220f4:	6f467469 	svcvs	0x00467469
d00220f8:	6d6f4372 	stclvs	3, cr4, [pc, #-456]!	; 0xfffffe38
d00220fc:	646e616d 	strbtvs	r6, [lr], #-365	; 0x16d
d0022100:	656e6f44 	strbvs	r6, [lr, #-3908]!	; 0xf44
d0022104:	64252020 	strtvs	r2, [r5], #-32
d0022108:	000a0d20 	andeq	r0, sl, r0, lsr #26
d002210c:	64616552 	strbtvs	r6, [r1], #-1362	; 0x552
d0022110:	6d6f4320 	stclvs	3, cr4, [pc, #-128]!	; 0xffffff80
d0022114:	646e616d 	strbtvs	r6, [lr], #-365	; 0x16d
d0022118:	72726520 	rsbsvc	r6, r2, #134217728	; 0x8000000
d002211c:	0a0d726f 	beq	d037eae0 <bss_end+0x358024>
d0022120:	00000000 	andeq	r0, r0, r0
d0022124:	6d6d7348 	stclvs	3, cr7, [sp, #-288]!	; 0xfffffee0
d0022128:	61575f63 	cmpvs	r7, r3, ror #30
d002212c:	6f467469 	svcvs	0x00467469
d0022130:	66754272 	undefined instruction 0x66754272
d0022134:	52726566 	rsbspl	r6, r2, #427819008	; 0x19800000
d0022138:	52646165 	rsbpl	r6, r4, #1073741849	; 0x40000019
d002213c:	79646165 	stmdbvc	r4!, {r0, r2, r5, r6, r8, sp, lr}^
d0022140:	20642520 	rsbcs	r2, r4, r0, lsr #10
d0022144:	00000a0d 	andeq	r0, r0, sp, lsl #20
d0022148:	7542702a 	strbvc	r7, [r2, #-42]	; 0x2a
d002214c:	72656666 	rsbvc	r6, r5, #106954752	; 0x6600000
d0022150:	62203420 	eorvs	r3, r0, #536870912	; 0x20000000
d0022154:	73657479 	cmnvc	r5, #2030043136	; 0x79000000
d0022158:	20642520 	rsbcs	r2, r4, r0, lsr #10
d002215c:	00000a0d 	andeq	r0, r0, sp, lsl #20
d0022160:	7542702a 	strbvc	r7, [r2, #-42]	; 0x2a
d0022164:	72656666 	rsbvc	r6, r5, #106954752	; 0x6600000
d0022168:	62203120 	eorvs	r3, r0, #8
d002216c:	20657479 	rsbcs	r7, r5, r9, ror r4
d0022170:	0d206425 	cfstrseq	mvf6, [r0, #-148]!	; 0xffffff6c
d0022174:	0000000a 	andeq	r0, r0, sl
d0022178:	6d6d7348 	stclvs	3, cr7, [sp, #-288]!	; 0xfffffee0
d002217c:	61575f63 	cmpvs	r7, r3, ror #30
d0022180:	6f467469 	svcvs	0x00467469
d0022184:	61725472 	cmnvs	r2, r2, ror r4
d0022188:	6566736e 	strbvs	r7, [r6, #-878]!	; 0x36e
d002218c:	6e6f4472 	mcrvs	4, 3, r4, cr15, cr2, {3}
d0022190:	64252065 	strtvs	r2, [r5], #-101	; 0x65
d0022194:	000a0d20 	andeq	r0, sl, r0, lsr #26
d0022198:	64616552 	strbtvs	r6, [r1], #-1362	; 0x552
d002219c:	6f6c6220 	svcvs	0x006c6220
d00221a0:	65206b63 	strvs	r6, [r0, #-2915]!	; 0xb63
d00221a4:	726f7272 	rsbvc	r7, pc, #536870919	; 0x20000007
d00221a8:	00000a0d 	andeq	r0, r0, sp, lsl #20
d00221ac:	36444d43 	strbcc	r4, [r4], -r3, asr #26
d00221b0:	72726520 	rsbsvc	r6, r2, #134217728	; 0x8000000
d00221b4:	0a0d726f 	beq	d037eb78 <bss_end+0x3580bc>
d00221b8:	00000000 	andeq	r0, r0, r0
d00221bc:	20746547 	rsbscs	r6, r4, r7, asr #10
d00221c0:	73206473 	teqvc	r0, #1929379840	; 0x73000000
d00221c4:	75746174 	ldrbvc	r6, [r4, #-372]!	; 0x174
d00221c8:	72652073 	rsbvc	r2, r5, #115	; 0x73
d00221cc:	0d726f72 	ldcleq	15, cr6, [r2, #-456]!	; 0xfffffe38
d00221d0:	0000000a 	andeq	r0, r0, sl
d00221d4:	20444d43 	subcs	r4, r4, r3, asr #26
d00221d8:	656e696c 	strbvs	r6, [lr, #-2412]!	; 0x96c
d00221dc:	6d697420 	cfstrdvs	mvd7, [r9, #-128]!	; 0xffffff80
d00221e0:	756f2065 	strbvc	r2, [pc, #-101]!	; d0022183 <RCA+0x127>
d00221e4:	50202c74 	eorpl	r2, r0, r4, ror ip
d00221e8:	54534e52 	ldrbpl	r4, [r3], #-3666	; 0xe52
d00221ec:	25203a53 	strcs	r3, [r0, #-2643]!	; 0xa53
d00221f0:	0d783430 	cfldrdeq	mvd3, [r8, #-192]!	; 0xffffff40
d00221f4:	0000000a 	andeq	r0, r0, sl
d00221f8:	61746144 	cmnvs	r4, r4, asr #2
d00221fc:	6e696c20 	cdpvs	12, 6, cr6, cr9, cr0, {1}
d0022200:	69742065 	ldmdbvs	r4!, {r0, r2, r5, r6, sp}^
d0022204:	6f20656d 	svcvs	0x0020656d
d0022208:	202c7475 	eorcs	r7, ip, r5, ror r4
d002220c:	534e5250 	movtpl	r5, #57936	; 0xe250
d0022210:	203a5354 	eorscs	r5, sl, r4, asr r3
d0022214:	78343025 	ldmdavc	r4!, {r0, r2, r5, ip, sp}
d0022218:	00000a0d 	andeq	r0, r0, sp, lsl #20
d002221c:	6d6d6f43 	stclvs	15, cr6, [sp, #-268]!	; 0xfffffef4
d0022220:	20646e61 	rsbcs	r6, r4, r1, ror #28
d0022224:	6425203d 	strtvs	r2, [r5], #-61	; 0x3d
d0022228:	00000a0d 	andeq	r0, r0, sp, lsl #20
d002222c:	35444d43 	strbcc	r4, [r4, #-3395]	; 0xd43
d0022230:	72652031 	rsbvc	r2, r5, #49	; 0x31
d0022234:	0d726f72 	ldcleq	15, cr6, [r2, #-456]!	; 0xfffffe38
d0022238:	0000000a 	andeq	r0, r0, sl
d002223c:	20746547 	rsbscs	r6, r4, r7, asr #10
d0022240:	20524353 	subscs	r4, r2, r3, asr r3
d0022244:	69676572 	stmdbvs	r7!, {r1, r4, r5, r6, r8, sl, sp, lr}^
d0022248:	72657473 	rsbvc	r7, r5, #1929379840	; 0x73000000
d002224c:	72726520 	rsbsvc	r6, r2, #134217728	; 0x8000000
d0022250:	0a0d726f 	beq	d037ec14 <bss_end+0x358158>
d0022254:	00000000 	andeq	r0, r0, r0
d0022258:	74697257 	strbtvc	r7, [r9], #-599	; 0x257
d002225c:	6f432065 	svcvs	0x00432065
d0022260:	6e616d6d 	cdpvs	13, 6, cr6, cr1, cr13, {3}
d0022264:	72652064 	rsbvc	r2, r5, #100	; 0x64
d0022268:	0d726f72 	ldcleq	15, cr6, [r2, #-456]!	; 0xfffffe38
d002226c:	0000000a 	andeq	r0, r0, sl
d0022270:	74697257 	strbtvc	r7, [r9], #-599	; 0x257
d0022274:	75622065 	strbvc	r2, [r2, #-101]!	; 0x65
d0022278:	72656666 	rsbvc	r6, r5, #106954752	; 0x6600000
d002227c:	72726520 	rsbsvc	r6, r2, #134217728	; 0x8000000
d0022280:	202c726f 	eorcs	r7, ip, pc, ror #4
d0022284:	49524f4e 	ldmdbmi	r2, {r1, r2, r3, r6, r8, r9, sl, fp, lr}^
d0022288:	5453544e 	ldrbpl	r5, [r3], #-1102	; 0x44e
d002228c:	25203a53 	strcs	r3, [r0, #-2643]!	; 0xa53
d0022290:	0d783430 	cfldrdeq	mvd3, [r8, #-192]!	; 0xffffff40
d0022294:	0000000a 	andeq	r0, r0, sl
d0022298:	74697257 	strbtvc	r7, [r9], #-599	; 0x257
d002229c:	6c622065 	stclvs	0, cr2, [r2], #-404	; 0xfffffe6c
d00222a0:	206b636f 	rsbcs	r6, fp, pc, ror #6
d00222a4:	6f727245 	svcvs	0x00727245
d00222a8:	61745372 	cmnvs	r4, r2, ror r3
d00222ac:	25206574 	strcs	r6, [r0, #-1396]!	; 0x574
d00222b0:	0a0d2064 	beq	d036a448 <bss_end+0x34398c>
d00222b4:	00000000 	andeq	r0, r0, r0
d00222b8:	74697257 	strbtvc	r7, [r9], #-599	; 0x257
d00222bc:	6c622065 	stclvs	0, cr2, [r2], #-404	; 0xfffffe6c
d00222c0:	206b636f 	rsbcs	r6, fp, pc, ror #6
d00222c4:	6f727265 	svcvs	0x00727265
d00222c8:	000a0d72 	andeq	r0, sl, r2, ror sp
d00222cc:	73617245 	cmnvc	r1, #1342177284	; 0x50000004
d00222d0:	20676e69 	rsbcs	r6, r7, r9, ror #28
d00222d4:	706d6f63 	rsbvc	r6, sp, r3, ror #30
d00222d8:	6574656c 	ldrbvs	r6, [r4, #-1388]!	; 0x56c
d00222dc:	000a0d21 	andeq	r0, sl, r1, lsr #26
d00222e0:	73617245 	cmnvc	r1, #1342177284	; 0x50000004
d00222e4:	6c622065 	stclvs	0, cr2, [r2], #-404	; 0xfffffe6c
d00222e8:	206b636f 	rsbcs	r6, fp, pc, ror #6
d00222ec:	6c696166 	stfvse	f6, [r9], #-408	; 0xfffffe68
d00222f0:	0a0d6465 	beq	d037b48c <bss_end+0x3549d0>
d00222f4:	00000000 	andeq	r0, r0, r0
d00222f8:	31444d43 	cmpcc	r4, r3, asr #26
d00222fc:	72652033 	rsbvc	r2, r5, #51	; 0x33
d0022300:	0d726f72 	ldcleq	15, cr6, [r2, #-456]!	; 0xfffffe38
d0022304:	0000000a 	andeq	r0, r0, sl
d0022308:	63206473 	teqvs	r0, #1929379840	; 0x73000000
d002230c:	6b636f6c 	blvs	d18fe0c4 <bss_end+0x18d7608>
d0022310:	00000000 	andeq	r0, r0, r0
d0022314:	63204453 	teqvs	r0, #1392508928	; 0x53000000
d0022318:	20647261 	rsbcs	r7, r4, r1, ror #4
d002231c:	73726576 	cmnvc	r2, #494927872	; 0x1d800000
d0022320:	206e6f69 	rsbcs	r6, lr, r9, ror #30
d0022324:	20782e31 	rsbscs	r2, r8, r1, lsr lr
d0022328:	64207369 	strtvs	r7, [r0], #-873	; 0x369
d002232c:	63657465 	cmnvs	r5, #1694498816	; 0x65000000
d0022330:	0d646574 	cfstr64eq	mvdx6, [r4, #-464]!	; 0xfffffe30
d0022334:	0000000a 	andeq	r0, r0, sl
d0022338:	20434d4d 	subcs	r4, r3, sp, asr #26
d002233c:	64726163 	ldrbtvs	r6, [r2], #-355	; 0x163
d0022340:	20736920 	rsbscs	r6, r3, r0, lsr #18
d0022344:	20746f6e 	rsbscs	r6, r4, lr, ror #30
d0022348:	70707573 	rsbsvc	r7, r0, r3, ror r5
d002234c:	6574726f 	ldrbvs	r7, [r4, #-623]!	; 0x26f
d0022350:	000a0d64 	andeq	r0, sl, r4, ror #26
d0022354:	43484453 	movtmi	r4, #33875	; 0x8453
d0022358:	72616320 	rsbvc	r6, r1, #-2147483648	; 0x80000000
d002235c:	73692064 	cmnvc	r9, #100	; 0x64
d0022360:	74656420 	strbtvc	r6, [r5], #-1056	; 0x420
d0022364:	65746365 	ldrbvs	r6, [r4, #-869]!	; 0x365
d0022368:	000a0d64 	andeq	r0, sl, r4, ror #26
d002236c:	76204453 	undefined instruction 0x76204453
d0022370:	69737265 	ldmdbvs	r3!, {r0, r2, r5, r6, r9, ip, sp, lr}^
d0022374:	32206e6f 	eorcc	r6, r0, #1776	; 0x6f0
d0022378:	7320302e 	teqvc	r0, #46	; 0x2e
d002237c:	646e6174 	strbtvs	r6, [lr], #-372	; 0x174
d0022380:	20647261 	rsbcs	r7, r4, r1, ror #4
d0022384:	64726163 	ldrbtvs	r6, [r2], #-355	; 0x163
d0022388:	20736920 	rsbscs	r6, r3, r0, lsr #18
d002238c:	65746564 	ldrbvs	r6, [r4, #-1380]!	; 0x564
d0022390:	64657463 	strbtvs	r7, [r5], #-1123	; 0x463
d0022394:	00000a0d 	andeq	r0, r0, sp, lsl #20
d0022398:	74697753 	strbtvc	r7, [r9], #-1875	; 0x753
d002239c:	74206863 	strtvc	r6, [r0], #-2147	; 0x863
d00223a0:	6968206f 	stmdbvs	r8!, {r0, r1, r2, r3, r5, r6, sp}^
d00223a4:	73206867 	teqvc	r0, #6750208	; 0x670000
d00223a8:	64656570 	strbtvs	r6, [r5], #-1392	; 0x570
d00223ac:	646f6d20 	strbtvs	r6, [pc], #3360	; d00223b4 <RCA+0x358>
d00223b0:	43203a65 	teqmi	r0, #413696	; 0x65000
d00223b4:	40204b4c 	eormi	r4, r0, ip, asr #22
d00223b8:	4d303520 	cfldr32mi	mvfx3, [r0, #-128]!	; 0xffffff80
d00223bc:	00000a0d 	andeq	r0, r0, sp, lsl #20
d00223c0:	64726143 	ldrbtvs	r6, [r2], #-323	; 0x143
d00223c4:	696e4920 	stmdbvs	lr!, {r5, r8, fp, lr}^
d00223c8:	6c616974 	stclvs	9, cr6, [r1], #-464	; 0xfffffe30
d00223cc:	74617a69 	strbtvc	r7, [r1], #-2665	; 0xa69
d00223d0:	206e6f69 	rsbcs	r6, lr, r9, ror #30
d00223d4:	63637573 	cmnvs	r3, #482344960	; 0x1cc00000
d00223d8:	0d646565 	cfstr64eq	mvdx6, [r4, #-404]!	; 0xfffffe6c
d00223dc:	0000000a 	andeq	r0, r0, sl
d00223e0:	61706143 	cmnvs	r0, r3, asr #2
d00223e4:	79746963 	ldmdbvc	r4!, {r0, r1, r5, r6, r8, fp, sp, lr}^
d00223e8:	6c25203a 	stcvs	0, cr2, [r5], #-232	; 0xffffff18
d00223ec:	0d424d64 	stcleq	13, cr4, [r2, #-400]	; 0xfffffe70
d00223f0:	0000000a 	andeq	r0, r0, sl
d00223f4:	64726143 	ldrbtvs	r6, [r2], #-323	; 0x143
d00223f8:	696e4920 	stmdbvs	lr!, {r5, r8, fp, lr}^
d00223fc:	6c616974 	stclvs	9, cr6, [r1], #-464	; 0xfffffe30
d0022400:	74617a69 	strbtvc	r7, [r1], #-2665	; 0xa69
d0022404:	206e6f69 	rsbcs	r6, lr, r9, ror #30
d0022408:	6c696166 	stfvse	f6, [r9], #-408	; 0xfffffe68
d002240c:	0a0d6465 	beq	d037b5a8 <bss_end+0x354aec>
d0022410:	00000000 	andeq	r0, r0, r0
d0022414:	43434700 	movtmi	r4, #14080	; 0x3700
d0022418:	5328203a 	teqpl	r8, #58	; 0x3a
d002241c:	6372756f 	cmnvs	r2, #465567744	; 0x1bc00000
d0022420:	20797265 	rsbscs	r7, r9, r5, ror #4
d0022424:	202b2b47 	eorcs	r2, fp, r7, asr #22
d0022428:	6574694c 	ldrbvs	r6, [r4, #-2380]!	; 0x94c
d002242c:	30303220 	eorscc	r3, r0, r0, lsr #4
d0022430:	2d337139 	ldfcss	f7, [r3, #-228]!	; 0xffffff1c
d0022434:	20293736 	eorcs	r3, r9, r6, lsr r7
d0022438:	2e342e34 	mrccs	14, 1, r2, cr4, cr4, {1}
d002243c:	2a410031 	bcs	d1062508 <bss_end+0x103ba4c>
d0022440:	61000000 	tstvs	r0, r0
d0022444:	69626165 	stmdbvs	r2!, {r0, r2, r5, r6, r8, sp, lr}^
d0022448:	00200100 	eoreq	r0, r0, r0, lsl #2
d002244c:	35050000 	strcc	r0, [r5]
d0022450:	06004554 	undefined instruction 0x06004554
d0022454:	09010804 	stmdbeq	r1, {r2, fp}
d0022458:	14041201 	strne	r1, [r4], #-513	; 0x201
d002245c:	17011501 	strne	r1, [r1, -r1, lsl #10]
d0022460:	19011803 	stmdbne	r1, {r0, r1, fp, ip}
d0022464:	1e021a01 	vmlane.f32	s2, s4, s2
d0022468:	00000002 	andeq	r0, r0, r2

d002246c <led_blink>:
d002246c:	e59f3058 	ldr	r3, [pc, #88]	; d00224cc <led_blink+0x60>
d0022470:	e59f1058 	ldr	r1, [pc, #88]	; d00224d0 <led_blink+0x64>
d0022474:	e52de004 	push	{lr}		; (str lr, [sp, #-4]!)
d0022478:	e1a02003 	mov	r2, r3
d002247c:	e59fe050 	ldr	lr, [pc, #80]	; d00224d4 <led_blink+0x68>
d0022480:	e24dd00c 	sub	sp, sp, #12
d0022484:	e3a0c000 	mov	ip, #0
d0022488:	e3a00038 	mov	r0, #56	; 0x38
d002248c:	e583e240 	str	lr, [r3, #576]	; 0x240
d0022490:	e582c244 	str	ip, [r2, #580]	; 0x244
d0022494:	e58d1004 	str	r1, [sp, #4]
d0022498:	e59de004 	ldr	lr, [sp, #4]
d002249c:	e24e3001 	sub	r3, lr, #1
d00224a0:	e35e0000 	cmp	lr, #0
d00224a4:	e58d3004 	str	r3, [sp, #4]
d00224a8:	1afffffa 	bne	d0022498 <led_blink+0x2c>
d00224ac:	e5820244 	str	r0, [r2, #580]	; 0x244
d00224b0:	e58d1004 	str	r1, [sp, #4]
d00224b4:	e59de004 	ldr	lr, [sp, #4]
d00224b8:	e24e3001 	sub	r3, lr, #1
d00224bc:	e35e0000 	cmp	lr, #0
d00224c0:	e58d3004 	str	r3, [sp, #4]
d00224c4:	1afffffa 	bne	d00224b4 <led_blink+0x48>
d00224c8:	eafffff0 	b	d0022490 <led_blink+0x24>
d00224cc:	e0200000 	eor	r0, r0, r0
d00224d0:	000dbba0 	andeq	fp, sp, r0, lsr #23
d00224d4:	11111111 	tstne	r1, r1, lsl r1

d00224d8 <led1>:
d00224d8:	e59f3010 	ldr	r3, [pc, #16]	; d00224f0 <led1+0x18>
d00224dc:	e59f0010 	ldr	r0, [pc, #16]	; d00224f4 <led1+0x1c>
d00224e0:	e3a02030 	mov	r2, #48	; 0x30
d00224e4:	e5830240 	str	r0, [r3, #576]	; 0x240
d00224e8:	e5832244 	str	r2, [r3, #580]	; 0x244
d00224ec:	e12fff1e 	bx	lr
d00224f0:	e0200000 	eor	r0, r0, r0
d00224f4:	11111111 	tstne	r1, r1, lsl r1

d00224f8 <led2>:
d00224f8:	e59f3010 	ldr	r3, [pc, #16]	; d0022510 <led2+0x18>
d00224fc:	e59f0010 	ldr	r0, [pc, #16]	; d0022514 <led2+0x1c>
d0022500:	e3a02020 	mov	r2, #32
d0022504:	e5830240 	str	r0, [r3, #576]	; 0x240
d0022508:	e5832244 	str	r2, [r3, #580]	; 0x244
d002250c:	e12fff1e 	bx	lr
d0022510:	e0200000 	eor	r0, r0, r0
d0022514:	11111111 	tstne	r1, r1, lsl r1

d0022518 <led3>:
d0022518:	e59f3010 	ldr	r3, [pc, #16]	; d0022530 <led3+0x18>
d002251c:	e59f0010 	ldr	r0, [pc, #16]	; d0022534 <led3+0x1c>
d0022520:	e3a02000 	mov	r2, #0
d0022524:	e5830240 	str	r0, [r3, #576]	; 0x240
d0022528:	e5832244 	str	r2, [r3, #580]	; 0x244
d002252c:	e12fff1e 	bx	lr
d0022530:	e0200000 	eor	r0, r0, r0
d0022534:	11111111 	tstne	r1, r1, lsl r1

d0022538 <led_off>:
d0022538:	e59f3010 	ldr	r3, [pc, #16]	; d0022550 <led_off+0x18>
d002253c:	e59f0010 	ldr	r0, [pc, #16]	; d0022554 <led_off+0x1c>
d0022540:	e3a02038 	mov	r2, #56	; 0x38
d0022544:	e5830240 	str	r0, [r3, #576]	; 0x240
d0022548:	e5832244 	str	r2, [r3, #580]	; 0x244
d002254c:	e12fff1e 	bx	lr
d0022550:	e0200000 	eor	r0, r0, r0
d0022554:	11111111 	tstne	r1, r1, lsl r1

d0022558 <clock_init>:
d0022558:	e59f3034 	ldr	r3, [pc, #52]	; d0022594 <clock_init+0x3c>
d002255c:	e59f2034 	ldr	r2, [pc, #52]	; d0022598 <clock_init+0x40>
d0022560:	e3a00000 	mov	r0, #0
d0022564:	e5830200 	str	r0, [r3, #512]	; 0x200
d0022568:	e59fc02c 	ldr	ip, [pc, #44]	; d002259c <clock_init+0x44>
d002256c:	e5832000 	str	r2, [r3]
d0022570:	e59f1028 	ldr	r1, [pc, #40]	; d00225a0 <clock_init+0x48>
d0022574:	e5832008 	str	r2, [r3, #8]
d0022578:	e59f0024 	ldr	r0, [pc, #36]	; d00225a4 <clock_init+0x4c>
d002257c:	e59f2024 	ldr	r2, [pc, #36]	; d00225a8 <clock_init+0x50>
d0022580:	e583c300 	str	ip, [r3, #768]	; 0x300
d0022584:	e5831100 	str	r1, [r3, #256]	; 0x100
d0022588:	e5830108 	str	r0, [r3, #264]	; 0x108
d002258c:	e5832200 	str	r2, [r3, #512]	; 0x200
d0022590:	e12fff1e 	bx	lr
d0022594:	e0100000 	ands	r0, r0, r0
d0022598:	0000ffff 	strdeq	pc, [r0], -pc
d002259c:	14131440 	ldrne	r1, [r3], #-1088	; 0x440
d00225a0:	807d0301 	rsbshi	r0, sp, r1, lsl #6
d00225a4:	829b0c01 	addshi	r0, fp, #256	; 0x100
d00225a8:	10001111 	andne	r1, r0, r1, lsl r1

d00225ac <get_pll_clk>:
d00225ac:	e92d4010 	push	{r4, lr}
d00225b0:	e3500004 	cmp	r0, #4
d00225b4:	979ff100 	ldrls	pc, [pc, r0, lsl #2]
d00225b8:	ea00002f 	b	d002267c <get_pll_clk+0xd0>
d00225bc:	d0022644 	andle	r2, r2, r4, asr #12
d00225c0:	d0022610 	andle	r2, r2, r0, lsl r6
d00225c4:	d0022604 	andle	r2, r2, r4, lsl #12
d00225c8:	d002267c 	andle	r2, r2, ip, ror r6
d00225cc:	d00225d0 	ldrdle	r2, [r2], -r0
d00225d0:	e59f20ac 	ldr	r2, [pc, #172]	; d0022684 <get_pll_clk+0xd8>
d00225d4:	e5923000 	ldr	r3, [r2]
d00225d8:	e1a0c423 	lsr	ip, r3, #8
d00225dc:	e1a04823 	lsr	r4, r3, #16
d00225e0:	e20c103f 	and	r1, ip, #63	; 0x3f
d00225e4:	e2033007 	and	r3, r3, #7
d00225e8:	e1a0eb84 	lsl	lr, r4, #23
d00225ec:	e1a01311 	lsl	r1, r1, r3
d00225f0:	e59f0090 	ldr	r0, [pc, #144]	; d0022688 <get_pll_clk+0xdc>
d00225f4:	e1a04bae 	lsr	r4, lr, #23
d00225f8:	eb00048f 	bl	d002383c <__aeabi_uidiv>
d00225fc:	e0000094 	mul	r0, r4, r0
d0022600:	e8bd8010 	pop	{r4, pc}
d0022604:	e59f1080 	ldr	r1, [pc, #128]	; d002268c <get_pll_clk+0xe0>
d0022608:	e5913000 	ldr	r3, [r1]
d002260c:	eafffff1 	b	d00225d8 <get_pll_clk+0x2c>
d0022610:	e59f3078 	ldr	r3, [pc, #120]	; d0022690 <get_pll_clk+0xe4>
d0022614:	e593c000 	ldr	ip, [r3]
d0022618:	e1a0e42c 	lsr	lr, ip, #8
d002261c:	e1a0082c 	lsr	r0, ip, #16
d0022620:	e20e103f 	and	r1, lr, #63	; 0x3f
d0022624:	e20c3007 	and	r3, ip, #7
d0022628:	e1a04b00 	lsl	r4, r0, #22
d002262c:	e1a01311 	lsl	r1, r1, r3
d0022630:	e59f0050 	ldr	r0, [pc, #80]	; d0022688 <get_pll_clk+0xdc>
d0022634:	eb000480 	bl	d002383c <__aeabi_uidiv>
d0022638:	e1a04b24 	lsr	r4, r4, #22
d002263c:	e0000094 	mul	r0, r4, r0
d0022640:	e8bd8010 	pop	{r4, pc}
d0022644:	e59f2048 	ldr	r2, [pc, #72]	; d0022694 <get_pll_clk+0xe8>
d0022648:	e5920000 	ldr	r0, [r2]
d002264c:	e1a01820 	lsr	r1, r0, #16
d0022650:	e1a04b01 	lsl	r4, r1, #22
d0022654:	e1a03420 	lsr	r3, r0, #8
d0022658:	e2101007 	ands	r1, r0, #7
d002265c:	e203303f 	and	r3, r3, #63	; 0x3f
d0022660:	12411001 	subne	r1, r1, #1
d0022664:	e1a01113 	lsl	r1, r3, r1
d0022668:	e59f0018 	ldr	r0, [pc, #24]	; d0022688 <get_pll_clk+0xdc>
d002266c:	eb000472 	bl	d002383c <__aeabi_uidiv>
d0022670:	e1a04b24 	lsr	r4, r4, #22
d0022674:	e0000094 	mul	r0, r4, r0
d0022678:	e8bd8010 	pop	{r4, pc}
d002267c:	e3a00000 	mov	r0, #0
d0022680:	e8bd8010 	pop	{r4, pc}
d0022684:	e0100120 	ands	r0, r0, r0, lsr #2
d0022688:	016e3600 	cmneq	lr, r0, lsl #12
d002268c:	e0100110 	ands	r0, r0, r0, lsl r1
d0022690:	e0100108 	ands	r0, r0, r8, lsl #2
d0022694:	e0100100 	ands	r0, r0, r0, lsl #2

d0022698 <get_arm_clk>:
d0022698:	e59f301c 	ldr	r3, [pc, #28]	; d00226bc <get_arm_clk+0x24>
d002269c:	e92d4010 	push	{r4, lr}
d00226a0:	e5934000 	ldr	r4, [r3]
d00226a4:	e3a00000 	mov	r0, #0
d00226a8:	ebffffbf 	bl	d00225ac <get_pll_clk>
d00226ac:	e2041007 	and	r1, r4, #7
d00226b0:	e2811001 	add	r1, r1, #1
d00226b4:	eb000460 	bl	d002383c <__aeabi_uidiv>
d00226b8:	e8bd8010 	pop	{r4, pc}
d00226bc:	e0100300 	ands	r0, r0, r0, lsl #6

d00226c0 <get_uart_clk>:
d00226c0:	e92d4038 	push	{r3, r4, r5, lr}
d00226c4:	e59f3030 	ldr	r3, [pc, #48]	; d00226fc <get_uart_clk+0x3c>
d00226c8:	e3a00001 	mov	r0, #1
d00226cc:	e5934000 	ldr	r4, [r3]
d00226d0:	e5935000 	ldr	r5, [r3]
d00226d4:	ebffffb4 	bl	d00225ac <get_pll_clk>
d00226d8:	e1a05c25 	lsr	r5, r5, #24
d00226dc:	e205200f 	and	r2, r5, #15
d00226e0:	e2821001 	add	r1, r2, #1
d00226e4:	e1a04e24 	lsr	r4, r4, #28
d00226e8:	eb000453 	bl	d002383c <__aeabi_uidiv>
d00226ec:	e2041007 	and	r1, r4, #7
d00226f0:	e2811001 	add	r1, r1, #1
d00226f4:	eb000450 	bl	d002383c <__aeabi_uidiv>
d00226f8:	e8bd8038 	pop	{r3, r4, r5, pc}
d00226fc:	e0100300 	ands	r0, r0, r0, lsl #6

d0022700 <system_init_exception>:
d0022700:	e59f2078 	ldr	r2, [pc, #120]	; d0022780 <system_init_exception+0x80>
d0022704:	e92d0070 	push	{r4, r5, r6}
d0022708:	e59f6074 	ldr	r6, [pc, #116]	; d0022784 <system_init_exception+0x84>
d002270c:	e5826400 	str	r6, [r2, #1024]	; 0x400
d0022710:	e59f6070 	ldr	r6, [pc, #112]	; d0022788 <system_init_exception+0x88>
d0022714:	e5826404 	str	r6, [r2, #1028]	; 0x404
d0022718:	e59f606c 	ldr	r6, [pc, #108]	; d002278c <system_init_exception+0x8c>
d002271c:	e5826408 	str	r6, [r2, #1032]	; 0x408
d0022720:	e59f4068 	ldr	r4, [pc, #104]	; d0022790 <system_init_exception+0x90>
d0022724:	e59fc068 	ldr	ip, [pc, #104]	; d0022794 <system_init_exception+0x94>
d0022728:	e59f0068 	ldr	r0, [pc, #104]	; d0022798 <system_init_exception+0x98>
d002272c:	e59f6068 	ldr	r6, [pc, #104]	; d002279c <system_init_exception+0x9c>
d0022730:	e582640c 	str	r6, [r2, #1036]	; 0x40c
d0022734:	e3a03000 	mov	r3, #0
d0022738:	e3e01000 	mvn	r1, #0
d002273c:	e3a054f2 	mov	r5, #-234881024	; 0xf2000000
d0022740:	e59f6058 	ldr	r6, [pc, #88]	; d00227a0 <system_init_exception+0xa0>
d0022744:	e5826410 	str	r6, [r2, #1040]	; 0x410
d0022748:	e5851014 	str	r1, [r5, #20]
d002274c:	e5841014 	str	r1, [r4, #20]
d0022750:	e58c1014 	str	r1, [ip, #20]
d0022754:	e5801014 	str	r1, [r0, #20]
d0022758:	e585300c 	str	r3, [r5, #12]
d002275c:	e584300c 	str	r3, [r4, #12]
d0022760:	e58c300c 	str	r3, [ip, #12]
d0022764:	e580300c 	str	r3, [r0, #12]
d0022768:	e5853f00 	str	r3, [r5, #3840]	; 0xf00
d002276c:	e5843f00 	str	r3, [r4, #3840]	; 0xf00
d0022770:	e58c3f00 	str	r3, [ip, #3840]	; 0xf00
d0022774:	e5803f00 	str	r3, [r0, #3840]	; 0xf00
d0022778:	e8bd0070 	pop	{r4, r5, r6}
d002277c:	e12fff1e 	bx	lr
d0022780:	d0037000 	andle	r7, r3, r0
d0022784:	d0022b38 	andle	r2, r2, r8, lsr fp
d0022788:	d0022b2c 	andle	r2, r2, ip, lsr #22
d002278c:	d0022b20 	andle	r2, r2, r0, lsr #22
d0022790:	f2100000 	vhadd.s16	d0, d0, d0
d0022794:	f2200000 	vhadd.s32	d0, d0, d0
d0022798:	f2300000 	vhadd.s<illegal width 64>	d0, d0, d0
d002279c:	d0022b14 	andle	r2, r2, r4, lsl fp
d00227a0:	d0022b08 	andle	r2, r2, r8, lsl #22

d00227a4 <intc_clearvectaddr>:
d00227a4:	e3a0c4f2 	mov	ip, #-234881024	; 0xf2000000
d00227a8:	e28c1601 	add	r1, ip, #1048576	; 0x100000
d00227ac:	e2810601 	add	r0, r1, #1048576	; 0x100000
d00227b0:	e3a03000 	mov	r3, #0
d00227b4:	e2802601 	add	r2, r0, #1048576	; 0x100000
d00227b8:	e58c3f00 	str	r3, [ip, #3840]	; 0xf00
d00227bc:	e5813f00 	str	r3, [r1, #3840]	; 0xf00
d00227c0:	e5803f00 	str	r3, [r0, #3840]	; 0xf00
d00227c4:	e5823f00 	str	r3, [r2, #3840]	; 0xf00
d00227c8:	e12fff1e 	bx	lr

d00227cc <intc_init>:
d00227cc:	e59fc04c 	ldr	ip, [pc, #76]	; d0022820 <intc_init+0x54>
d00227d0:	e59f004c 	ldr	r0, [pc, #76]	; d0022824 <intc_init+0x58>
d00227d4:	e59f104c 	ldr	r1, [pc, #76]	; d0022828 <intc_init+0x5c>
d00227d8:	e3a03000 	mov	r3, #0
d00227dc:	e3e02000 	mvn	r2, #0
d00227e0:	e52d4004 	push	{r4}		; (str r4, [sp, #-4]!)
d00227e4:	e3a044f2 	mov	r4, #-234881024	; 0xf2000000
d00227e8:	e5842014 	str	r2, [r4, #20]
d00227ec:	e58c2014 	str	r2, [ip, #20]
d00227f0:	e5802014 	str	r2, [r0, #20]
d00227f4:	e5812014 	str	r2, [r1, #20]
d00227f8:	e584300c 	str	r3, [r4, #12]
d00227fc:	e58c300c 	str	r3, [ip, #12]
d0022800:	e580300c 	str	r3, [r0, #12]
d0022804:	e581300c 	str	r3, [r1, #12]
d0022808:	e5843f00 	str	r3, [r4, #3840]	; 0xf00
d002280c:	e58c3f00 	str	r3, [ip, #3840]	; 0xf00
d0022810:	e5803f00 	str	r3, [r0, #3840]	; 0xf00
d0022814:	e5813f00 	str	r3, [r1, #3840]	; 0xf00
d0022818:	e8bd0010 	pop	{r4}
d002281c:	e12fff1e 	bx	lr
d0022820:	f2100000 	vhadd.s16	d0, d0, d0
d0022824:	f2200000 	vhadd.s32	d0, d0, d0
d0022828:	f2300000 	vhadd.s<illegal width 64>	d0, d0, d0

d002282c <intc_setvectaddr>:
d002282c:	e350001f 	cmp	r0, #31
d0022830:	9a000010 	bls	d0022878 <intc_setvectaddr+0x4c>
d0022834:	e350003f 	cmp	r0, #63	; 0x3f
d0022838:	9a000009 	bls	d0022864 <intc_setvectaddr+0x38>
d002283c:	e350005f 	cmp	r0, #95	; 0x5f
d0022840:	928005f2 	addls	r0, r0, #1015021568	; 0x3c800000
d0022844:	82400183 	subhi	r0, r0, #-1073741792	; 0xc0000020
d0022848:	92800702 	addls	r0, r0, #524288	; 0x80000
d002284c:	824007dd 	subhi	r0, r0, #57933824	; 0x3740000
d0022850:	91a00100 	lslls	r0, r0, #2
d0022854:	81a00100 	lslhi	r0, r0, #2
d0022858:	95801000 	strls	r1, [r0]
d002285c:	85801000 	strhi	r1, [r0]
d0022860:	e12fff1e 	bx	lr
d0022864:	e59f3020 	ldr	r3, [pc, #32]	; d002288c <intc_setvectaddr+0x60>
d0022868:	e0802003 	add	r2, r0, r3
d002286c:	e1a0c102 	lsl	ip, r2, #2
d0022870:	e58c1000 	str	r1, [ip]
d0022874:	e12fff1e 	bx	lr
d0022878:	e28035f2 	add	r3, r0, #1015021568	; 0x3c800000
d002287c:	e2832040 	add	r2, r3, #64	; 0x40
d0022880:	e1a00102 	lsl	r0, r2, #2
d0022884:	e5801000 	str	r1, [r0]
d0022888:	e12fff1e 	bx	lr
d002288c:	3c840020 	stccc	0, cr0, [r4], {32}

d0022890 <intc_enable>:
d0022890:	e350001f 	cmp	r0, #31
d0022894:	9a000016 	bls	d00228f4 <intc_enable+0x64>
d0022898:	e350003f 	cmp	r0, #63	; 0x3f
d002289c:	9a00000d 	bls	d00228d8 <intc_enable+0x48>
d00228a0:	e350005f 	cmp	r0, #95	; 0x5f
d00228a4:	9a00001f 	bls	d0022928 <intc_enable+0x98>
d00228a8:	e35000c7 	cmp	r0, #199	; 0xc7
d00228ac:	9a000016 	bls	d002290c <intc_enable+0x7c>
d00228b0:	e3a024f2 	mov	r2, #-234881024	; 0xf2000000
d00228b4:	e2821601 	add	r1, r2, #1048576	; 0x100000
d00228b8:	e2810601 	add	r0, r1, #1048576	; 0x100000
d00228bc:	e3e03000 	mvn	r3, #0
d00228c0:	e280c601 	add	ip, r0, #1048576	; 0x100000
d00228c4:	e5823010 	str	r3, [r2, #16]
d00228c8:	e5813010 	str	r3, [r1, #16]
d00228cc:	e5803010 	str	r3, [r0, #16]
d00228d0:	e58c3010 	str	r3, [ip, #16]
d00228d4:	e12fff1e 	bx	lr
d00228d8:	e59f3064 	ldr	r3, [pc, #100]	; d0022944 <intc_enable+0xb4>
d00228dc:	e2400020 	sub	r0, r0, #32
d00228e0:	e5932010 	ldr	r2, [r3, #16]
d00228e4:	e3a01001 	mov	r1, #1
d00228e8:	e182c011 	orr	ip, r2, r1, lsl r0
d00228ec:	e583c010 	str	ip, [r3, #16]
d00228f0:	e12fff1e 	bx	lr
d00228f4:	e3a034f2 	mov	r3, #-234881024	; 0xf2000000
d00228f8:	e5932010 	ldr	r2, [r3, #16]
d00228fc:	e3a01001 	mov	r1, #1
d0022900:	e1820011 	orr	r0, r2, r1, lsl r0
d0022904:	e5830010 	str	r0, [r3, #16]
d0022908:	e12fff1e 	bx	lr
d002290c:	e59f3034 	ldr	r3, [pc, #52]	; d0022948 <intc_enable+0xb8>
d0022910:	e2400060 	sub	r0, r0, #96	; 0x60
d0022914:	e5932010 	ldr	r2, [r3, #16]
d0022918:	e3a01001 	mov	r1, #1
d002291c:	e182c011 	orr	ip, r2, r1, lsl r0
d0022920:	e583c010 	str	ip, [r3, #16]
d0022924:	e12fff1e 	bx	lr
d0022928:	e59f301c 	ldr	r3, [pc, #28]	; d002294c <intc_enable+0xbc>
d002292c:	e2400040 	sub	r0, r0, #64	; 0x40
d0022930:	e5932010 	ldr	r2, [r3, #16]
d0022934:	e3a01001 	mov	r1, #1
d0022938:	e182c011 	orr	ip, r2, r1, lsl r0
d002293c:	e583c010 	str	ip, [r3, #16]
d0022940:	e12fff1e 	bx	lr
d0022944:	f2100000 	vhadd.s16	d0, d0, d0
d0022948:	f2300000 	vhadd.s<illegal width 64>	d0, d0, d0
d002294c:	f2200000 	vhadd.s32	d0, d0, d0

d0022950 <intc_disable>:
d0022950:	e350001f 	cmp	r0, #31
d0022954:	9a000016 	bls	d00229b4 <intc_disable+0x64>
d0022958:	e350003f 	cmp	r0, #63	; 0x3f
d002295c:	9a00000d 	bls	d0022998 <intc_disable+0x48>
d0022960:	e350005f 	cmp	r0, #95	; 0x5f
d0022964:	9a00001f 	bls	d00229e8 <intc_disable+0x98>
d0022968:	e35000c7 	cmp	r0, #199	; 0xc7
d002296c:	9a000016 	bls	d00229cc <intc_disable+0x7c>
d0022970:	e3a024f2 	mov	r2, #-234881024	; 0xf2000000
d0022974:	e2821601 	add	r1, r2, #1048576	; 0x100000
d0022978:	e2810601 	add	r0, r1, #1048576	; 0x100000
d002297c:	e3e03000 	mvn	r3, #0
d0022980:	e280c601 	add	ip, r0, #1048576	; 0x100000
d0022984:	e5823014 	str	r3, [r2, #20]
d0022988:	e5813014 	str	r3, [r1, #20]
d002298c:	e5803014 	str	r3, [r0, #20]
d0022990:	e58c3014 	str	r3, [ip, #20]
d0022994:	e12fff1e 	bx	lr
d0022998:	e59f3064 	ldr	r3, [pc, #100]	; d0022a04 <intc_disable+0xb4>
d002299c:	e2400020 	sub	r0, r0, #32
d00229a0:	e5932014 	ldr	r2, [r3, #20]
d00229a4:	e3a01001 	mov	r1, #1
d00229a8:	e182c011 	orr	ip, r2, r1, lsl r0
d00229ac:	e583c014 	str	ip, [r3, #20]
d00229b0:	e12fff1e 	bx	lr
d00229b4:	e3a034f2 	mov	r3, #-234881024	; 0xf2000000
d00229b8:	e5932014 	ldr	r2, [r3, #20]
d00229bc:	e3a01001 	mov	r1, #1
d00229c0:	e1820011 	orr	r0, r2, r1, lsl r0
d00229c4:	e5830014 	str	r0, [r3, #20]
d00229c8:	e12fff1e 	bx	lr
d00229cc:	e59f3034 	ldr	r3, [pc, #52]	; d0022a08 <intc_disable+0xb8>
d00229d0:	e2400060 	sub	r0, r0, #96	; 0x60
d00229d4:	e5932014 	ldr	r2, [r3, #20]
d00229d8:	e3a01001 	mov	r1, #1
d00229dc:	e182c011 	orr	ip, r2, r1, lsl r0
d00229e0:	e583c014 	str	ip, [r3, #20]
d00229e4:	e12fff1e 	bx	lr
d00229e8:	e59f301c 	ldr	r3, [pc, #28]	; d0022a0c <intc_disable+0xbc>
d00229ec:	e2400040 	sub	r0, r0, #64	; 0x40
d00229f0:	e5932014 	ldr	r2, [r3, #20]
d00229f4:	e3a01001 	mov	r1, #1
d00229f8:	e182c011 	orr	ip, r2, r1, lsl r0
d00229fc:	e583c014 	str	ip, [r3, #20]
d0022a00:	e12fff1e 	bx	lr
d0022a04:	f2100000 	vhadd.s16	d0, d0, d0
d0022a08:	f2300000 	vhadd.s<illegal width 64>	d0, d0, d0
d0022a0c:	f2200000 	vhadd.s32	d0, d0, d0

d0022a10 <intc_getvicirqstatus>:
d0022a10:	e3500000 	cmp	r0, #0
d0022a14:	0a000008 	beq	d0022a3c <intc_getvicirqstatus+0x2c>
d0022a18:	e3500001 	cmp	r0, #1
d0022a1c:	0a000009 	beq	d0022a48 <intc_getvicirqstatus+0x38>
d0022a20:	e3500002 	cmp	r0, #2
d0022a24:	0a00000a 	beq	d0022a54 <intc_getvicirqstatus+0x44>
d0022a28:	e3500003 	cmp	r0, #3
d0022a2c:	059f302c 	ldreq	r3, [pc, #44]	; d0022a60 <intc_getvicirqstatus+0x50>
d0022a30:	13a00000 	movne	r0, #0
d0022a34:	05930000 	ldreq	r0, [r3]
d0022a38:	e12fff1e 	bx	lr
d0022a3c:	e3a034f2 	mov	r3, #-234881024	; 0xf2000000
d0022a40:	e5930000 	ldr	r0, [r3]
d0022a44:	e12fff1e 	bx	lr
d0022a48:	e59f1014 	ldr	r1, [pc, #20]	; d0022a64 <intc_getvicirqstatus+0x54>
d0022a4c:	e5910000 	ldr	r0, [r1]
d0022a50:	e12fff1e 	bx	lr
d0022a54:	e59f200c 	ldr	r2, [pc, #12]	; d0022a68 <intc_getvicirqstatus+0x58>
d0022a58:	e5920000 	ldr	r0, [r2]
d0022a5c:	e12fff1e 	bx	lr
d0022a60:	f2300000 	vhadd.s<illegal width 64>	d0, d0, d0
d0022a64:	f2100000 	vhadd.s16	d0, d0, d0
d0022a68:	f2200000 	vhadd.s32	d0, d0, d0

d0022a6c <irq_handler>:
d0022a6c:	e59f2088 	ldr	r2, [pc, #136]	; d0022afc <irq_handler+0x90>
d0022a70:	e59f1088 	ldr	r1, [pc, #136]	; d0022b00 <irq_handler+0x94>
d0022a74:	e59f0088 	ldr	r0, [pc, #136]	; d0022b04 <irq_handler+0x98>
d0022a78:	e3a034f2 	mov	r3, #-234881024	; 0xf2000000
d0022a7c:	e92d4030 	push	{r4, r5, lr}
d0022a80:	e5935f00 	ldr	r5, [r3, #3840]	; 0xf00
d0022a84:	e5924f00 	ldr	r4, [r2, #3840]	; 0xf00
d0022a88:	e591ef00 	ldr	lr, [r1, #3840]	; 0xf00
d0022a8c:	e590cf00 	ldr	ip, [r0, #3840]	; 0xf00
d0022a90:	e5933000 	ldr	r3, [r3]
d0022a94:	e24dd014 	sub	sp, sp, #20
d0022a98:	e3530000 	cmp	r3, #0
d0022a9c:	13a03000 	movne	r3, #0
d0022aa0:	1a00000e 	bne	d0022ae0 <irq_handler+0x74>
d0022aa4:	e5923000 	ldr	r3, [r2]
d0022aa8:	e3530000 	cmp	r3, #0
d0022aac:	13a03001 	movne	r3, #1
d0022ab0:	1a00000a 	bne	d0022ae0 <irq_handler+0x74>
d0022ab4:	e5913000 	ldr	r3, [r1]
d0022ab8:	e3530000 	cmp	r3, #0
d0022abc:	13a03002 	movne	r3, #2
d0022ac0:	1a000006 	bne	d0022ae0 <irq_handler+0x74>
d0022ac4:	e5903000 	ldr	r3, [r0]
d0022ac8:	e3530000 	cmp	r3, #0
d0022acc:	1a000002 	bne	d0022adc <irq_handler+0x70>
d0022ad0:	e12fff33 	blx	r3
d0022ad4:	e28dd014 	add	sp, sp, #20
d0022ad8:	e8bd8030 	pop	{r4, r5, pc}
d0022adc:	e3a03003 	mov	r3, #3
d0022ae0:	e28d2010 	add	r2, sp, #16
d0022ae4:	e0820103 	add	r0, r2, r3, lsl #2
d0022ae8:	e58d5000 	str	r5, [sp]
d0022aec:	e98d4010 	stmib	sp, {r4, lr}
d0022af0:	e58dc00c 	str	ip, [sp, #12]
d0022af4:	e5103010 	ldr	r3, [r0, #-16]
d0022af8:	eafffff4 	b	d0022ad0 <irq_handler+0x64>
d0022afc:	f2100000 	vhadd.s16	d0, d0, d0
d0022b00:	f2200000 	vhadd.s32	d0, d0, d0
d0022b04:	f2300000 	vhadd.s<illegal width 64>	d0, d0, d0

d0022b08 <data_exception>:
d0022b08:	e59f0000 	ldr	r0, [pc, #0]	; d0022b10 <data_exception+0x8>
d0022b0c:	ea0003b8 	b	d00239f4 <printf>
d0022b10:	d0025fb0 	strhle	r5, [r2], -r0

d0022b14 <prefetch_exception>:
d0022b14:	e59f0000 	ldr	r0, [pc, #0]	; d0022b1c <prefetch_exception+0x8>
d0022b18:	ea0003b5 	b	d00239f4 <printf>
d0022b1c:	d0025fc4 	andle	r5, r2, r4, asr #31

d0022b20 <sotf_int_exception>:
d0022b20:	e59f0000 	ldr	r0, [pc, #0]	; d0022b28 <sotf_int_exception+0x8>
d0022b24:	ea0003b2 	b	d00239f4 <printf>
d0022b28:	d0025fdc 	ldrdle	r5, [r2], -ip

d0022b2c <undef_exception>:
d0022b2c:	e59f0000 	ldr	r0, [pc, #0]	; d0022b34 <undef_exception+0x8>
d0022b30:	ea0003af 	b	d00239f4 <printf>
d0022b34:	d0025ff4 	strdle	r5, [r2], -r4

d0022b38 <reset_exception>:
d0022b38:	e59f0000 	ldr	r0, [pc, #0]	; d0022b40 <reset_exception+0x8>
d0022b3c:	ea0003ac 	b	d00239f4 <printf>
d0022b40:	d0026008 	andle	r6, r2, r8

d0022b44 <key_init>:
d0022b44:	e59f301c 	ldr	r3, [pc, #28]	; d0022b68 <key_init+0x24>
d0022b48:	e5932c00 	ldr	r2, [r3, #3072]	; 0xc00
d0022b4c:	e3c2ccff 	bic	ip, r2, #65280	; 0xff00
d0022b50:	e583cc00 	str	ip, [r3, #3072]	; 0xc00
d0022b54:	e5931c40 	ldr	r1, [r3, #3136]	; 0xc40
d0022b58:	e1a00821 	lsr	r0, r1, #16
d0022b5c:	e1a02800 	lsl	r2, r0, #16
d0022b60:	e5832c40 	str	r2, [r3, #3136]	; 0xc40
d0022b64:	e12fff1e 	bx	lr
d0022b68:	e0200000 	eor	r0, r0, r0

d0022b6c <key_init_interrupt>:
d0022b6c:	e59f3094 	ldr	r3, [pc, #148]	; d0022c08 <key_init_interrupt+0x9c>
d0022b70:	e3a00000 	mov	r0, #0
d0022b74:	e593cc00 	ldr	ip, [r3, #3072]	; 0xc00
d0022b78:	e38c1cff 	orr	r1, ip, #65280	; 0xff00
d0022b7c:	e5831c00 	str	r1, [r3, #3072]	; 0xc00
d0022b80:	e5932c40 	ldr	r2, [r3, #3136]	; 0xc40
d0022b84:	e1e0c822 	mvn	ip, r2, lsr #16
d0022b88:	e1e0180c 	mvn	r1, ip, lsl #16
d0022b8c:	e5831c40 	str	r1, [r3, #3136]	; 0xc40
d0022b90:	e5932c08 	ldr	r2, [r3, #3080]	; 0xc08
d0022b94:	e3c2c030 	bic	ip, r2, #48	; 0x30
d0022b98:	e583cc08 	str	ip, [r3, #3080]	; 0xc08
d0022b9c:	e5931c08 	ldr	r1, [r3, #3080]	; 0xc08
d0022ba0:	e5831c08 	str	r1, [r3, #3080]	; 0xc08
d0022ba4:	e5932e00 	ldr	r2, [r3, #3584]	; 0xe00
d0022ba8:	e3c2ccff 	bic	ip, r2, #65280	; 0xff00
d0022bac:	e583ce00 	str	ip, [r3, #3584]	; 0xe00
d0022bb0:	e5931e00 	ldr	r1, [r3, #3584]	; 0xe00
d0022bb4:	e3812c11 	orr	r2, r1, #4352	; 0x1100
d0022bb8:	e5832e00 	str	r2, [r3, #3584]	; 0xe00
d0022bbc:	e593ce08 	ldr	ip, [r3, #3592]	; 0xe08
d0022bc0:	e1a0182c 	lsr	r1, ip, #16
d0022bc4:	e1a02801 	lsl	r2, r1, #16
d0022bc8:	e5832e08 	str	r2, [r3, #3592]	; 0xe08
d0022bcc:	e593ce08 	ldr	ip, [r3, #3592]	; 0xe08
d0022bd0:	e38c1c22 	orr	r1, ip, #8704	; 0x2200
d0022bd4:	e3812022 	orr	r2, r1, #34	; 0x22
d0022bd8:	e5832e08 	str	r2, [r3, #3592]	; 0xe08
d0022bdc:	e5932f00 	ldr	r2, [r3, #3840]	; 0xf00
d0022be0:	e5830f00 	str	r0, [r3, #3840]	; 0xf00
d0022be4:	e5932f08 	ldr	r2, [r3, #3848]	; 0xf08
d0022be8:	e5830f08 	str	r0, [r3, #3848]	; 0xf08
d0022bec:	e593cf40 	ldr	ip, [r3, #3904]	; 0xf40
d0022bf0:	e38c100c 	orr	r1, ip, #12
d0022bf4:	e5831f40 	str	r1, [r3, #3904]	; 0xf40
d0022bf8:	e5930f48 	ldr	r0, [r3, #3912]	; 0xf48
d0022bfc:	e380200f 	orr	r2, r0, #15
d0022c00:	e5832f48 	str	r2, [r3, #3912]	; 0xf48
d0022c04:	e12fff1e 	bx	lr
d0022c08:	e0200000 	eor	r0, r0, r0

d0022c0c <isr_eint16171819>:
d0022c0c:	e59f0080 	ldr	r0, [pc, #128]	; d0022c94 <isr_eint16171819+0x88>
d0022c10:	e92d4010 	push	{r4, lr}
d0022c14:	e5903f48 	ldr	r3, [r0, #3912]	; 0xf48
d0022c18:	e3130001 	tst	r3, #1
d0022c1c:	1a000019 	bne	d0022c88 <isr_eint16171819+0x7c>
d0022c20:	e59f206c 	ldr	r2, [pc, #108]	; d0022c94 <isr_eint16171819+0x88>
d0022c24:	e5921f48 	ldr	r1, [r2, #3912]	; 0xf48
d0022c28:	e3110002 	tst	r1, #2
d0022c2c:	1a000012 	bne	d0022c7c <isr_eint16171819+0x70>
d0022c30:	e59f305c 	ldr	r3, [pc, #92]	; d0022c94 <isr_eint16171819+0x88>
d0022c34:	e593cf48 	ldr	ip, [r3, #3912]	; 0xf48
d0022c38:	e31c0004 	tst	ip, #4
d0022c3c:	1a00000b 	bne	d0022c70 <isr_eint16171819+0x64>
d0022c40:	e59f104c 	ldr	r1, [pc, #76]	; d0022c94 <isr_eint16171819+0x88>
d0022c44:	e5910f48 	ldr	r0, [r1, #3912]	; 0xf48
d0022c48:	e3100008 	tst	r0, #8
d0022c4c:	0a000001 	beq	d0022c58 <isr_eint16171819+0x4c>
d0022c50:	e59f0040 	ldr	r0, [pc, #64]	; d0022c98 <isr_eint16171819+0x8c>
d0022c54:	eb000366 	bl	d00239f4 <printf>
d0022c58:	e59fc034 	ldr	ip, [pc, #52]	; d0022c94 <isr_eint16171819+0x88>
d0022c5c:	e59c3f48 	ldr	r3, [ip, #3912]	; 0xf48
d0022c60:	e383200f 	orr	r2, r3, #15
d0022c64:	e58c2f48 	str	r2, [ip, #3912]	; 0xf48
d0022c68:	e8bd4010 	pop	{r4, lr}
d0022c6c:	eafffecc 	b	d00227a4 <intc_clearvectaddr>
d0022c70:	e59f0024 	ldr	r0, [pc, #36]	; d0022c9c <isr_eint16171819+0x90>
d0022c74:	eb00035e 	bl	d00239f4 <printf>
d0022c78:	eafffff0 	b	d0022c40 <isr_eint16171819+0x34>
d0022c7c:	e59f001c 	ldr	r0, [pc, #28]	; d0022ca0 <isr_eint16171819+0x94>
d0022c80:	eb00035b 	bl	d00239f4 <printf>
d0022c84:	eaffffe9 	b	d0022c30 <isr_eint16171819+0x24>
d0022c88:	e59f0014 	ldr	r0, [pc, #20]	; d0022ca4 <isr_eint16171819+0x98>
d0022c8c:	eb000358 	bl	d00239f4 <printf>
d0022c90:	eaffffe2 	b	d0022c20 <isr_eint16171819+0x14>
d0022c94:	e0200000 	eor	r0, r0, r0
d0022c98:	d0026034 	andle	r6, r2, r4, lsr r0
d0022c9c:	d002602c 	andle	r6, r2, ip, lsr #32
d0022ca0:	d0026024 	andle	r6, r2, r4, lsr #32
d0022ca4:	d002601c 	andle	r6, r2, ip, lsl r0

d0022ca8 <isr_eint3>:
d0022ca8:	e92d4010 	push	{r4, lr}
d0022cac:	e59f0018 	ldr	r0, [pc, #24]	; d0022ccc <isr_eint3+0x24>
d0022cb0:	eb00034f 	bl	d00239f4 <printf>
d0022cb4:	e59f3014 	ldr	r3, [pc, #20]	; d0022cd0 <isr_eint3+0x28>
d0022cb8:	e5930f40 	ldr	r0, [r3, #3904]	; 0xf40
d0022cbc:	e3802008 	orr	r2, r0, #8
d0022cc0:	e5832f40 	str	r2, [r3, #3904]	; 0xf40
d0022cc4:	e8bd4010 	pop	{r4, lr}
d0022cc8:	eafffeb5 	b	d00227a4 <intc_clearvectaddr>
d0022ccc:	d002603c 	andle	r6, r2, ip, lsr r0
d0022cd0:	e0200000 	eor	r0, r0, r0

d0022cd4 <isr_eint2>:
d0022cd4:	e92d4010 	push	{r4, lr}
d0022cd8:	e59f0018 	ldr	r0, [pc, #24]	; d0022cf8 <isr_eint2+0x24>
d0022cdc:	eb000344 	bl	d00239f4 <printf>
d0022ce0:	e59f3014 	ldr	r3, [pc, #20]	; d0022cfc <isr_eint2+0x28>
d0022ce4:	e5930f40 	ldr	r0, [r3, #3904]	; 0xf40
d0022ce8:	e3802004 	orr	r2, r0, #4
d0022cec:	e5832f40 	str	r2, [r3, #3904]	; 0xf40
d0022cf0:	e8bd4010 	pop	{r4, lr}
d0022cf4:	eafffeaa 	b	d00227a4 <intc_clearvectaddr>
d0022cf8:	d0026050 	andle	r6, r2, r0, asr r0
d0022cfc:	e0200000 	eor	r0, r0, r0

d0022d00 <key_polling>:
d0022d00:	e92d4010 	push	{r4, lr}
d0022d04:	e59f4068 	ldr	r4, [pc, #104]	; d0022d74 <key_polling+0x74>
d0022d08:	ea000004 	b	d0022d20 <key_polling+0x20>
d0022d0c:	ebfffe09 	bl	d0022538 <led_off>
d0022d10:	e5942c44 	ldr	r2, [r4, #3140]	; 0xc44
d0022d14:	e3120001 	tst	r2, #1
d0022d18:	1a000013 	bne	d0022d6c <key_polling+0x6c>
d0022d1c:	ebfffdfd 	bl	d0022518 <led3>
d0022d20:	e5943c04 	ldr	r3, [r4, #3076]	; 0xc04
d0022d24:	e3130004 	tst	r3, #4
d0022d28:	1a00000d 	bne	d0022d64 <key_polling+0x64>
d0022d2c:	e5940c04 	ldr	r0, [r4, #3076]	; 0xc04
d0022d30:	e3100004 	tst	r0, #4
d0022d34:	0a000006 	beq	d0022d54 <key_polling+0x54>
d0022d38:	e5941c04 	ldr	r1, [r4, #3076]	; 0xc04
d0022d3c:	e3110008 	tst	r1, #8
d0022d40:	1afffff1 	bne	d0022d0c <key_polling+0xc>
d0022d44:	ebfffdeb 	bl	d00224f8 <led2>
d0022d48:	e59f0028 	ldr	r0, [pc, #40]	; d0022d78 <key_polling+0x78>
d0022d4c:	eb000328 	bl	d00239f4 <printf>
d0022d50:	eaffffee 	b	d0022d10 <key_polling+0x10>
d0022d54:	ebfffddf 	bl	d00224d8 <led1>
d0022d58:	e59f001c 	ldr	r0, [pc, #28]	; d0022d7c <key_polling+0x7c>
d0022d5c:	eb000324 	bl	d00239f4 <printf>
d0022d60:	eafffff4 	b	d0022d38 <key_polling+0x38>
d0022d64:	ebfffdf3 	bl	d0022538 <led_off>
d0022d68:	eafffff2 	b	d0022d38 <key_polling+0x38>
d0022d6c:	ebfffdf1 	bl	d0022538 <led_off>
d0022d70:	eaffffea 	b	d0022d20 <key_polling+0x20>
d0022d74:	e0200000 	eor	r0, r0, r0
d0022d78:	d0026070 	andle	r6, r2, r0, ror r0
d0022d7c:	d0026064 	andle	r6, r2, r4, rrx

d0022d80 <buzzer_init>:
d0022d80:	e59f301c 	ldr	r3, [pc, #28]	; d0022da4 <buzzer_init+0x24>
d0022d84:	e59320a0 	ldr	r2, [r3, #160]	; 0xa0
d0022d88:	e3c2cc0f 	bic	ip, r2, #3840	; 0xf00
d0022d8c:	e38c1c01 	orr	r1, ip, #256	; 0x100
d0022d90:	e58310a0 	str	r1, [r3, #160]	; 0xa0
d0022d94:	e59300a0 	ldr	r0, [r3, #160]	; 0xa0
d0022d98:	e3c02004 	bic	r2, r0, #4
d0022d9c:	e58320a4 	str	r2, [r3, #164]	; 0xa4
d0022da0:	e12fff1e 	bx	lr
d0022da4:	e0200000 	eor	r0, r0, r0

d0022da8 <buzzer_on>:
d0022da8:	e59f300c 	ldr	r3, [pc, #12]	; d0022dbc <buzzer_on+0x14>
d0022dac:	e59300a4 	ldr	r0, [r3, #164]	; 0xa4
d0022db0:	e3802004 	orr	r2, r0, #4
d0022db4:	e58320a4 	str	r2, [r3, #164]	; 0xa4
d0022db8:	e12fff1e 	bx	lr
d0022dbc:	e0200000 	eor	r0, r0, r0

d0022dc0 <buzzer_off>:
d0022dc0:	e59f300c 	ldr	r3, [pc, #12]	; d0022dd4 <buzzer_off+0x14>
d0022dc4:	e59300a4 	ldr	r0, [r3, #164]	; 0xa4
d0022dc8:	e3c02004 	bic	r2, r0, #4
d0022dcc:	e58320a4 	str	r2, [r3, #164]	; 0xa4
d0022dd0:	e12fff1e 	bx	lr
d0022dd4:	e0200000 	eor	r0, r0, r0

d0022dd8 <lcd_test>:
d0022dd8:	e59fc304 	ldr	ip, [pc, #772]	; d00230e4 <lcd_test+0x30c>
d0022ddc:	e92d0030 	push	{r4, r5}
d0022de0:	e59f5300 	ldr	r5, [pc, #768]	; d00230e8 <lcd_test+0x310>
d0022de4:	e58c5120 	str	r5, [ip, #288]	; 0x120
d0022de8:	e58c5140 	str	r5, [ip, #320]	; 0x140
d0022dec:	e58c5160 	str	r5, [ip, #352]	; 0x160
d0022df0:	e58c5180 	str	r5, [ip, #384]	; 0x180
d0022df4:	e59c40a0 	ldr	r4, [ip, #160]	; 0xa0
d0022df8:	e24dd008 	sub	sp, sp, #8
d0022dfc:	e3c4000f 	bic	r0, r4, #15
d0022e00:	e58c00a0 	str	r0, [ip, #160]	; 0xa0
d0022e04:	e59c10a0 	ldr	r1, [ip, #160]	; 0xa0
d0022e08:	e3a0033e 	mov	r0, #-134217728	; 0xf8000000
d0022e0c:	e3812001 	orr	r2, r1, #1
d0022e10:	e58c20a0 	str	r2, [ip, #160]	; 0xa0
d0022e14:	e59c30a4 	ldr	r3, [ip, #164]	; 0xa4
d0022e18:	e24c4af9 	sub	r4, ip, #1019904	; 0xf9000
d0022e1c:	e3c35001 	bic	r5, r3, #1
d0022e20:	e3a01002 	mov	r1, #2
d0022e24:	e58c50a4 	str	r5, [ip, #164]	; 0xa4
d0022e28:	e59f32bc 	ldr	r3, [pc, #700]	; d00230ec <lcd_test+0x314>
d0022e2c:	e5841008 	str	r1, [r4, #8]
d0022e30:	e5902000 	ldr	r2, [r0]
d0022e34:	e0025003 	and	r5, r2, r3
d0022e38:	e5805000 	str	r5, [r0]
d0022e3c:	e590c000 	ldr	ip, [r0]
d0022e40:	e38c4003 	orr	r4, ip, #3
d0022e44:	e5804000 	str	r4, [r0]
d0022e48:	e5901000 	ldr	r1, [r0]
d0022e4c:	e59fc29c 	ldr	ip, [pc, #668]	; d00230f0 <lcd_test+0x318>
d0022e50:	e3812e11 	orr	r2, r1, #272	; 0x110
d0022e54:	e5802000 	str	r2, [r0]
d0022e58:	e5903004 	ldr	r3, [r0, #4]
d0022e5c:	e59f4290 	ldr	r4, [pc, #656]	; d00230f4 <lcd_test+0x31c>
d0022e60:	e3835060 	orr	r5, r3, #96	; 0x60
d0022e64:	e59f128c 	ldr	r1, [pc, #652]	; d00230f8 <lcd_test+0x320>
d0022e68:	e5805004 	str	r5, [r0, #4]
d0022e6c:	e580c010 	str	ip, [r0, #16]
d0022e70:	e5804014 	str	r4, [r0, #20]
d0022e74:	e5801018 	str	r1, [r0, #24]
d0022e78:	e5902020 	ldr	r2, [r0, #32]
d0022e7c:	e3823001 	orr	r3, r2, #1
d0022e80:	e5803020 	str	r3, [r0, #32]
d0022e84:	e5905020 	ldr	r5, [r0, #32]
d0022e88:	e3a03000 	mov	r3, #0
d0022e8c:	e3c5c03c 	bic	ip, r5, #60	; 0x3c
d0022e90:	e580c020 	str	ip, [r0, #32]
d0022e94:	e5904020 	ldr	r4, [r0, #32]
d0022e98:	e59f525c 	ldr	r5, [pc, #604]	; d00230fc <lcd_test+0x324>
d0022e9c:	e3841902 	orr	r1, r4, #32768	; 0x8000
d0022ea0:	e381202c 	orr	r2, r1, #44	; 0x2c
d0022ea4:	e5802020 	str	r2, [r0, #32]
d0022ea8:	e5803040 	str	r3, [r0, #64]	; 0x40
d0022eac:	e59f324c 	ldr	r3, [pc, #588]	; d0023100 <lcd_test+0x328>
d0022eb0:	e59fc24c 	ldr	ip, [pc, #588]	; d0023104 <lcd_test+0x32c>
d0022eb4:	e3a04423 	mov	r4, #587202560	; 0x23000000
d0022eb8:	e59f1248 	ldr	r1, [pc, #584]	; d0023108 <lcd_test+0x330>
d0022ebc:	e5805044 	str	r5, [r0, #68]	; 0x44
d0022ec0:	e580c048 	str	ip, [r0, #72]	; 0x48
d0022ec4:	e58040a0 	str	r4, [r0, #160]	; 0xa0
d0022ec8:	e58010d0 	str	r1, [r0, #208]	; 0xd0
d0022ecc:	e593c000 	ldr	ip, [r3]
d0022ed0:	e3a02001 	mov	r2, #1
d0022ed4:	e28c595d 	add	r5, ip, #1523712	; 0x174000
d0022ed8:	e5802034 	str	r2, [r0, #52]	; 0x34
d0022edc:	e2855a03 	add	r5, r5, #12288	; 0x3000
d0022ee0:	e3a008ff 	mov	r0, #16711680	; 0xff0000
d0022ee4:	e1a0400c 	mov	r4, ip
d0022ee8:	e1a02004 	mov	r2, r4
d0022eec:	e4820004 	str	r0, [r2], #4
d0022ef0:	e3a01002 	mov	r1, #2
d0022ef4:	e2822004 	add	r2, r2, #4
d0022ef8:	e5840004 	str	r0, [r4, #4]
d0022efc:	e2811002 	add	r1, r1, #2
d0022f00:	e1a03002 	mov	r3, r2
d0022f04:	e3510e32 	cmp	r1, #800	; 0x320
d0022f08:	e4830004 	str	r0, [r3], #4
d0022f0c:	e5820004 	str	r0, [r2, #4]
d0022f10:	e2832004 	add	r2, r3, #4
d0022f14:	1afffff8 	bne	d0022efc <lcd_test+0x124>
d0022f18:	e2844d32 	add	r4, r4, #3200	; 0xc80
d0022f1c:	e1540005 	cmp	r4, r5
d0022f20:	1afffff0 	bne	d0022ee8 <lcd_test+0x110>
d0022f24:	e3a01000 	mov	r1, #0
d0022f28:	e58d1004 	str	r1, [sp, #4]
d0022f2c:	e59d0004 	ldr	r0, [sp, #4]
d0022f30:	e59f31d4 	ldr	r3, [pc, #468]	; d002310c <lcd_test+0x334>
d0022f34:	e1500003 	cmp	r0, r3
d0022f38:	8a000011 	bhi	d0022f84 <lcd_test+0x1ac>
d0022f3c:	e59f21cc 	ldr	r2, [pc, #460]	; d0023110 <lcd_test+0x338>
d0022f40:	e1a00003 	mov	r0, r3
d0022f44:	e58d1000 	str	r1, [sp]
d0022f48:	e59d4000 	ldr	r4, [sp]
d0022f4c:	e1540002 	cmp	r4, r2
d0022f50:	8a000005 	bhi	d0022f6c <lcd_test+0x194>
d0022f54:	e59d4000 	ldr	r4, [sp]
d0022f58:	e2843001 	add	r3, r4, #1
d0022f5c:	e58d3000 	str	r3, [sp]
d0022f60:	e59d5000 	ldr	r5, [sp]
d0022f64:	e1550002 	cmp	r5, r2
d0022f68:	9afffff9 	bls	d0022f54 <lcd_test+0x17c>
d0022f6c:	e59d4004 	ldr	r4, [sp, #4]
d0022f70:	e2843001 	add	r3, r4, #1
d0022f74:	e58d3004 	str	r3, [sp, #4]
d0022f78:	e59d5004 	ldr	r5, [sp, #4]
d0022f7c:	e1550000 	cmp	r5, r0
d0022f80:	9affffef 	bls	d0022f44 <lcd_test+0x16c>
d0022f84:	e1a0400c 	mov	r4, ip
d0022f88:	e3a05000 	mov	r5, #0
d0022f8c:	e3a00cff 	mov	r0, #65280	; 0xff00
d0022f90:	e1a01004 	mov	r1, r4
d0022f94:	e4810004 	str	r0, [r1], #4
d0022f98:	e2812004 	add	r2, r1, #4
d0022f9c:	e3a01002 	mov	r1, #2
d0022fa0:	e5840004 	str	r0, [r4, #4]
d0022fa4:	e2811002 	add	r1, r1, #2
d0022fa8:	e1a03002 	mov	r3, r2
d0022fac:	e3510e32 	cmp	r1, #800	; 0x320
d0022fb0:	e4830004 	str	r0, [r3], #4
d0022fb4:	e5820004 	str	r0, [r2, #4]
d0022fb8:	e2832004 	add	r2, r3, #4
d0022fbc:	1afffff8 	bne	d0022fa4 <lcd_test+0x1cc>
d0022fc0:	e2855001 	add	r5, r5, #1
d0022fc4:	e3550e1e 	cmp	r5, #480	; 0x1e0
d0022fc8:	e2844d32 	add	r4, r4, #3200	; 0xc80
d0022fcc:	1affffef 	bne	d0022f90 <lcd_test+0x1b8>
d0022fd0:	e3a01000 	mov	r1, #0
d0022fd4:	e58d1000 	str	r1, [sp]
d0022fd8:	e59d2000 	ldr	r2, [sp]
d0022fdc:	e59f3128 	ldr	r3, [pc, #296]	; d002310c <lcd_test+0x334>
d0022fe0:	e1520003 	cmp	r2, r3
d0022fe4:	8a000011 	bhi	d0023030 <lcd_test+0x258>
d0022fe8:	e59f2120 	ldr	r2, [pc, #288]	; d0023110 <lcd_test+0x338>
d0022fec:	e1a00003 	mov	r0, r3
d0022ff0:	e58d1004 	str	r1, [sp, #4]
d0022ff4:	e59d4004 	ldr	r4, [sp, #4]
d0022ff8:	e1540002 	cmp	r4, r2
d0022ffc:	8a000005 	bhi	d0023018 <lcd_test+0x240>
d0023000:	e59d3004 	ldr	r3, [sp, #4]
d0023004:	e2834001 	add	r4, r3, #1
d0023008:	e58d4004 	str	r4, [sp, #4]
d002300c:	e59d3004 	ldr	r3, [sp, #4]
d0023010:	e1530002 	cmp	r3, r2
d0023014:	9afffff9 	bls	d0023000 <lcd_test+0x228>
d0023018:	e59d4000 	ldr	r4, [sp]
d002301c:	e2843001 	add	r3, r4, #1
d0023020:	e58d3000 	str	r3, [sp]
d0023024:	e59d4000 	ldr	r4, [sp]
d0023028:	e1540000 	cmp	r4, r0
d002302c:	9affffef 	bls	d0022ff0 <lcd_test+0x218>
d0023030:	e3a04000 	mov	r4, #0
d0023034:	e3a000ff 	mov	r0, #255	; 0xff
d0023038:	e1a0100c 	mov	r1, ip
d002303c:	e4810004 	str	r0, [r1], #4
d0023040:	e2812004 	add	r2, r1, #4
d0023044:	e3a01002 	mov	r1, #2
d0023048:	e58c0004 	str	r0, [ip, #4]
d002304c:	e2811002 	add	r1, r1, #2
d0023050:	e1a03002 	mov	r3, r2
d0023054:	e3510e32 	cmp	r1, #800	; 0x320
d0023058:	e4830004 	str	r0, [r3], #4
d002305c:	e5820004 	str	r0, [r2, #4]
d0023060:	e2832004 	add	r2, r3, #4
d0023064:	1afffff8 	bne	d002304c <lcd_test+0x274>
d0023068:	e2844001 	add	r4, r4, #1
d002306c:	e3540e1e 	cmp	r4, #480	; 0x1e0
d0023070:	e28ccd32 	add	ip, ip, #3200	; 0xc80
d0023074:	1affffef 	bne	d0023038 <lcd_test+0x260>
d0023078:	e3a01000 	mov	r1, #0
d002307c:	e58d1004 	str	r1, [sp, #4]
d0023080:	e59dc004 	ldr	ip, [sp, #4]
d0023084:	e59f3080 	ldr	r3, [pc, #128]	; d002310c <lcd_test+0x334>
d0023088:	e15c0003 	cmp	ip, r3
d002308c:	8a000011 	bhi	d00230d8 <lcd_test+0x300>
d0023090:	e59f2078 	ldr	r2, [pc, #120]	; d0023110 <lcd_test+0x338>
d0023094:	e1a00003 	mov	r0, r3
d0023098:	e58d1000 	str	r1, [sp]
d002309c:	e59d3000 	ldr	r3, [sp]
d00230a0:	e1530002 	cmp	r3, r2
d00230a4:	8a000005 	bhi	d00230c0 <lcd_test+0x2e8>
d00230a8:	e59dc000 	ldr	ip, [sp]
d00230ac:	e28c3001 	add	r3, ip, #1
d00230b0:	e58d3000 	str	r3, [sp]
d00230b4:	e59dc000 	ldr	ip, [sp]
d00230b8:	e15c0002 	cmp	ip, r2
d00230bc:	9afffff9 	bls	d00230a8 <lcd_test+0x2d0>
d00230c0:	e59d3004 	ldr	r3, [sp, #4]
d00230c4:	e283c001 	add	ip, r3, #1
d00230c8:	e58dc004 	str	ip, [sp, #4]
d00230cc:	e59d3004 	ldr	r3, [sp, #4]
d00230d0:	e1530000 	cmp	r3, r0
d00230d4:	9affffef 	bls	d0023098 <lcd_test+0x2c0>
d00230d8:	e28dd008 	add	sp, sp, #8
d00230dc:	e8bd0030 	pop	{r4, r5}
d00230e0:	e12fff1e 	bx	lr
d00230e4:	e0200000 	eor	r0, r0, r0
d00230e8:	22222222 	eorcs	r2, r2, #536870914	; 0x20000002
d00230ec:	f3fbfffb 	undefined instruction 0xf3fbfffb
d00230f0:	00091d14 	andeq	r1, r9, r4, lsl sp
d00230f4:	0009ef28 	andeq	lr, r9, r8, lsr #30
d00230f8:	000efb1f 	andeq	pc, lr, pc, lsl fp
d00230fc:	0018f9df 	ldrsbeq	pc, [r8], -pc
d0023100:	d0026190 	mulle	r2, r0, r1
d0023104:	0005dc00 	andeq	sp, r5, r0, lsl #24
d0023108:	00177000 	andseq	r7, r7, r0
d002310c:	00000f9f 	muleq	r0, pc, pc
d0023110:	000003e7 	andeq	r0, r0, r7, ror #7

d0023114 <copy_bl2_2_ddr>:
d0023114:	e59f002c 	ldr	r0, [pc, #44]	; d0023148 <copy_bl2_2_ddr+0x34>
d0023118:	e52de004 	push	{lr}		; (str lr, [sp, #-4]!)
d002311c:	e3a03000 	mov	r3, #0
d0023120:	e24dd00c 	sub	sp, sp, #12
d0023124:	e590cf98 	ldr	ip, [r0, #3992]	; 0xf98
d0023128:	e3a0102d 	mov	r1, #45	; 0x2d
d002312c:	e58d3000 	str	r3, [sp]
d0023130:	e3a02020 	mov	r2, #32
d0023134:	e59f3010 	ldr	r3, [pc, #16]	; d002314c <copy_bl2_2_ddr+0x38>
d0023138:	e3a00002 	mov	r0, #2
d002313c:	e12fff3c 	blx	ip
d0023140:	e28dd00c 	add	sp, sp, #12
d0023144:	e8bd8000 	pop	{pc}
d0023148:	d0037000 	andle	r7, r3, r0
d002314c:	23e00000 	mvncs	r0, #0

d0023150 <s5p_nand_hwcontrol>:
d0023150:	e3110080 	tst	r1, #128	; 0x80
d0023154:	0a000011 	beq	d00231a0 <s5p_nand_hwcontrol+0x50>
d0023158:	e3110001 	tst	r1, #1
d002315c:	0a00000b 	beq	d0023190 <s5p_nand_hwcontrol+0x40>
d0023160:	e3700001 	cmn	r0, #1
d0023164:	012fff1e 	bxeq	lr
d0023168:	e3a034eb 	mov	r3, #-352321536	; 0xeb000000
d002316c:	e593c004 	ldr	ip, [r3, #4]
d0023170:	e3110002 	tst	r1, #2
d0023174:	e3cc2002 	bic	r2, ip, #2
d0023178:	e5832004 	str	r2, [r3, #4]
d002317c:	120000ff 	andne	r0, r0, #255	; 0xff
d0023180:	13a034eb 	movne	r3, #-352321536	; 0xeb000000
d0023184:	15c30008 	strbne	r0, [r3, #8]
d0023188:	0a00000b 	beq	d00231bc <s5p_nand_hwcontrol+0x6c>
d002318c:	e12fff1e 	bx	lr
d0023190:	e3a034eb 	mov	r3, #-352321536	; 0xeb000000
d0023194:	e593c004 	ldr	ip, [r3, #4]
d0023198:	e38c2002 	orr	r2, ip, #2
d002319c:	e5832004 	str	r2, [r3, #4]
d00231a0:	e3700001 	cmn	r0, #1
d00231a4:	012fff1e 	bxeq	lr
d00231a8:	e3110002 	tst	r1, #2
d00231ac:	120000ff 	andne	r0, r0, #255	; 0xff
d00231b0:	13a034eb 	movne	r3, #-352321536	; 0xeb000000
d00231b4:	15c30008 	strbne	r0, [r3, #8]
d00231b8:	112fff1e 	bxne	lr
d00231bc:	e3110004 	tst	r1, #4
d00231c0:	120000ff 	andne	r0, r0, #255	; 0xff
d00231c4:	13a034eb 	movne	r3, #-352321536	; 0xeb000000
d00231c8:	15c3000c 	strbne	r0, [r3, #12]
d00231cc:	e12fff1e 	bx	lr

d00231d0 <s5p_nand_device_ready>:
d00231d0:	e3a034eb 	mov	r3, #-352321536	; 0xeb000000
d00231d4:	e5930028 	ldr	r0, [r3, #40]	; 0x28
d00231d8:	e2000001 	and	r0, r0, #1
d00231dc:	e12fff1e 	bx	lr

d00231e0 <s5p_nand_read_byte>:
d00231e0:	e3a034eb 	mov	r3, #-352321536	; 0xeb000000
d00231e4:	e5d30010 	ldrb	r0, [r3, #16]
d00231e8:	e12fff1e 	bx	lr

d00231ec <s5p_nand_select_chip>:
d00231ec:	e3700001 	cmn	r0, #1
d00231f0:	e92d4008 	push	{r3, lr}
d00231f4:	18bd8008 	popne	{r3, pc}
d00231f8:	e3a01080 	mov	r1, #128	; 0x80
d00231fc:	e59f3008 	ldr	r3, [pc, #8]	; d002320c <s5p_nand_select_chip+0x20>
d0023200:	e1a0e00f 	mov	lr, pc
d0023204:	e593f010 	ldr	pc, [r3, #16]
d0023208:	e8bd8008 	pop	{r3, pc}
d002320c:	d0026298 	mulle	r2, r8, r2

d0023210 <s5p_nand_lpcommand>:
d0023210:	e92d41f0 	push	{r4, r5, r6, r7, r8, lr}
d0023214:	e1a04001 	mov	r4, r1
d0023218:	e59f51c0 	ldr	r5, [pc, #448]	; d00233e0 <s5p_nand_lpcommand+0x1d0>
d002321c:	e3a01083 	mov	r1, #131	; 0x83
d0023220:	e1a07002 	mov	r7, r2
d0023224:	e2928001 	adds	r8, r2, #1
d0023228:	13a08001 	movne	r8, #1
d002322c:	e1a06000 	mov	r6, r0
d0023230:	e1a0e00f 	mov	lr, pc
d0023234:	e595f010 	ldr	pc, [r5, #16]
d0023238:	e2943001 	adds	r3, r4, #1
d002323c:	13a03001 	movne	r3, #1
d0023240:	e1982003 	orrs	r2, r8, r3
d0023244:	0a000018 	beq	d00232ac <s5p_nand_lpcommand+0x9c>
d0023248:	e3530000 	cmp	r3, #0
d002324c:	03a01085 	moveq	r1, #133	; 0x85
d0023250:	0a000008 	beq	d0023278 <s5p_nand_lpcommand+0x68>
d0023254:	e1a00004 	mov	r0, r4
d0023258:	e3a01085 	mov	r1, #133	; 0x85
d002325c:	e1a0e00f 	mov	lr, pc
d0023260:	e595f010 	ldr	pc, [r5, #16]
d0023264:	e3a01005 	mov	r1, #5
d0023268:	e1a00444 	asr	r0, r4, #8
d002326c:	e1a0e00f 	mov	lr, pc
d0023270:	e595f010 	ldr	pc, [r5, #16]
d0023274:	e3a01005 	mov	r1, #5
d0023278:	e3580000 	cmp	r8, #0
d002327c:	0a00000a 	beq	d00232ac <s5p_nand_lpcommand+0x9c>
d0023280:	e1a00007 	mov	r0, r7
d0023284:	e1a0e00f 	mov	lr, pc
d0023288:	e595f010 	ldr	pc, [r5, #16]
d002328c:	e1a00447 	asr	r0, r7, #8
d0023290:	e3a01005 	mov	r1, #5
d0023294:	e1a0e00f 	mov	lr, pc
d0023298:	e595f010 	ldr	pc, [r5, #16]
d002329c:	e1a00847 	asr	r0, r7, #16
d00232a0:	e3a01005 	mov	r1, #5
d00232a4:	e1a0e00f 	mov	lr, pc
d00232a8:	e595f010 	ldr	pc, [r5, #16]
d00232ac:	e3e00000 	mvn	r0, #0
d00232b0:	e3a01081 	mov	r1, #129	; 0x81
d00232b4:	e1a0e00f 	mov	lr, pc
d00232b8:	e595f010 	ldr	pc, [r5, #16]
d00232bc:	e3560060 	cmp	r6, #96	; 0x60
d00232c0:	e59f4118 	ldr	r4, [pc, #280]	; d00233e0 <s5p_nand_lpcommand+0x1d0>
d00232c4:	08bd81f0 	popeq	{r4, r5, r6, r7, r8, pc}
d00232c8:	9a000011 	bls	d0023314 <s5p_nand_lpcommand+0x104>
d00232cc:	e3560085 	cmp	r6, #133	; 0x85
d00232d0:	08bd81f0 	popeq	{r4, r5, r6, r7, r8, pc}
d00232d4:	8a00001f 	bhi	d0023358 <s5p_nand_lpcommand+0x148>
d00232d8:	e3560070 	cmp	r6, #112	; 0x70
d00232dc:	08bd81f0 	popeq	{r4, r5, r6, r7, r8, pc}
d00232e0:	e3560080 	cmp	r6, #128	; 0x80
d00232e4:	08bd81f0 	popeq	{r4, r5, r6, r7, r8, pc}
d00232e8:	e5953014 	ldr	r3, [r5, #20]
d00232ec:	e3530000 	cmp	r3, #0
d00232f0:	08bd81f0 	popeq	{r4, r5, r6, r7, r8, pc}
d00232f4:	e12fff33 	blx	r3
d00232f8:	e3500000 	cmp	r0, #0
d00232fc:	18bd81f0 	popne	{r4, r5, r6, r7, r8, pc}
d0023300:	e5953014 	ldr	r3, [r5, #20]
d0023304:	e12fff33 	blx	r3
d0023308:	e3500000 	cmp	r0, #0
d002330c:	0afffffb 	beq	d0023300 <s5p_nand_lpcommand+0xf0>
d0023310:	e8bd81f0 	pop	{r4, r5, r6, r7, r8, pc}
d0023314:	e3560005 	cmp	r6, #5
d0023318:	0a000005 	beq	d0023334 <s5p_nand_lpcommand+0x124>
d002331c:	9a000021 	bls	d00233a8 <s5p_nand_lpcommand+0x198>
d0023320:	e3560010 	cmp	r6, #16
d0023324:	08bd81f0 	popeq	{r4, r5, r6, r7, r8, pc}
d0023328:	e3560015 	cmp	r6, #21
d002332c:	1affffed 	bne	d00232e8 <s5p_nand_lpcommand+0xd8>
d0023330:	e8bd81f0 	pop	{r4, r5, r6, r7, r8, pc}
d0023334:	e3a000e0 	mov	r0, #224	; 0xe0
d0023338:	e3a01083 	mov	r1, #131	; 0x83
d002333c:	e1a0e00f 	mov	lr, pc
d0023340:	e594f010 	ldr	pc, [r4, #16]
d0023344:	e3e00000 	mvn	r0, #0
d0023348:	e3a01081 	mov	r1, #129	; 0x81
d002334c:	e1a0e00f 	mov	lr, pc
d0023350:	e594f010 	ldr	pc, [r4, #16]
d0023354:	e8bd81f0 	pop	{r4, r5, r6, r7, r8, pc}
d0023358:	e35600d0 	cmp	r6, #208	; 0xd0
d002335c:	08bd81f0 	popeq	{r4, r5, r6, r7, r8, pc}
d0023360:	e35600ff 	cmp	r6, #255	; 0xff
d0023364:	1affffdf 	bne	d00232e8 <s5p_nand_lpcommand+0xd8>
d0023368:	e5943014 	ldr	r3, [r4, #20]
d002336c:	e3530000 	cmp	r3, #0
d0023370:	1affffdf 	bne	d00232f4 <s5p_nand_lpcommand+0xe4>
d0023374:	e3a00070 	mov	r0, #112	; 0x70
d0023378:	e3a01083 	mov	r1, #131	; 0x83
d002337c:	e1a0e00f 	mov	lr, pc
d0023380:	e594f010 	ldr	pc, [r4, #16]
d0023384:	e3e00000 	mvn	r0, #0
d0023388:	e3a01081 	mov	r1, #129	; 0x81
d002338c:	e1a0e00f 	mov	lr, pc
d0023390:	e594f010 	ldr	pc, [r4, #16]
d0023394:	e1a0e00f 	mov	lr, pc
d0023398:	e595f000 	ldr	pc, [r5]
d002339c:	e3100040 	tst	r0, #64	; 0x40
d00233a0:	0afffffb 	beq	d0023394 <s5p_nand_lpcommand+0x184>
d00233a4:	e8bd81f0 	pop	{r4, r5, r6, r7, r8, pc}
d00233a8:	e3560000 	cmp	r6, #0
d00233ac:	1affffcd 	bne	d00232e8 <s5p_nand_lpcommand+0xd8>
d00233b0:	e3a00030 	mov	r0, #48	; 0x30
d00233b4:	e3a01083 	mov	r1, #131	; 0x83
d00233b8:	e1a0e00f 	mov	lr, pc
d00233bc:	e594f010 	ldr	pc, [r4, #16]
d00233c0:	e3e00000 	mvn	r0, #0
d00233c4:	e3a01081 	mov	r1, #129	; 0x81
d00233c8:	e1a0e00f 	mov	lr, pc
d00233cc:	e594f010 	ldr	pc, [r4, #16]
d00233d0:	e5953014 	ldr	r3, [r5, #20]
d00233d4:	e3530000 	cmp	r3, #0
d00233d8:	1affffc5 	bne	d00232f4 <s5p_nand_lpcommand+0xe4>
d00233dc:	e8bd81f0 	pop	{r4, r5, r6, r7, r8, pc}
d00233e0:	d0026298 	mulle	r2, r8, r2

d00233e4 <nand_read_status>:
d00233e4:	e92d4010 	push	{r4, lr}
d00233e8:	e3a00070 	mov	r0, #112	; 0x70
d00233ec:	e59f4028 	ldr	r4, [pc, #40]	; d002341c <nand_read_status+0x38>
d00233f0:	e3a01083 	mov	r1, #131	; 0x83
d00233f4:	e1a0e00f 	mov	lr, pc
d00233f8:	e594f010 	ldr	pc, [r4, #16]
d00233fc:	e1a0e00f 	mov	lr, pc
d0023400:	e594f014 	ldr	pc, [r4, #20]
d0023404:	e3500000 	cmp	r0, #0
d0023408:	0afffffb 	beq	d00233fc <nand_read_status+0x18>
d002340c:	e59f3008 	ldr	r3, [pc, #8]	; d002341c <nand_read_status+0x38>
d0023410:	e1a0e00f 	mov	lr, pc
d0023414:	e593f000 	ldr	pc, [r3]
d0023418:	e8bd8010 	pop	{r4, pc}
d002341c:	d0026298 	mulle	r2, r8, r2

d0023420 <nand_write>:
d0023420:	e92d41f0 	push	{r4, r5, r6, r7, r8, lr}
d0023424:	e2504000 	subs	r4, r0, #0
d0023428:	e1a07001 	mov	r7, r1
d002342c:	e1a05002 	mov	r5, r2
d0023430:	0a000038 	beq	d0023518 <nand_write+0xf8>
d0023434:	e1a00a81 	lsl	r0, r1, #21
d0023438:	e1a06aa0 	lsr	r6, r0, #21
d002343c:	e1a085a1 	lsr	r8, r1, #11
d0023440:	e1a02008 	mov	r2, r8
d0023444:	e1a01006 	mov	r1, r6
d0023448:	e59f00d0 	ldr	r0, [pc, #208]	; d0023520 <nand_write+0x100>
d002344c:	eb000168 	bl	d00239f4 <printf>
d0023450:	e1a01006 	mov	r1, r6
d0023454:	e1a02008 	mov	r2, r8
d0023458:	e59f60c4 	ldr	r6, [pc, #196]	; d0023524 <nand_write+0x104>
d002345c:	e3a00080 	mov	r0, #128	; 0x80
d0023460:	e1a0e00f 	mov	lr, pc
d0023464:	e596f018 	ldr	pc, [r6, #24]
d0023468:	e3550000 	cmp	r5, #0
d002346c:	0a000019 	beq	d00234d8 <nand_write+0xb8>
d0023470:	e3a03001 	mov	r3, #1
d0023474:	e3a014eb 	mov	r1, #-352321536	; 0xeb000000
d0023478:	e2452001 	sub	r2, r5, #1
d002347c:	e5d4c000 	ldrb	ip, [r4]
d0023480:	e1530005 	cmp	r3, r5
d0023484:	e5c1c010 	strb	ip, [r1, #16]
d0023488:	e0022003 	and	r2, r2, r3
d002348c:	e1a00003 	mov	r0, r3
d0023490:	0a000010 	beq	d00234d8 <nand_write+0xb8>
d0023494:	e3520000 	cmp	r2, #0
d0023498:	0a000005 	beq	d00234b4 <nand_write+0x94>
d002349c:	e3a03002 	mov	r3, #2
d00234a0:	e5d4c001 	ldrb	ip, [r4, #1]
d00234a4:	e1530005 	cmp	r3, r5
d00234a8:	e5c1c010 	strb	ip, [r1, #16]
d00234ac:	e1a00003 	mov	r0, r3
d00234b0:	0a000008 	beq	d00234d8 <nand_write+0xb8>
d00234b4:	e2832001 	add	r2, r3, #1
d00234b8:	e7d40000 	ldrb	r0, [r4, r0]
d00234bc:	e2823001 	add	r3, r2, #1
d00234c0:	e5c10010 	strb	r0, [r1, #16]
d00234c4:	e1530005 	cmp	r3, r5
d00234c8:	e7d4e002 	ldrb	lr, [r4, r2]
d00234cc:	e5c1e010 	strb	lr, [r1, #16]
d00234d0:	e1a00003 	mov	r0, r3
d00234d4:	1afffff6 	bne	d00234b4 <nand_write+0x94>
d00234d8:	e3e01000 	mvn	r1, #0
d00234dc:	e3a00010 	mov	r0, #16
d00234e0:	e1a02001 	mov	r2, r1
d00234e4:	e1a0e00f 	mov	lr, pc
d00234e8:	e596f018 	ldr	pc, [r6, #24]
d00234ec:	ebffffbc 	bl	d00233e4 <nand_read_status>
d00234f0:	e2104001 	ands	r4, r0, #1
d00234f4:	1a000004 	bne	d002350c <nand_write+0xec>
d00234f8:	e1a01007 	mov	r1, r7
d00234fc:	e59f0024 	ldr	r0, [pc, #36]	; d0023528 <nand_write+0x108>
d0023500:	eb00013b 	bl	d00239f4 <printf>
d0023504:	e1a00004 	mov	r0, r4
d0023508:	e8bd81f0 	pop	{r4, r5, r6, r7, r8, pc}
d002350c:	e1a01007 	mov	r1, r7
d0023510:	e59f0014 	ldr	r0, [pc, #20]	; d002352c <nand_write+0x10c>
d0023514:	eb000136 	bl	d00239f4 <printf>
d0023518:	e3e00000 	mvn	r0, #0
d002351c:	e8bd81f0 	pop	{r4, r5, r6, r7, r8, pc}
d0023520:	d002607c 	andle	r6, r2, ip, ror r0
d0023524:	d0026298 	mulle	r2, r8, r2
d0023528:	d00260b0 	strhle	r6, [r2], r0
d002352c:	d002609c 	mulle	r2, ip, r0

d0023530 <erase_flash>:
d0023530:	e92d4038 	push	{r3, r4, r5, lr}
d0023534:	e1a045a0 	lsr	r4, r0, #11
d0023538:	e59f5058 	ldr	r5, [pc, #88]	; d0023598 <erase_flash+0x68>
d002353c:	e3a00060 	mov	r0, #96	; 0x60
d0023540:	e3e01000 	mvn	r1, #0
d0023544:	e1a02004 	mov	r2, r4
d0023548:	e1a0e00f 	mov	lr, pc
d002354c:	e595f018 	ldr	pc, [r5, #24]
d0023550:	e3e01000 	mvn	r1, #0
d0023554:	e3a000d0 	mov	r0, #208	; 0xd0
d0023558:	e1a02001 	mov	r2, r1
d002355c:	e1a0e00f 	mov	lr, pc
d0023560:	e595f018 	ldr	pc, [r5, #24]
d0023564:	ebffff9e 	bl	d00233e4 <nand_read_status>
d0023568:	e2105001 	ands	r5, r0, #1
d002356c:	1a000004 	bne	d0023584 <erase_flash+0x54>
d0023570:	e1a01004 	mov	r1, r4
d0023574:	e59f0020 	ldr	r0, [pc, #32]	; d002359c <erase_flash+0x6c>
d0023578:	eb00011d 	bl	d00239f4 <printf>
d002357c:	e1a00005 	mov	r0, r5
d0023580:	e8bd8038 	pop	{r3, r4, r5, pc}
d0023584:	e1a01004 	mov	r1, r4
d0023588:	e59f0010 	ldr	r0, [pc, #16]	; d00235a0 <erase_flash+0x70>
d002358c:	eb000118 	bl	d00239f4 <printf>
d0023590:	e3e00000 	mvn	r0, #0
d0023594:	e8bd8038 	pop	{r3, r4, r5, pc}
d0023598:	d0026298 	mulle	r2, r8, r2
d002359c:	d00260dc 	ldrdle	r6, [r2], -ip
d00235a0:	d00260c4 	andle	r6, r2, r4, asr #1

d00235a4 <nand_read>:
d00235a4:	e92d45f8 	push	{r3, r4, r5, r6, r7, r8, sl, lr}
d00235a8:	e2506000 	subs	r6, r0, #0
d00235ac:	e1a03001 	mov	r3, r1
d00235b0:	e1a07002 	mov	r7, r2
d00235b4:	03e00000 	mvneq	r0, #0
d00235b8:	08bd85f8 	popeq	{r3, r4, r5, r6, r7, r8, sl, pc}
d00235bc:	e1a01a81 	lsl	r1, r1, #21
d00235c0:	e3a00000 	mov	r0, #0
d00235c4:	e1a01aa1 	lsr	r1, r1, #21
d00235c8:	e1a025a3 	lsr	r2, r3, #11
d00235cc:	e59f50cc 	ldr	r5, [pc, #204]	; d00236a0 <nand_read+0xfc>
d00235d0:	e1a0e00f 	mov	lr, pc
d00235d4:	e595f018 	ldr	pc, [r5, #24]
d00235d8:	e3570000 	cmp	r7, #0
d00235dc:	01a00007 	moveq	r0, r7
d00235e0:	08bd85f8 	popeq	{r3, r4, r5, r6, r7, r8, sl, pc}
d00235e4:	e1a0e00f 	mov	lr, pc
d00235e8:	e595f000 	ldr	pc, [r5]
d00235ec:	e3a01000 	mov	r1, #0
d00235f0:	e2478001 	sub	r8, r7, #1
d00235f4:	e3a04001 	mov	r4, #1
d00235f8:	e2088001 	and	r8, r8, #1
d00235fc:	e1a0a004 	mov	sl, r4
d0023600:	e1a02000 	mov	r2, r0
d0023604:	e5c60000 	strb	r0, [r6]
d0023608:	e59f0094 	ldr	r0, [pc, #148]	; d00236a4 <nand_read+0x100>
d002360c:	eb0000f8 	bl	d00239f4 <printf>
d0023610:	e3570001 	cmp	r7, #1
d0023614:	9a00001f 	bls	d0023698 <nand_read+0xf4>
d0023618:	e3580000 	cmp	r8, #0
d002361c:	0a00000a 	beq	d002364c <nand_read+0xa8>
d0023620:	e1a0e00f 	mov	lr, pc
d0023624:	e595f000 	ldr	pc, [r5]
d0023628:	e1a01004 	mov	r1, r4
d002362c:	e3a04002 	mov	r4, #2
d0023630:	e1a0a004 	mov	sl, r4
d0023634:	e1a02000 	mov	r2, r0
d0023638:	e5c60001 	strb	r0, [r6, #1]
d002363c:	e59f0060 	ldr	r0, [pc, #96]	; d00236a4 <nand_read+0x100>
d0023640:	eb0000eb 	bl	d00239f4 <printf>
d0023644:	e1570004 	cmp	r7, r4
d0023648:	9a000012 	bls	d0023698 <nand_read+0xf4>
d002364c:	e1a0e00f 	mov	lr, pc
d0023650:	e595f000 	ldr	pc, [r5]
d0023654:	e1a01004 	mov	r1, r4
d0023658:	e2848001 	add	r8, r4, #1
d002365c:	e2884001 	add	r4, r8, #1
d0023660:	e1a02000 	mov	r2, r0
d0023664:	e7c6000a 	strb	r0, [r6, sl]
d0023668:	e59f0034 	ldr	r0, [pc, #52]	; d00236a4 <nand_read+0x100>
d002366c:	eb0000e0 	bl	d00239f4 <printf>
d0023670:	e1a0e00f 	mov	lr, pc
d0023674:	e595f000 	ldr	pc, [r5]
d0023678:	e1a01008 	mov	r1, r8
d002367c:	e1a0a004 	mov	sl, r4
d0023680:	e1a02000 	mov	r2, r0
d0023684:	e7c60008 	strb	r0, [r6, r8]
d0023688:	e59f0014 	ldr	r0, [pc, #20]	; d00236a4 <nand_read+0x100>
d002368c:	eb0000d8 	bl	d00239f4 <printf>
d0023690:	e1570004 	cmp	r7, r4
d0023694:	8affffec 	bhi	d002364c <nand_read+0xa8>
d0023698:	e1a00007 	mov	r0, r7
d002369c:	e8bd85f8 	pop	{r3, r4, r5, r6, r7, r8, sl, pc}
d00236a0:	d0026298 	mulle	r2, r8, r2
d00236a4:	d00260f8 	strdle	r6, [r2], -r8

d00236a8 <nand_init_chip>:
d00236a8:	e92d4038 	push	{r3, r4, r5, lr}
d00236ac:	e59f411c 	ldr	r4, [pc, #284]	; d00237d0 <nand_init_chip+0x128>
d00236b0:	e59fe11c 	ldr	lr, [pc, #284]	; d00237d4 <nand_init_chip+0x12c>
d00236b4:	e59fc11c 	ldr	ip, [pc, #284]	; d00237d8 <nand_init_chip+0x130>
d00236b8:	e59f311c 	ldr	r3, [pc, #284]	; d00237dc <nand_init_chip+0x134>
d00236bc:	e59f211c 	ldr	r2, [pc, #284]	; d00237e0 <nand_init_chip+0x138>
d00236c0:	e3e00000 	mvn	r0, #0
d00236c4:	e3a01081 	mov	r1, #129	; 0x81
d00236c8:	e59f5114 	ldr	r5, [pc, #276]	; d00237e4 <nand_init_chip+0x13c>
d00236cc:	e584e010 	str	lr, [r4, #16]
d00236d0:	e584c014 	str	ip, [r4, #20]
d00236d4:	e5843018 	str	r3, [r4, #24]
d00236d8:	e5842004 	str	r2, [r4, #4]
d00236dc:	e5845000 	str	r5, [r4]
d00236e0:	ebfffe9a 	bl	d0023150 <s5p_nand_hwcontrol>
d00236e4:	e3e01000 	mvn	r1, #0
d00236e8:	e1a02001 	mov	r2, r1
d00236ec:	e3a000ff 	mov	r0, #255	; 0xff
d00236f0:	ebfffec6 	bl	d0023210 <s5p_nand_lpcommand>
d00236f4:	e3a00090 	mov	r0, #144	; 0x90
d00236f8:	e3a01083 	mov	r1, #131	; 0x83
d00236fc:	e1a0e00f 	mov	lr, pc
d0023700:	e594f010 	ldr	pc, [r4, #16]
d0023704:	e3a00000 	mov	r0, #0
d0023708:	e3a01085 	mov	r1, #133	; 0x85
d002370c:	e1a0e00f 	mov	lr, pc
d0023710:	e594f010 	ldr	pc, [r4, #16]
d0023714:	e1a0e00f 	mov	lr, pc
d0023718:	e594f014 	ldr	pc, [r4, #20]
d002371c:	e59f50ac 	ldr	r5, [pc, #172]	; d00237d0 <nand_init_chip+0x128>
d0023720:	e3500000 	cmp	r0, #0
d0023724:	0afffffa 	beq	d0023714 <nand_init_chip+0x6c>
d0023728:	e1a0e00f 	mov	lr, pc
d002372c:	e595f000 	ldr	pc, [r5]
d0023730:	e3a01000 	mov	r1, #0
d0023734:	e1a02000 	mov	r2, r0
d0023738:	e59f00a8 	ldr	r0, [pc, #168]	; d00237e8 <nand_init_chip+0x140>
d002373c:	eb0000ac 	bl	d00239f4 <printf>
d0023740:	e1a0e00f 	mov	lr, pc
d0023744:	e595f000 	ldr	pc, [r5]
d0023748:	e3a01001 	mov	r1, #1
d002374c:	e1a02000 	mov	r2, r0
d0023750:	e59f0090 	ldr	r0, [pc, #144]	; d00237e8 <nand_init_chip+0x140>
d0023754:	eb0000a6 	bl	d00239f4 <printf>
d0023758:	e1a0e00f 	mov	lr, pc
d002375c:	e595f000 	ldr	pc, [r5]
d0023760:	e3a01002 	mov	r1, #2
d0023764:	e1a02000 	mov	r2, r0
d0023768:	e59f0078 	ldr	r0, [pc, #120]	; d00237e8 <nand_init_chip+0x140>
d002376c:	eb0000a0 	bl	d00239f4 <printf>
d0023770:	e1a0e00f 	mov	lr, pc
d0023774:	e595f000 	ldr	pc, [r5]
d0023778:	e3a01003 	mov	r1, #3
d002377c:	e1a02000 	mov	r2, r0
d0023780:	e59f0060 	ldr	r0, [pc, #96]	; d00237e8 <nand_init_chip+0x140>
d0023784:	eb00009a 	bl	d00239f4 <printf>
d0023788:	e1a0e00f 	mov	lr, pc
d002378c:	e595f000 	ldr	pc, [r5]
d0023790:	e3a01004 	mov	r1, #4
d0023794:	e1a02000 	mov	r2, r0
d0023798:	e59f0048 	ldr	r0, [pc, #72]	; d00237e8 <nand_init_chip+0x140>
d002379c:	eb000094 	bl	d00239f4 <printf>
d00237a0:	e1a0e00f 	mov	lr, pc
d00237a4:	e595f000 	ldr	pc, [r5]
d00237a8:	e3a01005 	mov	r1, #5
d00237ac:	e1a02000 	mov	r2, r0
d00237b0:	e59f0030 	ldr	r0, [pc, #48]	; d00237e8 <nand_init_chip+0x140>
d00237b4:	eb00008e 	bl	d00239f4 <printf>
d00237b8:	e3e01000 	mvn	r1, #0
d00237bc:	e3a000ff 	mov	r0, #255	; 0xff
d00237c0:	e1a02001 	mov	r2, r1
d00237c4:	e1a0e00f 	mov	lr, pc
d00237c8:	e595f018 	ldr	pc, [r5, #24]
d00237cc:	e8bd8038 	pop	{r3, r4, r5, pc}
d00237d0:	d0026298 	mulle	r2, r8, r2
d00237d4:	d0023150 	andle	r3, r2, r0, asr r1
d00237d8:	d00231d0 	ldrdle	r3, [r2], -r0
d00237dc:	d0023210 	andle	r3, r2, r0, lsl r2
d00237e0:	d00231ec 	andle	r3, r2, ip, ror #3
d00237e4:	d00231e0 	andle	r3, r2, r0, ror #3
d00237e8:	d0026104 	andle	r6, r2, r4, lsl #2

d00237ec <nand_lowlevel_init>:
d00237ec:	e92d4008 	push	{r3, lr}
d00237f0:	e59f0034 	ldr	r0, [pc, #52]	; d002382c <nand_lowlevel_init+0x40>
d00237f4:	eb00007e 	bl	d00239f4 <printf>
d00237f8:	e59fc030 	ldr	ip, [pc, #48]	; d0023830 <nand_lowlevel_init+0x44>
d00237fc:	e3a024eb 	mov	r2, #-352321536	; 0xeb000000
d0023800:	e59c12e0 	ldr	r1, [ip, #736]	; 0x2e0
d0023804:	e3c10c0f 	bic	r0, r1, #3840	; 0xf00
d0023808:	e3803c03 	orr	r3, r0, #768	; 0x300
d002380c:	e58c32e0 	str	r3, [ip, #736]	; 0x2e0
d0023810:	e59f101c 	ldr	r1, [pc, #28]	; d0023834 <nand_lowlevel_init+0x48>
d0023814:	e59f001c 	ldr	r0, [pc, #28]	; d0023838 <nand_lowlevel_init+0x4c>
d0023818:	e3a03007 	mov	r3, #7
d002381c:	e58c1320 	str	r1, [ip, #800]	; 0x320
d0023820:	e5820000 	str	r0, [r2]
d0023824:	e5823004 	str	r3, [r2, #4]
d0023828:	e8bd8008 	pop	{r3, pc}
d002382c:	d002611c 	andle	r6, r2, ip, lsl r1
d0023830:	e0200000 	eor	r0, r0, r0
d0023834:	22222222 	eorcs	r2, r2, #536870914	; 0x20000002
d0023838:	00001112 	andeq	r1, r0, r2, lsl r1

d002383c <__aeabi_uidiv>:
d002383c:	e3510000 	cmp	r1, #0
d0023840:	0a00001f 	beq	d00238c4 <Ldiv0>
d0023844:	e3a03001 	mov	r3, #1
d0023848:	e3a02000 	mov	r2, #0
d002384c:	e1500001 	cmp	r0, r1
d0023850:	3a000019 	bcc	d00238bc <Lgot_result>

d0023854 <Loop1>:
d0023854:	e3510201 	cmp	r1, #268435456	; 0x10000000
d0023858:	31510000 	cmpcc	r1, r0
d002385c:	31a01201 	lslcc	r1, r1, #4
d0023860:	31a03203 	lslcc	r3, r3, #4
d0023864:	3afffffa 	bcc	d0023854 <Loop1>

d0023868 <Lbignum>:
d0023868:	e3510102 	cmp	r1, #-2147483648	; 0x80000000
d002386c:	31510000 	cmpcc	r1, r0
d0023870:	31a01081 	lslcc	r1, r1, #1
d0023874:	31a03083 	lslcc	r3, r3, #1
d0023878:	3afffffa 	bcc	d0023868 <Lbignum>

d002387c <Loop3>:
d002387c:	e1500001 	cmp	r0, r1
d0023880:	20400001 	subcs	r0, r0, r1
d0023884:	21822003 	orrcs	r2, r2, r3
d0023888:	e15000a1 	cmp	r0, r1, lsr #1
d002388c:	204000a1 	subcs	r0, r0, r1, lsr #1
d0023890:	218220a3 	orrcs	r2, r2, r3, lsr #1
d0023894:	e1500121 	cmp	r0, r1, lsr #2
d0023898:	20400121 	subcs	r0, r0, r1, lsr #2
d002389c:	21822123 	orrcs	r2, r2, r3, lsr #2
d00238a0:	e15001a1 	cmp	r0, r1, lsr #3
d00238a4:	204001a1 	subcs	r0, r0, r1, lsr #3
d00238a8:	218221a3 	orrcs	r2, r2, r3, lsr #3
d00238ac:	e3500000 	cmp	r0, #0
d00238b0:	11b03223 	lsrsne	r3, r3, #4
d00238b4:	11a01221 	lsrne	r1, r1, #4
d00238b8:	1affffef 	bne	d002387c <Loop3>

d00238bc <Lgot_result>:
d00238bc:	e1a00002 	mov	r0, r2
d00238c0:	e1a0f00e 	mov	pc, lr

d00238c4 <Ldiv0>:
d00238c4:	e52de004 	push	{lr}		; (str lr, [sp, #-4]!)
d00238c8:	e3a00000 	mov	r0, #0
d00238cc:	e8bd8000 	pop	{pc}

d00238d0 <__aeabi_uidivmod>:
d00238d0:	e92d5003 	push	{r0, r1, ip, lr}
d00238d4:	ebffffd8 	bl	d002383c <__aeabi_uidiv>
d00238d8:	e8bd5006 	pop	{r1, r2, ip, lr}
d00238dc:	e0030290 	mul	r3, r0, r2
d00238e0:	e0411003 	sub	r1, r1, r3
d00238e4:	e1a0f00e 	mov	pc, lr

d00238e8 <__umodsi3>:
d00238e8:	e3510000 	cmp	r1, #0
d00238ec:	0a000026 	beq	d002398c <Ldiv0>
d00238f0:	e3a03001 	mov	r3, #1
d00238f4:	e1500001 	cmp	r0, r1
d00238f8:	31a0f00e 	movcc	pc, lr

d00238fc <Loop1>:
d00238fc:	e3510201 	cmp	r1, #268435456	; 0x10000000
d0023900:	31510000 	cmpcc	r1, r0
d0023904:	31a01201 	lslcc	r1, r1, #4
d0023908:	31a03203 	lslcc	r3, r3, #4
d002390c:	3afffffa 	bcc	d00238fc <Loop1>

d0023910 <Lbignum>:
d0023910:	e3510102 	cmp	r1, #-2147483648	; 0x80000000
d0023914:	31510000 	cmpcc	r1, r0
d0023918:	31a01081 	lslcc	r1, r1, #1
d002391c:	31a03083 	lslcc	r3, r3, #1
d0023920:	3afffffa 	bcc	d0023910 <Lbignum>

d0023924 <Loop3>:
d0023924:	e3a02000 	mov	r2, #0
d0023928:	e1500001 	cmp	r0, r1
d002392c:	20400001 	subcs	r0, r0, r1
d0023930:	e15000a1 	cmp	r0, r1, lsr #1
d0023934:	204000a1 	subcs	r0, r0, r1, lsr #1
d0023938:	218220e3 	orrcs	r2, r2, r3, ror #1
d002393c:	e1500121 	cmp	r0, r1, lsr #2
d0023940:	20400121 	subcs	r0, r0, r1, lsr #2
d0023944:	21822163 	orrcs	r2, r2, r3, ror #2
d0023948:	e15001a1 	cmp	r0, r1, lsr #3
d002394c:	204001a1 	subcs	r0, r0, r1, lsr #3
d0023950:	218221e3 	orrcs	r2, r2, r3, ror #3
d0023954:	e1a0c003 	mov	ip, r3
d0023958:	e3500000 	cmp	r0, #0
d002395c:	11b03223 	lsrsne	r3, r3, #4
d0023960:	11a01221 	lsrne	r1, r1, #4
d0023964:	1affffee 	bne	d0023924 <Loop3>
d0023968:	e212220e 	ands	r2, r2, #-536870912	; 0xe0000000
d002396c:	01a0f00e 	moveq	pc, lr
d0023970:	e11201ec 	tst	r2, ip, ror #3
d0023974:	108001a1 	addne	r0, r0, r1, lsr #3
d0023978:	e112016c 	tst	r2, ip, ror #2
d002397c:	10800121 	addne	r0, r0, r1, lsr #2
d0023980:	e11200ec 	tst	r2, ip, ror #1
d0023984:	108000a1 	addne	r0, r0, r1, lsr #1
d0023988:	e1a0f00e 	mov	pc, lr

d002398c <Ldiv0>:
d002398c:	e52de004 	push	{lr}		; (str lr, [sp, #-4]!)
d0023990:	e3a00000 	mov	r0, #0
d0023994:	e8bd8000 	pop	{pc}

d0023998 <scanf>:
d0023998:	e92d000f 	push	{r0, r1, r2, r3}
d002399c:	e92d4070 	push	{r4, r5, r6, lr}
d00239a0:	e59f5048 	ldr	r5, [pc, #72]	; d00239f0 <scanf+0x58>
d00239a4:	e3a04000 	mov	r4, #0
d00239a8:	ea000001 	b	d00239b4 <scanf+0x1c>
d00239ac:	e7c56004 	strb	r6, [r5, r4]
d00239b0:	e2844001 	add	r4, r4, #1
d00239b4:	ebfff331 	bl	d0020680 <getc>
d00239b8:	e1a06000 	mov	r6, r0
d00239bc:	ebfff327 	bl	d0020660 <putc>
d00239c0:	e356000d 	cmp	r6, #13
d00239c4:	1356000a 	cmpne	r6, #10
d00239c8:	1afffff7 	bne	d00239ac <scanf+0x14>
d00239cc:	e3a03000 	mov	r3, #0
d00239d0:	e59d1010 	ldr	r1, [sp, #16]
d00239d4:	e28d2014 	add	r2, sp, #20
d00239d8:	e59f0010 	ldr	r0, [pc, #16]	; d00239f0 <scanf+0x58>
d00239dc:	e7c53004 	strb	r3, [r5, r4]
d00239e0:	eb000507 	bl	d0024e04 <vsscanf>
d00239e4:	e8bd4070 	pop	{r4, r5, r6, lr}
d00239e8:	e28dd010 	add	sp, sp, #16
d00239ec:	e12fff1e 	bx	lr
d00239f0:	d00262b8 	strhle	r6, [r2], -r8

d00239f4 <printf>:
d00239f4:	e92d000f 	push	{r0, r1, r2, r3}
d00239f8:	e92d4070 	push	{r4, r5, r6, lr}
d00239fc:	e59f0044 	ldr	r0, [pc, #68]	; d0023a48 <printf+0x54>
d0023a00:	e59d1010 	ldr	r1, [sp, #16]
d0023a04:	e28d2014 	add	r2, sp, #20
d0023a08:	eb0008f5 	bl	d0025de4 <vsprintf>
d0023a0c:	e3a04000 	mov	r4, #0
d0023a10:	e59f5030 	ldr	r5, [pc, #48]	; d0023a48 <printf+0x54>
d0023a14:	e1a06000 	mov	r6, r0
d0023a18:	ea000002 	b	d0023a28 <printf+0x34>
d0023a1c:	e7d50004 	ldrb	r0, [r5, r4]
d0023a20:	ebfff30e 	bl	d0020660 <putc>
d0023a24:	e2844001 	add	r4, r4, #1
d0023a28:	e59f0018 	ldr	r0, [pc, #24]	; d0023a48 <printf+0x54>
d0023a2c:	eb00012b 	bl	d0023ee0 <strlen>
d0023a30:	e1500004 	cmp	r0, r4
d0023a34:	8afffff8 	bhi	d0023a1c <printf+0x28>
d0023a38:	e1a00006 	mov	r0, r6
d0023a3c:	e8bd4070 	pop	{r4, r5, r6, lr}
d0023a40:	e28dd010 	add	sp, sp, #16
d0023a44:	e12fff1e 	bx	lr
d0023a48:	d00266b8 	strhle	r6, [r2], -r8

d0023a4c <strnicmp>:
d0023a4c:	e3520000 	cmp	r2, #0
d0023a50:	e92d0070 	push	{r4, r5, r6}
d0023a54:	01a00002 	moveq	r0, r2
d0023a58:	0a000046 	beq	d0023b78 <strnicmp+0x12c>
d0023a5c:	e5d03000 	ldrb	r3, [r0]
d0023a60:	e242c001 	sub	ip, r2, #1
d0023a64:	e3530000 	cmp	r3, #0
d0023a68:	e20c6001 	and	r6, ip, #1
d0023a6c:	e59f511c 	ldr	r5, [pc, #284]	; d0023b90 <strnicmp+0x144>
d0023a70:	e5d1c000 	ldrb	ip, [r1]
d0023a74:	0a00003e 	beq	d0023b74 <strnicmp+0x128>
d0023a78:	e35c0000 	cmp	ip, #0
d0023a7c:	0a000041 	beq	d0023b88 <strnicmp+0x13c>
d0023a80:	e153000c 	cmp	r3, ip
d0023a84:	0a000009 	beq	d0023ab0 <strnicmp+0x64>
d0023a88:	e7d54003 	ldrb	r4, [r5, r3]
d0023a8c:	e3140001 	tst	r4, #1
d0023a90:	e7d5400c 	ldrb	r4, [r5, ip]
d0023a94:	12833020 	addne	r3, r3, #32
d0023a98:	120330ff 	andne	r3, r3, #255	; 0xff
d0023a9c:	e3140001 	tst	r4, #1
d0023aa0:	128cc020 	addne	ip, ip, #32
d0023aa4:	120cc0ff 	andne	ip, ip, #255	; 0xff
d0023aa8:	e153000c 	cmp	r3, ip
d0023aac:	1a000033 	bne	d0023b80 <strnicmp+0x134>
d0023ab0:	e3a04001 	mov	r4, #1
d0023ab4:	e1520004 	cmp	r2, r4
d0023ab8:	0a000030 	beq	d0023b80 <strnicmp+0x134>
d0023abc:	e3560000 	cmp	r6, #0
d0023ac0:	0a000014 	beq	d0023b18 <strnicmp+0xcc>
d0023ac4:	e7d03004 	ldrb	r3, [r0, r4]
d0023ac8:	e7d1c004 	ldrb	ip, [r1, r4]
d0023acc:	e3530000 	cmp	r3, #0
d0023ad0:	0a000027 	beq	d0023b74 <strnicmp+0x128>
d0023ad4:	e35c0000 	cmp	ip, #0
d0023ad8:	0a00002a 	beq	d0023b88 <strnicmp+0x13c>
d0023adc:	e153000c 	cmp	r3, ip
d0023ae0:	0a000009 	beq	d0023b0c <strnicmp+0xc0>
d0023ae4:	e7d56003 	ldrb	r6, [r5, r3]
d0023ae8:	e3160001 	tst	r6, #1
d0023aec:	e7d5600c 	ldrb	r6, [r5, ip]
d0023af0:	12833020 	addne	r3, r3, #32
d0023af4:	120330ff 	andne	r3, r3, #255	; 0xff
d0023af8:	e3160001 	tst	r6, #1
d0023afc:	128cc020 	addne	ip, ip, #32
d0023b00:	120cc0ff 	andne	ip, ip, #255	; 0xff
d0023b04:	e153000c 	cmp	r3, ip
d0023b08:	1a00001c 	bne	d0023b80 <strnicmp+0x134>
d0023b0c:	e2844001 	add	r4, r4, #1
d0023b10:	e1520004 	cmp	r2, r4
d0023b14:	0a000019 	beq	d0023b80 <strnicmp+0x134>
d0023b18:	e7d03004 	ldrb	r3, [r0, r4]
d0023b1c:	e7d1c004 	ldrb	ip, [r1, r4]
d0023b20:	e3530000 	cmp	r3, #0
d0023b24:	0a000012 	beq	d0023b74 <strnicmp+0x128>
d0023b28:	e35c0000 	cmp	ip, #0
d0023b2c:	0a000015 	beq	d0023b88 <strnicmp+0x13c>
d0023b30:	e153000c 	cmp	r3, ip
d0023b34:	0a000009 	beq	d0023b60 <strnicmp+0x114>
d0023b38:	e7d56003 	ldrb	r6, [r5, r3]
d0023b3c:	e3160001 	tst	r6, #1
d0023b40:	e7d5600c 	ldrb	r6, [r5, ip]
d0023b44:	12833020 	addne	r3, r3, #32
d0023b48:	120330ff 	andne	r3, r3, #255	; 0xff
d0023b4c:	e3160001 	tst	r6, #1
d0023b50:	128cc020 	addne	ip, ip, #32
d0023b54:	120cc0ff 	andne	ip, ip, #255	; 0xff
d0023b58:	e153000c 	cmp	r3, ip
d0023b5c:	1a000007 	bne	d0023b80 <strnicmp+0x134>
d0023b60:	e2844001 	add	r4, r4, #1
d0023b64:	e7d03004 	ldrb	r3, [r0, r4]
d0023b68:	e7d1c004 	ldrb	ip, [r1, r4]
d0023b6c:	e3530000 	cmp	r3, #0
d0023b70:	1affffd7 	bne	d0023ad4 <strnicmp+0x88>
d0023b74:	e26c0000 	rsb	r0, ip, #0
d0023b78:	e8bd0070 	pop	{r4, r5, r6}
d0023b7c:	e12fff1e 	bx	lr
d0023b80:	e06c0003 	rsb	r0, ip, r3
d0023b84:	eafffffb 	b	d0023b78 <strnicmp+0x12c>
d0023b88:	e1a00003 	mov	r0, r3
d0023b8c:	eafffff9 	b	d0023b78 <strnicmp+0x12c>
d0023b90:	d0026194 	mulle	r2, r4, r1

d0023b94 <strcpy>:
d0023b94:	e3a03000 	mov	r3, #0
d0023b98:	e7d12003 	ldrb	r2, [r1, r3]
d0023b9c:	e7c02003 	strb	r2, [r0, r3]
d0023ba0:	e3520000 	cmp	r2, #0
d0023ba4:	e2833001 	add	r3, r3, #1
d0023ba8:	1afffffa 	bne	d0023b98 <strcpy+0x4>
d0023bac:	e12fff1e 	bx	lr

d0023bb0 <strncpy>:
d0023bb0:	e3120001 	tst	r2, #1
d0023bb4:	e3a03000 	mov	r3, #0
d0023bb8:	0a000005 	beq	d0023bd4 <strncpy+0x24>
d0023bbc:	e5d13000 	ldrb	r3, [r1]
d0023bc0:	e5c03000 	strb	r3, [r0]
d0023bc4:	e3530000 	cmp	r3, #0
d0023bc8:	e2422001 	sub	r2, r2, #1
d0023bcc:	e3a03001 	mov	r3, #1
d0023bd0:	012fff1e 	bxeq	lr
d0023bd4:	e3520000 	cmp	r2, #0
d0023bd8:	012fff1e 	bxeq	lr
d0023bdc:	e7d1c003 	ldrb	ip, [r1, r3]
d0023be0:	e7c0c003 	strb	ip, [r0, r3]
d0023be4:	e35c0000 	cmp	ip, #0
d0023be8:	e2833001 	add	r3, r3, #1
d0023bec:	e2422001 	sub	r2, r2, #1
d0023bf0:	0a000006 	beq	d0023c10 <strncpy+0x60>
d0023bf4:	e7d1c003 	ldrb	ip, [r1, r3]
d0023bf8:	e7c0c003 	strb	ip, [r0, r3]
d0023bfc:	e35c0000 	cmp	ip, #0
d0023c00:	e2833001 	add	r3, r3, #1
d0023c04:	e2422001 	sub	r2, r2, #1
d0023c08:	1afffff1 	bne	d0023bd4 <strncpy+0x24>
d0023c0c:	e12fff1e 	bx	lr
d0023c10:	e12fff1e 	bx	lr

d0023c14 <strcat>:
d0023c14:	e5d03000 	ldrb	r3, [r0]
d0023c18:	e3530000 	cmp	r3, #0
d0023c1c:	01a02000 	moveq	r2, r0
d0023c20:	0a000003 	beq	d0023c34 <strcat+0x20>
d0023c24:	e1a02000 	mov	r2, r0
d0023c28:	e5f2c001 	ldrb	ip, [r2, #1]!
d0023c2c:	e35c0000 	cmp	ip, #0
d0023c30:	1afffffc 	bne	d0023c28 <strcat+0x14>
d0023c34:	e3a03000 	mov	r3, #0
d0023c38:	e7d1c003 	ldrb	ip, [r1, r3]
d0023c3c:	e7c2c003 	strb	ip, [r2, r3]
d0023c40:	e35c0000 	cmp	ip, #0
d0023c44:	e2833001 	add	r3, r3, #1
d0023c48:	1afffffa 	bne	d0023c38 <strcat+0x24>
d0023c4c:	e12fff1e 	bx	lr

d0023c50 <strncat>:
d0023c50:	e3520000 	cmp	r2, #0
d0023c54:	e92d0070 	push	{r4, r5, r6}
d0023c58:	0a00002b 	beq	d0023d0c <strncat+0xbc>
d0023c5c:	e5d03000 	ldrb	r3, [r0]
d0023c60:	e3530000 	cmp	r3, #0
d0023c64:	01a03000 	moveq	r3, r0
d0023c68:	0a000003 	beq	d0023c7c <strncat+0x2c>
d0023c6c:	e1a03000 	mov	r3, r0
d0023c70:	e5f3c001 	ldrb	ip, [r3, #1]!
d0023c74:	e35c0000 	cmp	ip, #0
d0023c78:	1afffffc 	bne	d0023c70 <strncat+0x20>
d0023c7c:	e5d1c000 	ldrb	ip, [r1]
d0023c80:	e2424001 	sub	r4, r2, #1
d0023c84:	e35c0000 	cmp	ip, #0
d0023c88:	e2044001 	and	r4, r4, #1
d0023c8c:	e5c3c000 	strb	ip, [r3]
d0023c90:	0a00001d 	beq	d0023d0c <strncat+0xbc>
d0023c94:	e3a0c001 	mov	ip, #1
d0023c98:	e15c0002 	cmp	ip, r2
d0023c9c:	e083500c 	add	r5, r3, ip
d0023ca0:	0a000017 	beq	d0023d04 <strncat+0xb4>
d0023ca4:	e3540000 	cmp	r4, #0
d0023ca8:	0a000007 	beq	d0023ccc <strncat+0x7c>
d0023cac:	e7d1400c 	ldrb	r4, [r1, ip]
d0023cb0:	e7c3400c 	strb	r4, [r3, ip]
d0023cb4:	e3540000 	cmp	r4, #0
d0023cb8:	0a000013 	beq	d0023d0c <strncat+0xbc>
d0023cbc:	e3a0c002 	mov	ip, #2
d0023cc0:	e15c0002 	cmp	ip, r2
d0023cc4:	e2855001 	add	r5, r5, #1
d0023cc8:	0a00000d 	beq	d0023d04 <strncat+0xb4>
d0023ccc:	e7d1600c 	ldrb	r6, [r1, ip]
d0023cd0:	e28c4001 	add	r4, ip, #1
d0023cd4:	e3560000 	cmp	r6, #0
d0023cd8:	e7c3600c 	strb	r6, [r3, ip]
d0023cdc:	e284c001 	add	ip, r4, #1
d0023ce0:	0a000009 	beq	d0023d0c <strncat+0xbc>
d0023ce4:	e7d16004 	ldrb	r6, [r1, r4]
d0023ce8:	e2855001 	add	r5, r5, #1
d0023cec:	e3560000 	cmp	r6, #0
d0023cf0:	e7c36004 	strb	r6, [r3, r4]
d0023cf4:	0a000004 	beq	d0023d0c <strncat+0xbc>
d0023cf8:	e15c0002 	cmp	ip, r2
d0023cfc:	e2855001 	add	r5, r5, #1
d0023d00:	1afffff1 	bne	d0023ccc <strncat+0x7c>
d0023d04:	e3a03000 	mov	r3, #0
d0023d08:	e5c53000 	strb	r3, [r5]
d0023d0c:	e8bd0070 	pop	{r4, r5, r6}
d0023d10:	e12fff1e 	bx	lr

d0023d14 <strcmp>:
d0023d14:	e3a03000 	mov	r3, #0
d0023d18:	e7d02003 	ldrb	r2, [r0, r3]
d0023d1c:	e7d1c003 	ldrb	ip, [r1, r3]
d0023d20:	e2833001 	add	r3, r3, #1
d0023d24:	e06cc002 	rsb	ip, ip, r2
d0023d28:	e21cc0ff 	ands	ip, ip, #255	; 0xff
d0023d2c:	1a000003 	bne	d0023d40 <strcmp+0x2c>
d0023d30:	e3520000 	cmp	r2, #0
d0023d34:	1afffff7 	bne	d0023d18 <strcmp+0x4>
d0023d38:	e1a00002 	mov	r0, r2
d0023d3c:	e12fff1e 	bx	lr
d0023d40:	e1a01c0c 	lsl	r1, ip, #24
d0023d44:	e1a00c41 	asr	r0, r1, #24
d0023d48:	e12fff1e 	bx	lr

d0023d4c <strncmp>:
d0023d4c:	e3520000 	cmp	r2, #0
d0023d50:	e52d4004 	push	{r4}		; (str r4, [sp, #-4]!)
d0023d54:	0a000013 	beq	d0023da8 <strncmp+0x5c>
d0023d58:	e5d0c000 	ldrb	ip, [r0]
d0023d5c:	e5d13000 	ldrb	r3, [r1]
d0023d60:	e063300c 	rsb	r3, r3, ip
d0023d64:	e21330ff 	ands	r3, r3, #255	; 0xff
d0023d68:	1a000027 	bne	d0023e0c <strncmp+0xc0>
d0023d6c:	e35c0000 	cmp	ip, #0
d0023d70:	0a00000c 	beq	d0023da8 <strncmp+0x5c>
d0023d74:	e242c001 	sub	ip, r2, #1
d0023d78:	e31c0001 	tst	ip, #1
d0023d7c:	0a00001f 	beq	d0023e00 <strncmp+0xb4>
d0023d80:	e5d13001 	ldrb	r3, [r1, #1]
d0023d84:	e5d04001 	ldrb	r4, [r0, #1]
d0023d88:	e1a0200c 	mov	r2, ip
d0023d8c:	e063c004 	rsb	ip, r3, r4
d0023d90:	e21c30ff 	ands	r3, ip, #255	; 0xff
d0023d94:	1a00001c 	bne	d0023e0c <strncmp+0xc0>
d0023d98:	e3540000 	cmp	r4, #0
d0023d9c:	e2800001 	add	r0, r0, #1
d0023da0:	e2811001 	add	r1, r1, #1
d0023da4:	1a000015 	bne	d0023e00 <strncmp+0xb4>
d0023da8:	e3a00000 	mov	r0, #0
d0023dac:	e8bd0010 	pop	{r4}
d0023db0:	e12fff1e 	bx	lr
d0023db4:	e5d0c001 	ldrb	ip, [r0, #1]
d0023db8:	e5d13001 	ldrb	r3, [r1, #1]
d0023dbc:	e2800001 	add	r0, r0, #1
d0023dc0:	e063300c 	rsb	r3, r3, ip
d0023dc4:	e21330ff 	ands	r3, r3, #255	; 0xff
d0023dc8:	1a00000f 	bne	d0023e0c <strncmp+0xc0>
d0023dcc:	e35c0000 	cmp	ip, #0
d0023dd0:	e2811001 	add	r1, r1, #1
d0023dd4:	0afffff3 	beq	d0023da8 <strncmp+0x5c>
d0023dd8:	e5d0c001 	ldrb	ip, [r0, #1]
d0023ddc:	e5d13001 	ldrb	r3, [r1, #1]
d0023de0:	e2422001 	sub	r2, r2, #1
d0023de4:	e063300c 	rsb	r3, r3, ip
d0023de8:	e21330ff 	ands	r3, r3, #255	; 0xff
d0023dec:	1a000006 	bne	d0023e0c <strncmp+0xc0>
d0023df0:	e35c0000 	cmp	ip, #0
d0023df4:	e2800001 	add	r0, r0, #1
d0023df8:	e2811001 	add	r1, r1, #1
d0023dfc:	0affffe9 	beq	d0023da8 <strncmp+0x5c>
d0023e00:	e2522001 	subs	r2, r2, #1
d0023e04:	1affffea 	bne	d0023db4 <strncmp+0x68>
d0023e08:	eaffffe6 	b	d0023da8 <strncmp+0x5c>
d0023e0c:	e1a01c03 	lsl	r1, r3, #24
d0023e10:	e1a00c41 	asr	r0, r1, #24
d0023e14:	eaffffe4 	b	d0023dac <strncmp+0x60>

d0023e18 <strchr>:
d0023e18:	e5d03000 	ldrb	r3, [r0]
d0023e1c:	e20110ff 	and	r1, r1, #255	; 0xff
d0023e20:	e1530001 	cmp	r3, r1
d0023e24:	1a000003 	bne	d0023e38 <strchr+0x20>
d0023e28:	e12fff1e 	bx	lr
d0023e2c:	e5f03001 	ldrb	r3, [r0, #1]!
d0023e30:	e1530001 	cmp	r3, r1
d0023e34:	0a000003 	beq	d0023e48 <strchr+0x30>
d0023e38:	e3530000 	cmp	r3, #0
d0023e3c:	1afffffa 	bne	d0023e2c <strchr+0x14>
d0023e40:	e3a00000 	mov	r0, #0
d0023e44:	e12fff1e 	bx	lr
d0023e48:	e12fff1e 	bx	lr

d0023e4c <strrchr>:
d0023e4c:	e5d02000 	ldrb	r2, [r0]
d0023e50:	e1a03000 	mov	r3, r0
d0023e54:	e3520000 	cmp	r2, #0
d0023e58:	0a000004 	beq	d0023e70 <strrchr+0x24>
d0023e5c:	e1a02000 	mov	r2, r0
d0023e60:	e5f20001 	ldrb	r0, [r2, #1]!
d0023e64:	e3500000 	cmp	r0, #0
d0023e68:	1afffffc 	bne	d0023e60 <strrchr+0x14>
d0023e6c:	e0632002 	rsb	r2, r3, r2
d0023e70:	e0830002 	add	r0, r3, r2
d0023e74:	e5d0c000 	ldrb	ip, [r0]
d0023e78:	e20110ff 	and	r1, r1, #255	; 0xff
d0023e7c:	e15c0001 	cmp	ip, r1
d0023e80:	e2022001 	and	r2, r2, #1
d0023e84:	012fff1e 	bxeq	lr
d0023e88:	e2400001 	sub	r0, r0, #1
d0023e8c:	e1530000 	cmp	r3, r0
d0023e90:	8a000010 	bhi	d0023ed8 <strrchr+0x8c>
d0023e94:	e3520000 	cmp	r2, #0
d0023e98:	0a000005 	beq	d0023eb4 <strrchr+0x68>
d0023e9c:	e5d02000 	ldrb	r2, [r0]
d0023ea0:	e1520001 	cmp	r2, r1
d0023ea4:	012fff1e 	bxeq	lr
d0023ea8:	e2400001 	sub	r0, r0, #1
d0023eac:	e1530000 	cmp	r3, r0
d0023eb0:	8a000008 	bhi	d0023ed8 <strrchr+0x8c>
d0023eb4:	e5d02000 	ldrb	r2, [r0]
d0023eb8:	e1520001 	cmp	r2, r1
d0023ebc:	012fff1e 	bxeq	lr
d0023ec0:	e570c001 	ldrb	ip, [r0, #-1]!
d0023ec4:	e15c0001 	cmp	ip, r1
d0023ec8:	012fff1e 	bxeq	lr
d0023ecc:	e2400001 	sub	r0, r0, #1
d0023ed0:	e1530000 	cmp	r3, r0
d0023ed4:	9afffff6 	bls	d0023eb4 <strrchr+0x68>
d0023ed8:	e3a00000 	mov	r0, #0
d0023edc:	e12fff1e 	bx	lr

d0023ee0 <strlen>:
d0023ee0:	e5d03000 	ldrb	r3, [r0]
d0023ee4:	e3530000 	cmp	r3, #0
d0023ee8:	01a00003 	moveq	r0, r3
d0023eec:	012fff1e 	bxeq	lr
d0023ef0:	e1a03000 	mov	r3, r0
d0023ef4:	e5f32001 	ldrb	r2, [r3, #1]!
d0023ef8:	e3520000 	cmp	r2, #0
d0023efc:	1afffffc 	bne	d0023ef4 <strlen+0x14>
d0023f00:	e0600003 	rsb	r0, r0, r3
d0023f04:	e12fff1e 	bx	lr

d0023f08 <strnlen>:
d0023f08:	e3510000 	cmp	r1, #0
d0023f0c:	0a00001a 	beq	d0023f7c <strnlen+0x74>
d0023f10:	e5d03000 	ldrb	r3, [r0]
d0023f14:	e3530000 	cmp	r3, #0
d0023f18:	0a000017 	beq	d0023f7c <strnlen+0x74>
d0023f1c:	e2411001 	sub	r1, r1, #1
d0023f20:	e3110001 	tst	r1, #1
d0023f24:	e1a03000 	mov	r3, r0
d0023f28:	0a00000e 	beq	d0023f68 <strnlen+0x60>
d0023f2c:	e1a03000 	mov	r3, r0
d0023f30:	e5f3c001 	ldrb	ip, [r3, #1]!
d0023f34:	e2411001 	sub	r1, r1, #1
d0023f38:	e35c0000 	cmp	ip, #0
d0023f3c:	1a000009 	bne	d0023f68 <strnlen+0x60>
d0023f40:	e0600003 	rsb	r0, r0, r3
d0023f44:	e12fff1e 	bx	lr
d0023f48:	e5d32000 	ldrb	r2, [r3]
d0023f4c:	e2411001 	sub	r1, r1, #1
d0023f50:	e3520000 	cmp	r2, #0
d0023f54:	0afffff9 	beq	d0023f40 <strnlen+0x38>
d0023f58:	e5f32001 	ldrb	r2, [r3, #1]!
d0023f5c:	e2411001 	sub	r1, r1, #1
d0023f60:	e3520000 	cmp	r2, #0
d0023f64:	0afffff5 	beq	d0023f40 <strnlen+0x38>
d0023f68:	e3510000 	cmp	r1, #0
d0023f6c:	e2833001 	add	r3, r3, #1
d0023f70:	1afffff4 	bne	d0023f48 <strnlen+0x40>
d0023f74:	e0600003 	rsb	r0, r0, r3
d0023f78:	e12fff1e 	bx	lr
d0023f7c:	e3a00000 	mov	r0, #0
d0023f80:	e12fff1e 	bx	lr

d0023f84 <strspn>:
d0023f84:	e92d0030 	push	{r4, r5}
d0023f88:	e5d03000 	ldrb	r3, [r0]
d0023f8c:	e1a02000 	mov	r2, r0
d0023f90:	e3530000 	cmp	r3, #0
d0023f94:	0a000014 	beq	d0023fec <strspn+0x68>
d0023f98:	e5d15000 	ldrb	r5, [r1]
d0023f9c:	e3550000 	cmp	r5, #0
d0023fa0:	13a00000 	movne	r0, #0
d0023fa4:	0a000010 	beq	d0023fec <strspn+0x68>
d0023fa8:	e1550003 	cmp	r5, r3
d0023fac:	11a0c001 	movne	ip, r1
d0023fb0:	1a000002 	bne	d0023fc0 <strspn+0x3c>
d0023fb4:	ea000007 	b	d0023fd8 <strspn+0x54>
d0023fb8:	e1530004 	cmp	r3, r4
d0023fbc:	0a000005 	beq	d0023fd8 <strspn+0x54>
d0023fc0:	e5dc4001 	ldrb	r4, [ip, #1]
d0023fc4:	e28cc001 	add	ip, ip, #1
d0023fc8:	e3540000 	cmp	r4, #0
d0023fcc:	1afffff9 	bne	d0023fb8 <strspn+0x34>
d0023fd0:	e8bd0030 	pop	{r4, r5}
d0023fd4:	e12fff1e 	bx	lr
d0023fd8:	e2800001 	add	r0, r0, #1
d0023fdc:	e7d23000 	ldrb	r3, [r2, r0]
d0023fe0:	e3530000 	cmp	r3, #0
d0023fe4:	1affffef 	bne	d0023fa8 <strspn+0x24>
d0023fe8:	eafffff8 	b	d0023fd0 <strspn+0x4c>
d0023fec:	e3a00000 	mov	r0, #0
d0023ff0:	eafffff6 	b	d0023fd0 <strspn+0x4c>

d0023ff4 <strpbrk>:
d0023ff4:	e92d0030 	push	{r4, r5}
d0023ff8:	e5d03000 	ldrb	r3, [r0]
d0023ffc:	e3530000 	cmp	r3, #0
d0024000:	0a000011 	beq	d002404c <strpbrk+0x58>
d0024004:	e5d15000 	ldrb	r5, [r1]
d0024008:	e1a04000 	mov	r4, r0
d002400c:	e3550000 	cmp	r5, #0
d0024010:	e1a00004 	mov	r0, r4
d0024014:	0a000009 	beq	d0024040 <strpbrk+0x4c>
d0024018:	e1550003 	cmp	r5, r3
d002401c:	0a00000b 	beq	d0024050 <strpbrk+0x5c>
d0024020:	e1a02001 	mov	r2, r1
d0024024:	ea000001 	b	d0024030 <strpbrk+0x3c>
d0024028:	e153000c 	cmp	r3, ip
d002402c:	0a000007 	beq	d0024050 <strpbrk+0x5c>
d0024030:	e5d2c001 	ldrb	ip, [r2, #1]
d0024034:	e2822001 	add	r2, r2, #1
d0024038:	e35c0000 	cmp	ip, #0
d002403c:	1afffff9 	bne	d0024028 <strpbrk+0x34>
d0024040:	e5f43001 	ldrb	r3, [r4, #1]!
d0024044:	e3530000 	cmp	r3, #0
d0024048:	1affffef 	bne	d002400c <strpbrk+0x18>
d002404c:	e3a00000 	mov	r0, #0
d0024050:	e8bd0030 	pop	{r4, r5}
d0024054:	e12fff1e 	bx	lr

d0024058 <strtok>:
d0024058:	e3500000 	cmp	r0, #0
d002405c:	e92d0070 	push	{r4, r5, r6}
d0024060:	159f60f4 	ldrne	r6, [pc, #244]	; d002415c <strtok+0x104>
d0024064:	0a000032 	beq	d0024134 <strtok+0xdc>
d0024068:	e5d0c000 	ldrb	ip, [r0]
d002406c:	e35c0000 	cmp	ip, #0
d0024070:	0a000034 	beq	d0024148 <strtok+0xf0>
d0024074:	e5d15000 	ldrb	r5, [r1]
d0024078:	e3550000 	cmp	r5, #0
d002407c:	13a04000 	movne	r4, #0
d0024080:	0a000033 	beq	d0024154 <strtok+0xfc>
d0024084:	e155000c 	cmp	r5, ip
d0024088:	11a03001 	movne	r3, r1
d002408c:	1a000002 	bne	d002409c <strtok+0x44>
d0024090:	ea00001b 	b	d0024104 <strtok+0xac>
d0024094:	e152000c 	cmp	r2, ip
d0024098:	0a000019 	beq	d0024104 <strtok+0xac>
d002409c:	e5d32001 	ldrb	r2, [r3, #1]
d00240a0:	e2833001 	add	r3, r3, #1
d00240a4:	e3520000 	cmp	r2, #0
d00240a8:	1afffff9 	bne	d0024094 <strtok+0x3c>
d00240ac:	e7f0c004 	ldrb	ip, [r0, r4]!
d00240b0:	e35c0000 	cmp	ip, #0
d00240b4:	11a04000 	movne	r4, r0
d00240b8:	0a000022 	beq	d0024148 <strtok+0xf0>
d00240bc:	e3550000 	cmp	r5, #0
d00240c0:	0a000009 	beq	d00240ec <strtok+0x94>
d00240c4:	e155000c 	cmp	r5, ip
d00240c8:	0a000012 	beq	d0024118 <strtok+0xc0>
d00240cc:	e1a03001 	mov	r3, r1
d00240d0:	ea000001 	b	d00240dc <strtok+0x84>
d00240d4:	e152000c 	cmp	r2, ip
d00240d8:	0a00000e 	beq	d0024118 <strtok+0xc0>
d00240dc:	e5d32001 	ldrb	r2, [r3, #1]
d00240e0:	e2833001 	add	r3, r3, #1
d00240e4:	e3520000 	cmp	r2, #0
d00240e8:	1afffff9 	bne	d00240d4 <strtok+0x7c>
d00240ec:	e5f4c001 	ldrb	ip, [r4, #1]!
d00240f0:	e35c0000 	cmp	ip, #0
d00240f4:	1afffff0 	bne	d00240bc <strtok+0x64>
d00240f8:	e586c000 	str	ip, [r6]
d00240fc:	e8bd0070 	pop	{r4, r5, r6}
d0024100:	e12fff1e 	bx	lr
d0024104:	e2844001 	add	r4, r4, #1
d0024108:	e7d0c004 	ldrb	ip, [r0, r4]
d002410c:	e35c0000 	cmp	ip, #0
d0024110:	1affffdb 	bne	d0024084 <strtok+0x2c>
d0024114:	eaffffe4 	b	d00240ac <strtok+0x54>
d0024118:	e254c000 	subs	ip, r4, #0
d002411c:	0afffff5 	beq	d00240f8 <strtok+0xa0>
d0024120:	e5dc3000 	ldrb	r3, [ip]
d0024124:	e3530000 	cmp	r3, #0
d0024128:	13a03000 	movne	r3, #0
d002412c:	14cc3001 	strbne	r3, [ip], #1
d0024130:	eafffff0 	b	d00240f8 <strtok+0xa0>
d0024134:	e59f6020 	ldr	r6, [pc, #32]	; d002415c <strtok+0x104>
d0024138:	e5960000 	ldr	r0, [r6]
d002413c:	e3500000 	cmp	r0, #0
d0024140:	0affffed 	beq	d00240fc <strtok+0xa4>
d0024144:	eaffffc7 	b	d0024068 <strtok+0x10>
d0024148:	e3a00000 	mov	r0, #0
d002414c:	e5860000 	str	r0, [r6]
d0024150:	eaffffe9 	b	d00240fc <strtok+0xa4>
d0024154:	e1a04005 	mov	r4, r5
d0024158:	eaffffd3 	b	d00240ac <strtok+0x54>
d002415c:	d0026ab8 	strhle	r6, [r2], -r8

d0024160 <strsep>:
d0024160:	e5903000 	ldr	r3, [r0]
d0024164:	e92d0070 	push	{r4, r5, r6}
d0024168:	e3530000 	cmp	r3, #0
d002416c:	0a000015 	beq	d00241c8 <strsep+0x68>
d0024170:	e5d34000 	ldrb	r4, [r3]
d0024174:	e3540000 	cmp	r4, #0
d0024178:	0a000010 	beq	d00241c0 <strsep+0x60>
d002417c:	e5d16000 	ldrb	r6, [r1]
d0024180:	e1a05003 	mov	r5, r3
d0024184:	e3560000 	cmp	r6, #0
d0024188:	0a000009 	beq	d00241b4 <strsep+0x54>
d002418c:	e1560004 	cmp	r6, r4
d0024190:	0a00000f 	beq	d00241d4 <strsep+0x74>
d0024194:	e1a02001 	mov	r2, r1
d0024198:	ea000001 	b	d00241a4 <strsep+0x44>
d002419c:	e15c0004 	cmp	ip, r4
d00241a0:	0a00000b 	beq	d00241d4 <strsep+0x74>
d00241a4:	e5d2c001 	ldrb	ip, [r2, #1]
d00241a8:	e2822001 	add	r2, r2, #1
d00241ac:	e35c0000 	cmp	ip, #0
d00241b0:	1afffff9 	bne	d002419c <strsep+0x3c>
d00241b4:	e5f54001 	ldrb	r4, [r5, #1]!
d00241b8:	e3540000 	cmp	r4, #0
d00241bc:	1afffff0 	bne	d0024184 <strsep+0x24>
d00241c0:	e3a05000 	mov	r5, #0
d00241c4:	e5805000 	str	r5, [r0]
d00241c8:	e1a00003 	mov	r0, r3
d00241cc:	e8bd0070 	pop	{r4, r5, r6}
d00241d0:	e12fff1e 	bx	lr
d00241d4:	e3550000 	cmp	r5, #0
d00241d8:	13a02000 	movne	r2, #0
d00241dc:	14c52001 	strbne	r2, [r5], #1
d00241e0:	e5805000 	str	r5, [r0]
d00241e4:	eafffff7 	b	d00241c8 <strsep+0x68>

d00241e8 <memset>:
d00241e8:	e3520000 	cmp	r2, #0
d00241ec:	012fff1e 	bxeq	lr
d00241f0:	e3a03001 	mov	r3, #1
d00241f4:	e20110ff 	and	r1, r1, #255	; 0xff
d00241f8:	e242c001 	sub	ip, r2, #1
d00241fc:	e1530002 	cmp	r3, r2
d0024200:	e00cc003 	and	ip, ip, r3
d0024204:	e5c01000 	strb	r1, [r0]
d0024208:	012fff1e 	bxeq	lr
d002420c:	e35c0000 	cmp	ip, #0
d0024210:	0a000003 	beq	d0024224 <memset+0x3c>
d0024214:	e3a03002 	mov	r3, #2
d0024218:	e1530002 	cmp	r3, r2
d002421c:	e5c01001 	strb	r1, [r0, #1]
d0024220:	012fff1e 	bxeq	lr
d0024224:	e283c001 	add	ip, r3, #1
d0024228:	e7c01003 	strb	r1, [r0, r3]
d002422c:	e28c3001 	add	r3, ip, #1
d0024230:	e1530002 	cmp	r3, r2
d0024234:	e7c0100c 	strb	r1, [r0, ip]
d0024238:	1afffff9 	bne	d0024224 <memset+0x3c>
d002423c:	e12fff1e 	bx	lr

d0024240 <bcopy>:
d0024240:	e3520000 	cmp	r2, #0
d0024244:	e52d4004 	push	{r4}		; (str r4, [sp, #-4]!)
d0024248:	0a000015 	beq	d00242a4 <bcopy+0x64>
d002424c:	e3a03001 	mov	r3, #1
d0024250:	e242c001 	sub	ip, r2, #1
d0024254:	e5d04000 	ldrb	r4, [r0]
d0024258:	e1530002 	cmp	r3, r2
d002425c:	e5c14000 	strb	r4, [r1]
d0024260:	e00cc003 	and	ip, ip, r3
d0024264:	0a00000e 	beq	d00242a4 <bcopy+0x64>
d0024268:	e35c0000 	cmp	ip, #0
d002426c:	0a000004 	beq	d0024284 <bcopy+0x44>
d0024270:	e3a03002 	mov	r3, #2
d0024274:	e5d0c001 	ldrb	ip, [r0, #1]
d0024278:	e1530002 	cmp	r3, r2
d002427c:	e5c1c001 	strb	ip, [r1, #1]
d0024280:	0a000007 	beq	d00242a4 <bcopy+0x64>
d0024284:	e7d04003 	ldrb	r4, [r0, r3]
d0024288:	e283c001 	add	ip, r3, #1
d002428c:	e7c14003 	strb	r4, [r1, r3]
d0024290:	e28c3001 	add	r3, ip, #1
d0024294:	e7d0400c 	ldrb	r4, [r0, ip]
d0024298:	e1530002 	cmp	r3, r2
d002429c:	e7c1400c 	strb	r4, [r1, ip]
d00242a0:	1afffff7 	bne	d0024284 <bcopy+0x44>
d00242a4:	e8bd0010 	pop	{r4}
d00242a8:	e12fff1e 	bx	lr

d00242ac <memcpy>:
d00242ac:	e3520000 	cmp	r2, #0
d00242b0:	e52d4004 	push	{r4}		; (str r4, [sp, #-4]!)
d00242b4:	0a000015 	beq	d0024310 <memcpy+0x64>
d00242b8:	e3a03001 	mov	r3, #1
d00242bc:	e242c001 	sub	ip, r2, #1
d00242c0:	e5d14000 	ldrb	r4, [r1]
d00242c4:	e1530002 	cmp	r3, r2
d00242c8:	e5c04000 	strb	r4, [r0]
d00242cc:	e00cc003 	and	ip, ip, r3
d00242d0:	0a00000e 	beq	d0024310 <memcpy+0x64>
d00242d4:	e35c0000 	cmp	ip, #0
d00242d8:	0a000004 	beq	d00242f0 <memcpy+0x44>
d00242dc:	e3a03002 	mov	r3, #2
d00242e0:	e5d1c001 	ldrb	ip, [r1, #1]
d00242e4:	e1530002 	cmp	r3, r2
d00242e8:	e5c0c001 	strb	ip, [r0, #1]
d00242ec:	0a000007 	beq	d0024310 <memcpy+0x64>
d00242f0:	e7d14003 	ldrb	r4, [r1, r3]
d00242f4:	e283c001 	add	ip, r3, #1
d00242f8:	e7c04003 	strb	r4, [r0, r3]
d00242fc:	e28c3001 	add	r3, ip, #1
d0024300:	e7d1400c 	ldrb	r4, [r1, ip]
d0024304:	e1530002 	cmp	r3, r2
d0024308:	e7c0400c 	strb	r4, [r0, ip]
d002430c:	1afffff7 	bne	d00242f0 <memcpy+0x44>
d0024310:	e8bd0010 	pop	{r4}
d0024314:	e12fff1e 	bx	lr

d0024318 <memmove>:
d0024318:	e1500001 	cmp	r0, r1
d002431c:	e52d4004 	push	{r4}		; (str r4, [sp, #-4]!)
d0024320:	8a000019 	bhi	d002438c <memmove+0x74>
d0024324:	e3520000 	cmp	r2, #0
d0024328:	0a000015 	beq	d0024384 <memmove+0x6c>
d002432c:	e3a03001 	mov	r3, #1
d0024330:	e242c001 	sub	ip, r2, #1
d0024334:	e5d14000 	ldrb	r4, [r1]
d0024338:	e1530002 	cmp	r3, r2
d002433c:	e5c04000 	strb	r4, [r0]
d0024340:	e00cc003 	and	ip, ip, r3
d0024344:	0a00000e 	beq	d0024384 <memmove+0x6c>
d0024348:	e35c0000 	cmp	ip, #0
d002434c:	0a000004 	beq	d0024364 <memmove+0x4c>
d0024350:	e3a03002 	mov	r3, #2
d0024354:	e5d1c001 	ldrb	ip, [r1, #1]
d0024358:	e1530002 	cmp	r3, r2
d002435c:	e5c0c001 	strb	ip, [r0, #1]
d0024360:	0a000007 	beq	d0024384 <memmove+0x6c>
d0024364:	e7d14003 	ldrb	r4, [r1, r3]
d0024368:	e283c001 	add	ip, r3, #1
d002436c:	e7c04003 	strb	r4, [r0, r3]
d0024370:	e28c3001 	add	r3, ip, #1
d0024374:	e7d1400c 	ldrb	r4, [r1, ip]
d0024378:	e1530002 	cmp	r3, r2
d002437c:	e7c0400c 	strb	r4, [r0, ip]
d0024380:	1afffff7 	bne	d0024364 <memmove+0x4c>
d0024384:	e8bd0010 	pop	{r4}
d0024388:	e12fff1e 	bx	lr
d002438c:	e3520000 	cmp	r2, #0
d0024390:	0afffffb 	beq	d0024384 <memmove+0x6c>
d0024394:	e2422001 	sub	r2, r2, #1
d0024398:	e2423001 	sub	r3, r2, #1
d002439c:	e7d14002 	ldrb	r4, [r1, r2]
d00243a0:	e3730001 	cmn	r3, #1
d00243a4:	e7c04002 	strb	r4, [r0, r2]
d00243a8:	e1a0c000 	mov	ip, r0
d00243ac:	e2022001 	and	r2, r2, #1
d00243b0:	0afffff3 	beq	d0024384 <memmove+0x6c>
d00243b4:	e3520000 	cmp	r2, #0
d00243b8:	0a000003 	beq	d00243cc <memmove+0xb4>
d00243bc:	e7d12003 	ldrb	r2, [r1, r3]
d00243c0:	e7c02003 	strb	r2, [r0, r3]
d00243c4:	e2533001 	subs	r3, r3, #1
d00243c8:	3affffed 	bcc	d0024384 <memmove+0x6c>
d00243cc:	e7d14003 	ldrb	r4, [r1, r3]
d00243d0:	e2432001 	sub	r2, r3, #1
d00243d4:	e7cc4003 	strb	r4, [ip, r3]
d00243d8:	e2423001 	sub	r3, r2, #1
d00243dc:	e7d14002 	ldrb	r4, [r1, r2]
d00243e0:	e3730001 	cmn	r3, #1
d00243e4:	e7cc4002 	strb	r4, [ip, r2]
d00243e8:	1afffff7 	bne	d00243cc <memmove+0xb4>
d00243ec:	eaffffe4 	b	d0024384 <memmove+0x6c>

d00243f0 <memcmp>:
d00243f0:	e3520000 	cmp	r2, #0
d00243f4:	e92d0030 	push	{r4, r5}
d00243f8:	01a00002 	moveq	r0, r2
d00243fc:	0a00001a 	beq	d002446c <memcmp+0x7c>
d0024400:	e5d04000 	ldrb	r4, [r0]
d0024404:	e5d13000 	ldrb	r3, [r1]
d0024408:	e0544003 	subs	r4, r4, r3
d002440c:	1a000015 	bne	d0024468 <memcmp+0x78>
d0024410:	e2425001 	sub	r5, r2, #1
d0024414:	e3150001 	tst	r5, #1
d0024418:	e1a03000 	mov	r3, r0
d002441c:	0a00000f 	beq	d0024460 <memcmp+0x70>
d0024420:	e5f3c001 	ldrb	ip, [r3, #1]!
d0024424:	e5f10001 	ldrb	r0, [r1, #1]!
d0024428:	e1a02005 	mov	r2, r5
d002442c:	e05c0000 	subs	r0, ip, r0
d0024430:	1a00000d 	bne	d002446c <memcmp+0x7c>
d0024434:	e2522001 	subs	r2, r2, #1
d0024438:	0a00000a 	beq	d0024468 <memcmp+0x78>
d002443c:	e5f3c001 	ldrb	ip, [r3, #1]!
d0024440:	e5f10001 	ldrb	r0, [r1, #1]!
d0024444:	e05c0000 	subs	r0, ip, r0
d0024448:	1a000007 	bne	d002446c <memcmp+0x7c>
d002444c:	e5f3c001 	ldrb	ip, [r3, #1]!
d0024450:	e5f10001 	ldrb	r0, [r1, #1]!
d0024454:	e2422001 	sub	r2, r2, #1
d0024458:	e05c0000 	subs	r0, ip, r0
d002445c:	1a000002 	bne	d002446c <memcmp+0x7c>
d0024460:	e2522001 	subs	r2, r2, #1
d0024464:	1afffff4 	bne	d002443c <memcmp+0x4c>
d0024468:	e1a00004 	mov	r0, r4
d002446c:	e8bd0030 	pop	{r4, r5}
d0024470:	e12fff1e 	bx	lr

d0024474 <memscan>:
d0024474:	e3520000 	cmp	r2, #0
d0024478:	012fff1e 	bxeq	lr
d002447c:	e5d03000 	ldrb	r3, [r0]
d0024480:	e1530001 	cmp	r3, r1
d0024484:	012fff1e 	bxeq	lr
d0024488:	e2423001 	sub	r3, r2, #1
d002448c:	e3130001 	tst	r3, #1
d0024490:	0a00000d 	beq	d00244cc <memscan+0x58>
d0024494:	e5f0c001 	ldrb	ip, [r0, #1]!
d0024498:	e1a02003 	mov	r2, r3
d002449c:	e15c0001 	cmp	ip, r1
d00244a0:	012fff1e 	bxeq	lr
d00244a4:	e2522001 	subs	r2, r2, #1
d00244a8:	e2800001 	add	r0, r0, #1
d00244ac:	0a000009 	beq	d00244d8 <memscan+0x64>
d00244b0:	e5d0c000 	ldrb	ip, [r0]
d00244b4:	e2422001 	sub	r2, r2, #1
d00244b8:	e15c0001 	cmp	ip, r1
d00244bc:	0a000006 	beq	d00244dc <memscan+0x68>
d00244c0:	e5f03001 	ldrb	r3, [r0, #1]!
d00244c4:	e1530001 	cmp	r3, r1
d00244c8:	0a000004 	beq	d00244e0 <memscan+0x6c>
d00244cc:	e2522001 	subs	r2, r2, #1
d00244d0:	e2800001 	add	r0, r0, #1
d00244d4:	1afffff5 	bne	d00244b0 <memscan+0x3c>
d00244d8:	e12fff1e 	bx	lr
d00244dc:	e12fff1e 	bx	lr
d00244e0:	e12fff1e 	bx	lr

d00244e4 <strstr>:
d00244e4:	e5d13000 	ldrb	r3, [r1]
d00244e8:	e92d05f0 	push	{r4, r5, r6, r7, r8, sl}
d00244ec:	e3530000 	cmp	r3, #0
d00244f0:	0a000005 	beq	d002450c <strstr+0x28>
d00244f4:	e1a02001 	mov	r2, r1
d00244f8:	e5f2c001 	ldrb	ip, [r2, #1]!
d00244fc:	e35c0000 	cmp	ip, #0
d0024500:	1afffffc 	bne	d00244f8 <strstr+0x14>
d0024504:	e0526001 	subs	r6, r2, r1
d0024508:	1a000001 	bne	d0024514 <strstr+0x30>
d002450c:	e8bd05f0 	pop	{r4, r5, r6, r7, r8, sl}
d0024510:	e12fff1e 	bx	lr
d0024514:	e5d02000 	ldrb	r2, [r0]
d0024518:	e3520000 	cmp	r2, #0
d002451c:	01a07002 	moveq	r7, r2
d0024520:	0a000004 	beq	d0024538 <strstr+0x54>
d0024524:	e1a07000 	mov	r7, r0
d0024528:	e5f7c001 	ldrb	ip, [r7, #1]!
d002452c:	e35c0000 	cmp	ip, #0
d0024530:	1afffffc 	bne	d0024528 <strstr+0x44>
d0024534:	e0607007 	rsb	r7, r0, r7
d0024538:	e1560007 	cmp	r6, r7
d002453c:	ca000020 	bgt	d00245c4 <strstr+0xe0>
d0024540:	e3560000 	cmp	r6, #0
d0024544:	0afffff0 	beq	d002450c <strstr+0x28>
d0024548:	e1520003 	cmp	r2, r3
d002454c:	1a000018 	bne	d00245b4 <strstr+0xd0>
d0024550:	e2465001 	sub	r5, r6, #1
d0024554:	e3150001 	tst	r5, #1
d0024558:	e1a0c000 	mov	ip, r0
d002455c:	e1a02001 	mov	r2, r1
d0024560:	e1a04006 	mov	r4, r6
d0024564:	0a00000c 	beq	d002459c <strstr+0xb8>
d0024568:	e1a0c000 	mov	ip, r0
d002456c:	e1a02001 	mov	r2, r1
d0024570:	e5fca001 	ldrb	sl, [ip, #1]!
d0024574:	e5f28001 	ldrb	r8, [r2, #1]!
d0024578:	e1a04005 	mov	r4, r5
d002457c:	e15a0008 	cmp	sl, r8
d0024580:	0a000005 	beq	d002459c <strstr+0xb8>
d0024584:	ea00000a 	b	d00245b4 <strstr+0xd0>
d0024588:	e5fc8001 	ldrb	r8, [ip, #1]!
d002458c:	e5f25001 	ldrb	r5, [r2, #1]!
d0024590:	e2444001 	sub	r4, r4, #1
d0024594:	e1580005 	cmp	r8, r5
d0024598:	1a000005 	bne	d00245b4 <strstr+0xd0>
d002459c:	e2544001 	subs	r4, r4, #1
d00245a0:	0affffd9 	beq	d002450c <strstr+0x28>
d00245a4:	e5fc8001 	ldrb	r8, [ip, #1]!
d00245a8:	e5f25001 	ldrb	r5, [r2, #1]!
d00245ac:	e1580005 	cmp	r8, r5
d00245b0:	0afffff4 	beq	d0024588 <strstr+0xa4>
d00245b4:	e2477001 	sub	r7, r7, #1
d00245b8:	e1570006 	cmp	r7, r6
d00245bc:	a5f02001 	ldrbge	r2, [r0, #1]!
d00245c0:	aaffffe0 	bge	d0024548 <strstr+0x64>
d00245c4:	e3a00000 	mov	r0, #0
d00245c8:	eaffffcf 	b	d002450c <strstr+0x28>

d00245cc <memchr>:
d00245cc:	e3120001 	tst	r2, #1
d00245d0:	e20110ff 	and	r1, r1, #255	; 0xff
d00245d4:	0a000004 	beq	d00245ec <memchr+0x20>
d00245d8:	e5d03000 	ldrb	r3, [r0]
d00245dc:	e2422001 	sub	r2, r2, #1
d00245e0:	e1530001 	cmp	r3, r1
d00245e4:	012fff1e 	bxeq	lr
d00245e8:	e2800001 	add	r0, r0, #1
d00245ec:	e3520000 	cmp	r2, #0
d00245f0:	0a000008 	beq	d0024618 <memchr+0x4c>
d00245f4:	e5d03000 	ldrb	r3, [r0]
d00245f8:	e2422001 	sub	r2, r2, #1
d00245fc:	e1530001 	cmp	r3, r1
d0024600:	012fff1e 	bxeq	lr
d0024604:	e5f0c001 	ldrb	ip, [r0, #1]!
d0024608:	e2422001 	sub	r2, r2, #1
d002460c:	e15c0001 	cmp	ip, r1
d0024610:	1afffff4 	bne	d00245e8 <memchr+0x1c>
d0024614:	e12fff1e 	bx	lr
d0024618:	e1a00002 	mov	r0, r2
d002461c:	e12fff1e 	bx	lr

d0024620 <simple_strtoul>:
d0024620:	e3520000 	cmp	r2, #0
d0024624:	e92d05f0 	push	{r4, r5, r6, r7, r8, sl}
d0024628:	e1a03000 	mov	r3, r0
d002462c:	1a000007 	bne	d0024650 <simple_strtoul+0x30>
d0024630:	e5d00000 	ldrb	r0, [r0]
d0024634:	e3500030 	cmp	r0, #48	; 0x30
d0024638:	0a000030 	beq	d0024700 <simple_strtoul+0xe0>
d002463c:	e59f7140 	ldr	r7, [pc, #320]	; d0024784 <simple_strtoul+0x164>
d0024640:	e1a0a000 	mov	sl, r0
d0024644:	e7d78000 	ldrb	r8, [r7, r0]
d0024648:	e3a0200a 	mov	r2, #10
d002464c:	ea000005 	b	d0024668 <simple_strtoul+0x48>
d0024650:	e3520010 	cmp	r2, #16
d0024654:	0a000022 	beq	d00246e4 <simple_strtoul+0xc4>
d0024658:	e5d00000 	ldrb	r0, [r0]
d002465c:	e59f7120 	ldr	r7, [pc, #288]	; d0024784 <simple_strtoul+0x164>
d0024660:	e1a0a000 	mov	sl, r0
d0024664:	e7d78000 	ldrb	r8, [r7, r0]
d0024668:	e218c044 	ands	ip, r8, #68	; 0x44
d002466c:	01a0000c 	moveq	r0, ip
d0024670:	0a000017 	beq	d00246d4 <simple_strtoul+0xb4>
d0024674:	e1a04008 	mov	r4, r8
d0024678:	e1a0600a 	mov	r6, sl
d002467c:	e1a0c000 	mov	ip, r0
d0024680:	e1a05003 	mov	r5, r3
d0024684:	e3a00000 	mov	r0, #0
d0024688:	ea000007 	b	d00246ac <simple_strtoul+0x8c>
d002468c:	e5d5c001 	ldrb	ip, [r5, #1]
d0024690:	e0203092 	mla	r0, r2, r0, r3
d0024694:	e7d7400c 	ldrb	r4, [r7, ip]
d0024698:	e2853001 	add	r3, r5, #1
d002469c:	e3140044 	tst	r4, #68	; 0x44
d00246a0:	e1a05003 	mov	r5, r3
d00246a4:	e1a0600c 	mov	r6, ip
d00246a8:	0a000009 	beq	d00246d4 <simple_strtoul+0xb4>
d00246ac:	e3140004 	tst	r4, #4
d00246b0:	e2463030 	sub	r3, r6, #48	; 0x30
d00246b4:	1a000003 	bne	d00246c8 <simple_strtoul+0xa8>
d00246b8:	e24c3020 	sub	r3, ip, #32
d00246bc:	e3140002 	tst	r4, #2
d00246c0:	1203c0ff 	andne	ip, r3, #255	; 0xff
d00246c4:	e24c3037 	sub	r3, ip, #55	; 0x37
d00246c8:	e1530002 	cmp	r3, r2
d00246cc:	3affffee 	bcc	d002468c <simple_strtoul+0x6c>
d00246d0:	e1a03005 	mov	r3, r5
d00246d4:	e3510000 	cmp	r1, #0
d00246d8:	15813000 	strne	r3, [r1]
d00246dc:	e8bd05f0 	pop	{r4, r5, r6, r7, r8, sl}
d00246e0:	e12fff1e 	bx	lr
d00246e4:	e5d00000 	ldrb	r0, [r0]
d00246e8:	e3500030 	cmp	r0, #48	; 0x30
d00246ec:	0a000017 	beq	d0024750 <simple_strtoul+0x130>
d00246f0:	e59f708c 	ldr	r7, [pc, #140]	; d0024784 <simple_strtoul+0x164>
d00246f4:	e1a0a000 	mov	sl, r0
d00246f8:	e7d78000 	ldrb	r8, [r7, r0]
d00246fc:	eaffffd9 	b	d0024668 <simple_strtoul+0x48>
d0024700:	e5f30001 	ldrb	r0, [r3, #1]!
d0024704:	e59f7078 	ldr	r7, [pc, #120]	; d0024784 <simple_strtoul+0x164>
d0024708:	e1a0a000 	mov	sl, r0
d002470c:	e7d78000 	ldrb	r8, [r7, r0]
d0024710:	e3180002 	tst	r8, #2
d0024714:	12402020 	subne	r2, r0, #32
d0024718:	01a02000 	moveq	r2, r0
d002471c:	120220ff 	andne	r2, r2, #255	; 0xff
d0024720:	e3520058 	cmp	r2, #88	; 0x58
d0024724:	13a02008 	movne	r2, #8
d0024728:	1affffce 	bne	d0024668 <simple_strtoul+0x48>
d002472c:	e5d3c001 	ldrb	ip, [r3, #1]
d0024730:	e2835001 	add	r5, r3, #1
d0024734:	e7d7400c 	ldrb	r4, [r7, ip]
d0024738:	e1a0600c 	mov	r6, ip
d002473c:	e3140044 	tst	r4, #68	; 0x44
d0024740:	13a02010 	movne	r2, #16
d0024744:	1affffce 	bne	d0024684 <simple_strtoul+0x64>
d0024748:	e3a02008 	mov	r2, #8
d002474c:	eaffffc5 	b	d0024668 <simple_strtoul+0x48>
d0024750:	e5d3c001 	ldrb	ip, [r3, #1]
d0024754:	e59f7028 	ldr	r7, [pc, #40]	; d0024784 <simple_strtoul+0x164>
d0024758:	e7d7400c 	ldrb	r4, [r7, ip]
d002475c:	e3140002 	tst	r4, #2
d0024760:	124cc020 	subne	ip, ip, #32
d0024764:	120cc0ff 	andne	ip, ip, #255	; 0xff
d0024768:	e35c0058 	cmp	ip, #88	; 0x58
d002476c:	05f30002 	ldrbeq	r0, [r3, #2]!
d0024770:	15d78030 	ldrbne	r8, [r7, #48]	; 0x30
d0024774:	13a0a030 	movne	sl, #48	; 0x30
d0024778:	01a0a000 	moveq	sl, r0
d002477c:	07d78000 	ldrbeq	r8, [r7, r0]
d0024780:	eaffffb8 	b	d0024668 <simple_strtoul+0x48>
d0024784:	d0026194 	mulle	r2, r4, r1

d0024788 <simple_strtol>:
d0024788:	e92d4010 	push	{r4, lr}
d002478c:	e5d0c000 	ldrb	ip, [r0]
d0024790:	e35c002d 	cmp	ip, #45	; 0x2d
d0024794:	0a000001 	beq	d00247a0 <simple_strtol+0x18>
d0024798:	e8bd4010 	pop	{r4, lr}
d002479c:	eaffff9f 	b	d0024620 <simple_strtoul>
d00247a0:	e2800001 	add	r0, r0, #1
d00247a4:	ebffff9d 	bl	d0024620 <simple_strtoul>
d00247a8:	e2600000 	rsb	r0, r0, #0
d00247ac:	e8bd8010 	pop	{r4, pc}

d00247b0 <simple_strtoull>:
d00247b0:	e3520000 	cmp	r2, #0
d00247b4:	e92d0ff0 	push	{r4, r5, r6, r7, r8, r9, sl, fp}
d00247b8:	e1a08001 	mov	r8, r1
d00247bc:	1a000007 	bne	d00247e0 <simple_strtoull+0x30>
d00247c0:	e5d03000 	ldrb	r3, [r0]
d00247c4:	e3530030 	cmp	r3, #48	; 0x30
d00247c8:	0a000040 	beq	d00248d0 <simple_strtoull+0x120>
d00247cc:	e59f7184 	ldr	r7, [pc, #388]	; d0024958 <simple_strtoull+0x1a8>
d00247d0:	e1a0b003 	mov	fp, r3
d00247d4:	e7d7a003 	ldrb	sl, [r7, r3]
d00247d8:	e3a0200a 	mov	r2, #10
d00247dc:	ea000005 	b	d00247f8 <simple_strtoull+0x48>
d00247e0:	e3520010 	cmp	r2, #16
d00247e4:	0a000032 	beq	d00248b4 <simple_strtoull+0x104>
d00247e8:	e5d03000 	ldrb	r3, [r0]
d00247ec:	e59f7164 	ldr	r7, [pc, #356]	; d0024958 <simple_strtoull+0x1a8>
d00247f0:	e1a0b003 	mov	fp, r3
d00247f4:	e7d7a003 	ldrb	sl, [r7, r3]
d00247f8:	e31a0044 	tst	sl, #68	; 0x44
d00247fc:	03a02000 	moveq	r2, #0
d0024800:	03a03000 	moveq	r3, #0
d0024804:	0a000018 	beq	d002486c <simple_strtoull+0xbc>
d0024808:	e1a04002 	mov	r4, r2
d002480c:	e3a05000 	mov	r5, #0
d0024810:	e1a0100a 	mov	r1, sl
d0024814:	e1a0900b 	mov	r9, fp
d0024818:	e1a0c003 	mov	ip, r3
d002481c:	e1a06000 	mov	r6, r0
d0024820:	e3a02000 	mov	r2, #0
d0024824:	e3a03000 	mov	r3, #0
d0024828:	e3110004 	tst	r1, #4
d002482c:	e249a030 	sub	sl, r9, #48	; 0x30
d0024830:	1a000004 	bne	d0024848 <simple_strtoull+0x98>
d0024834:	e24ca020 	sub	sl, ip, #32
d0024838:	e20a00ff 	and	r0, sl, #255	; 0xff
d002483c:	e3110002 	tst	r1, #2
d0024840:	e249a037 	sub	sl, r9, #55	; 0x37
d0024844:	1240a037 	subne	sl, r0, #55	; 0x37
d0024848:	e00c0592 	mul	ip, r2, r5
d002484c:	e0810492 	umull	r0, r1, r2, r4
d0024850:	e02cc394 	mla	ip, r4, r3, ip
d0024854:	e1a0bfca 	asr	fp, sl, #31
d0024858:	e155000b 	cmp	r5, fp
d002485c:	e08c1001 	add	r1, ip, r1
d0024860:	8a000009 	bhi	d002488c <simple_strtoull+0xdc>
d0024864:	0a000006 	beq	d0024884 <simple_strtoull+0xd4>
d0024868:	e1a00006 	mov	r0, r6
d002486c:	e3580000 	cmp	r8, #0
d0024870:	15880000 	strne	r0, [r8]
d0024874:	e1a01003 	mov	r1, r3
d0024878:	e1a00002 	mov	r0, r2
d002487c:	e8bd0ff0 	pop	{r4, r5, r6, r7, r8, r9, sl, fp}
d0024880:	e12fff1e 	bx	lr
d0024884:	e154000a 	cmp	r4, sl
d0024888:	9afffff6 	bls	d0024868 <simple_strtoull+0xb8>
d002488c:	e5d6c001 	ldrb	ip, [r6, #1]
d0024890:	e09a2000 	adds	r2, sl, r0
d0024894:	e0ab3001 	adc	r3, fp, r1
d0024898:	e7d7100c 	ldrb	r1, [r7, ip]
d002489c:	e2860001 	add	r0, r6, #1
d00248a0:	e3110044 	tst	r1, #68	; 0x44
d00248a4:	e1a06000 	mov	r6, r0
d00248a8:	e1a0900c 	mov	r9, ip
d00248ac:	1affffdd 	bne	d0024828 <simple_strtoull+0x78>
d00248b0:	eaffffed 	b	d002486c <simple_strtoull+0xbc>
d00248b4:	e5d03000 	ldrb	r3, [r0]
d00248b8:	e3530030 	cmp	r3, #48	; 0x30
d00248bc:	0a000018 	beq	d0024924 <simple_strtoull+0x174>
d00248c0:	e59f7090 	ldr	r7, [pc, #144]	; d0024958 <simple_strtoull+0x1a8>
d00248c4:	e1a0b003 	mov	fp, r3
d00248c8:	e7d7a003 	ldrb	sl, [r7, r3]
d00248cc:	eaffffc9 	b	d00247f8 <simple_strtoull+0x48>
d00248d0:	e5f03001 	ldrb	r3, [r0, #1]!
d00248d4:	e59f707c 	ldr	r7, [pc, #124]	; d0024958 <simple_strtoull+0x1a8>
d00248d8:	e1a0b003 	mov	fp, r3
d00248dc:	e7d7a003 	ldrb	sl, [r7, r3]
d00248e0:	e31a0002 	tst	sl, #2
d00248e4:	12432020 	subne	r2, r3, #32
d00248e8:	01a02003 	moveq	r2, r3
d00248ec:	120220ff 	andne	r2, r2, #255	; 0xff
d00248f0:	e3520058 	cmp	r2, #88	; 0x58
d00248f4:	13a02008 	movne	r2, #8
d00248f8:	1affffbe 	bne	d00247f8 <simple_strtoull+0x48>
d00248fc:	e5d0c001 	ldrb	ip, [r0, #1]
d0024900:	e2806001 	add	r6, r0, #1
d0024904:	e7d7100c 	ldrb	r1, [r7, ip]
d0024908:	e1a0900c 	mov	r9, ip
d002490c:	e3110044 	tst	r1, #68	; 0x44
d0024910:	13a04010 	movne	r4, #16
d0024914:	13a05000 	movne	r5, #0
d0024918:	1affffc0 	bne	d0024820 <simple_strtoull+0x70>
d002491c:	e3a02008 	mov	r2, #8
d0024920:	eaffffb4 	b	d00247f8 <simple_strtoull+0x48>
d0024924:	e5d01001 	ldrb	r1, [r0, #1]
d0024928:	e59f7028 	ldr	r7, [pc, #40]	; d0024958 <simple_strtoull+0x1a8>
d002492c:	e7d7c001 	ldrb	ip, [r7, r1]
d0024930:	e31c0002 	tst	ip, #2
d0024934:	12411020 	subne	r1, r1, #32
d0024938:	120110ff 	andne	r1, r1, #255	; 0xff
d002493c:	e3510058 	cmp	r1, #88	; 0x58
d0024940:	05f03002 	ldrbeq	r3, [r0, #2]!
d0024944:	15d7a030 	ldrbne	sl, [r7, #48]	; 0x30
d0024948:	13a0b030 	movne	fp, #48	; 0x30
d002494c:	01a0b003 	moveq	fp, r3
d0024950:	07d7a003 	ldrbeq	sl, [r7, r3]
d0024954:	eaffffa7 	b	d00247f8 <simple_strtoull+0x48>
d0024958:	d0026194 	mulle	r2, r4, r1

d002495c <simple_strtoll>:
d002495c:	e92d4010 	push	{r4, lr}
d0024960:	e5d0c000 	ldrb	ip, [r0]
d0024964:	e35c002d 	cmp	ip, #45	; 0x2d
d0024968:	0a000001 	beq	d0024974 <simple_strtoll+0x18>
d002496c:	e8bd4010 	pop	{r4, lr}
d0024970:	eaffff8e 	b	d00247b0 <simple_strtoull>
d0024974:	e2800001 	add	r0, r0, #1
d0024978:	ebffff8c 	bl	d00247b0 <simple_strtoull>
d002497c:	e2702000 	rsbs	r2, r0, #0
d0024980:	e2e13000 	rsc	r3, r1, #0
d0024984:	e1a01003 	mov	r1, r3
d0024988:	e1a00002 	mov	r0, r2
d002498c:	e8bd8010 	pop	{r4, pc}

d0024990 <number>:
d0024990:	e92d4ff0 	push	{r4, r5, r6, r7, r8, r9, sl, fp, lr}
d0024994:	e24dd05c 	sub	sp, sp, #92	; 0x5c
d0024998:	e59db08c 	ldr	fp, [sp, #140]	; 0x8c
d002499c:	e59fc45c 	ldr	ip, [pc, #1116]	; d0024e00 <number+0x470>
d00249a0:	e59d8080 	ldr	r8, [sp, #128]	; 0x80
d00249a4:	e31b0040 	tst	fp, #64	; 0x40
d00249a8:	e24ca028 	sub	sl, ip, #40	; 0x28
d00249ac:	11a0a00c 	movne	sl, ip
d00249b0:	e1a06001 	mov	r6, r1
d00249b4:	e31b0010 	tst	fp, #16
d00249b8:	e2481002 	sub	r1, r8, #2
d00249bc:	13cbb001 	bicne	fp, fp, #1
d00249c0:	e3510022 	cmp	r1, #34	; 0x22
d00249c4:	e1a09000 	mov	r9, r0
d00249c8:	83a00000 	movhi	r0, #0
d00249cc:	8a0000ce 	bhi	d0024d0c <number+0x37c>
d00249d0:	e31b0001 	tst	fp, #1
d00249d4:	13a00030 	movne	r0, #48	; 0x30
d00249d8:	03a00020 	moveq	r0, #32
d00249dc:	e31b0002 	tst	fp, #2
d00249e0:	e58d0008 	str	r0, [sp, #8]
d00249e4:	1a0000d4 	bne	d0024d3c <number+0x3ac>
d00249e8:	e3a00000 	mov	r0, #0
d00249ec:	e58d0004 	str	r0, [sp, #4]
d00249f0:	e21b0020 	ands	r0, fp, #32
d00249f4:	e58d000c 	str	r0, [sp, #12]
d00249f8:	0a000005 	beq	d0024a14 <number+0x84>
d00249fc:	e3580010 	cmp	r8, #16
d0024a00:	0a0000f2 	beq	d0024dd0 <number+0x440>
d0024a04:	e3580008 	cmp	r8, #8
d0024a08:	059d0084 	ldreq	r0, [sp, #132]	; 0x84
d0024a0c:	02400001 	subeq	r0, r0, #1
d0024a10:	058d0084 	streq	r0, [sp, #132]	; 0x84
d0024a14:	e1921003 	orrs	r1, r2, r3
d0024a18:	13a05000 	movne	r5, #0
d0024a1c:	128d7014 	addne	r7, sp, #20
d0024a20:	1a0000bb 	bne	d0024d14 <number+0x384>
d0024a24:	e28d7058 	add	r7, sp, #88	; 0x58
d0024a28:	e3a03030 	mov	r3, #48	; 0x30
d0024a2c:	e3a05001 	mov	r5, #1
d0024a30:	e5673044 	strb	r3, [r7, #-68]!	; 0x44
d0024a34:	e59d2088 	ldr	r2, [sp, #136]	; 0x88
d0024a38:	e59d1084 	ldr	r1, [sp, #132]	; 0x84
d0024a3c:	e1550002 	cmp	r5, r2
d0024a40:	a1a03005 	movge	r3, r5
d0024a44:	b1a03002 	movlt	r3, r2
d0024a48:	e0630001 	rsb	r0, r3, r1
d0024a4c:	e31b0011 	tst	fp, #17
d0024a50:	11a01000 	movne	r1, r0
d0024a54:	1a00001f 	bne	d0024ad8 <number+0x148>
d0024a58:	e3500000 	cmp	r0, #0
d0024a5c:	e2401001 	sub	r1, r0, #1
d0024a60:	da00001c 	ble	d0024ad8 <number+0x148>
d0024a64:	e1e0c009 	mvn	ip, r9
d0024a68:	e0802009 	add	r2, r0, r9
d0024a6c:	e08c4002 	add	r4, ip, r2
d0024a70:	e1560009 	cmp	r6, r9
d0024a74:	e204c001 	and	ip, r4, #1
d0024a78:	e3a04020 	mov	r4, #32
d0024a7c:	2a0000bd 	bcs	d0024d78 <number+0x3e8>
d0024a80:	e2899001 	add	r9, r9, #1
d0024a84:	e1590002 	cmp	r9, r2
d0024a88:	0a000010 	beq	d0024ad0 <number+0x140>
d0024a8c:	e35c0000 	cmp	ip, #0
d0024a90:	0a000004 	beq	d0024aa8 <number+0x118>
d0024a94:	e1560009 	cmp	r6, r9
d0024a98:	25c94000 	strbcs	r4, [r9]
d0024a9c:	e2899001 	add	r9, r9, #1
d0024aa0:	e1590002 	cmp	r9, r2
d0024aa4:	0a000009 	beq	d0024ad0 <number+0x140>
d0024aa8:	e1a0c003 	mov	ip, r3
d0024aac:	e1560009 	cmp	r6, r9
d0024ab0:	e2893001 	add	r3, r9, #1
d0024ab4:	25c94000 	strbcs	r4, [r9]
d0024ab8:	e1560003 	cmp	r6, r3
d0024abc:	25c94001 	strbcs	r4, [r9, #1]
d0024ac0:	e2839001 	add	r9, r3, #1
d0024ac4:	e1590002 	cmp	r9, r2
d0024ac8:	1afffff7 	bne	d0024aac <number+0x11c>
d0024acc:	e1a0300c 	mov	r3, ip
d0024ad0:	e0601001 	rsb	r1, r0, r1
d0024ad4:	e1a09002 	mov	r9, r2
d0024ad8:	e59d2004 	ldr	r2, [sp, #4]
d0024adc:	e3520000 	cmp	r2, #0
d0024ae0:	0a000002 	beq	d0024af0 <number+0x160>
d0024ae4:	e1590006 	cmp	r9, r6
d0024ae8:	95c92000 	strbls	r2, [r9]
d0024aec:	e2899001 	add	r9, r9, #1
d0024af0:	e59d000c 	ldr	r0, [sp, #12]
d0024af4:	e3500000 	cmp	r0, #0
d0024af8:	0a000003 	beq	d0024b0c <number+0x17c>
d0024afc:	e3580008 	cmp	r8, #8
d0024b00:	0a0000ad 	beq	d0024dbc <number+0x42c>
d0024b04:	e3580010 	cmp	r8, #16
d0024b08:	0a0000a2 	beq	d0024d98 <number+0x408>
d0024b0c:	e31b0010 	tst	fp, #16
d0024b10:	11a0c001 	movne	ip, r1
d0024b14:	1a00001e 	bne	d0024b94 <number+0x204>
d0024b18:	e3510000 	cmp	r1, #0
d0024b1c:	e241c001 	sub	ip, r1, #1
d0024b20:	da00001b 	ble	d0024b94 <number+0x204>
d0024b24:	e1e02009 	mvn	r2, r9
d0024b28:	e0891001 	add	r1, r9, r1
d0024b2c:	e082c001 	add	ip, r2, r1
d0024b30:	e1560009 	cmp	r6, r9
d0024b34:	e20c2001 	and	r2, ip, #1
d0024b38:	2a00008b 	bcs	d0024d6c <number+0x3dc>
d0024b3c:	e2899001 	add	r9, r9, #1
d0024b40:	e1590001 	cmp	r9, r1
d0024b44:	0a000010 	beq	d0024b8c <number+0x1fc>
d0024b48:	e3520000 	cmp	r2, #0
d0024b4c:	0a000005 	beq	d0024b68 <number+0x1d8>
d0024b50:	e1560009 	cmp	r6, r9
d0024b54:	259d2008 	ldrcs	r2, [sp, #8]
d0024b58:	25c92000 	strbcs	r2, [r9]
d0024b5c:	e2899001 	add	r9, r9, #1
d0024b60:	e1590001 	cmp	r9, r1
d0024b64:	0a000008 	beq	d0024b8c <number+0x1fc>
d0024b68:	e59d0008 	ldr	r0, [sp, #8]
d0024b6c:	e1560009 	cmp	r6, r9
d0024b70:	e2892001 	add	r2, r9, #1
d0024b74:	25c90000 	strbcs	r0, [r9]
d0024b78:	e1560002 	cmp	r6, r2
d0024b7c:	25c90001 	strbcs	r0, [r9, #1]
d0024b80:	e2829001 	add	r9, r2, #1
d0024b84:	e1590001 	cmp	r9, r1
d0024b88:	1afffff7 	bne	d0024b6c <number+0x1dc>
d0024b8c:	e1a09001 	mov	r9, r1
d0024b90:	e3e0c000 	mvn	ip, #0
d0024b94:	e1550003 	cmp	r5, r3
d0024b98:	aa00001f 	bge	d0024c1c <number+0x28c>
d0024b9c:	e1e01005 	mvn	r1, r5
d0024ba0:	e0818003 	add	r8, r1, r3
d0024ba4:	e1590006 	cmp	r9, r6
d0024ba8:	e2081001 	and	r1, r8, #1
d0024bac:	e3a08030 	mov	r8, #48	; 0x30
d0024bb0:	95c98000 	strbls	r8, [r9]
d0024bb4:	e2432001 	sub	r2, r3, #1
d0024bb8:	e1550002 	cmp	r5, r2
d0024bbc:	e3a02001 	mov	r2, #1
d0024bc0:	aa000013 	bge	d0024c14 <number+0x284>
d0024bc4:	e3510000 	cmp	r1, #0
d0024bc8:	0a000006 	beq	d0024be8 <number+0x258>
d0024bcc:	e0821009 	add	r1, r2, r9
d0024bd0:	e1510006 	cmp	r1, r6
d0024bd4:	97c98002 	strbls	r8, [r9, r2]
d0024bd8:	e2822001 	add	r2, r2, #1
d0024bdc:	e0621003 	rsb	r1, r2, r3
d0024be0:	e1550001 	cmp	r5, r1
d0024be4:	aa00000a 	bge	d0024c14 <number+0x284>
d0024be8:	e2821001 	add	r1, r2, #1
d0024bec:	e0824009 	add	r4, r2, r9
d0024bf0:	e1540006 	cmp	r4, r6
d0024bf4:	e0810009 	add	r0, r1, r9
d0024bf8:	97c98002 	strbls	r8, [r9, r2]
d0024bfc:	e1500006 	cmp	r0, r6
d0024c00:	97c98001 	strbls	r8, [r9, r1]
d0024c04:	e2812001 	add	r2, r1, #1
d0024c08:	e0621003 	rsb	r1, r2, r3
d0024c0c:	e1550001 	cmp	r5, r1
d0024c10:	bafffff4 	blt	d0024be8 <number+0x258>
d0024c14:	e0653003 	rsb	r3, r5, r3
d0024c18:	e0899003 	add	r9, r9, r3
d0024c1c:	e2452001 	sub	r2, r5, #1
d0024c20:	e1560009 	cmp	r6, r9
d0024c24:	e2021001 	and	r1, r2, #1
d0024c28:	e0872005 	add	r2, r7, r5
d0024c2c:	25523001 	ldrbcs	r3, [r2, #-1]
d0024c30:	25c93000 	strbcs	r3, [r9]
d0024c34:	e2422001 	sub	r2, r2, #1
d0024c38:	e1520007 	cmp	r2, r7
d0024c3c:	e2893001 	add	r3, r9, #1
d0024c40:	0a000014 	beq	d0024c98 <number+0x308>
d0024c44:	e3510000 	cmp	r1, #0
d0024c48:	0a000006 	beq	d0024c68 <number+0x2d8>
d0024c4c:	e1560003 	cmp	r6, r3
d0024c50:	25521001 	ldrbcs	r1, [r2, #-1]
d0024c54:	e2422001 	sub	r2, r2, #1
d0024c58:	25c31000 	strbcs	r1, [r3]
d0024c5c:	e1520007 	cmp	r2, r7
d0024c60:	e2833001 	add	r3, r3, #1
d0024c64:	0a00000b 	beq	d0024c98 <number+0x308>
d0024c68:	e1560003 	cmp	r6, r3
d0024c6c:	25520001 	ldrbcs	r0, [r2, #-1]
d0024c70:	e2831001 	add	r1, r3, #1
d0024c74:	25c30000 	strbcs	r0, [r3]
d0024c78:	e1560001 	cmp	r6, r1
d0024c7c:	e2422001 	sub	r2, r2, #1
d0024c80:	25520001 	ldrbcs	r0, [r2, #-1]
d0024c84:	25c30001 	strbcs	r0, [r3, #1]
d0024c88:	e2422001 	sub	r2, r2, #1
d0024c8c:	e1520007 	cmp	r2, r7
d0024c90:	e2813001 	add	r3, r1, #1
d0024c94:	1afffff3 	bne	d0024c68 <number+0x2d8>
d0024c98:	e35c0000 	cmp	ip, #0
d0024c9c:	e0890005 	add	r0, r9, r5
d0024ca0:	da000019 	ble	d0024d0c <number+0x37c>
d0024ca4:	e080c00c 	add	ip, r0, ip
d0024ca8:	e1e03000 	mvn	r3, r0
d0024cac:	e083100c 	add	r1, r3, ip
d0024cb0:	e1500006 	cmp	r0, r6
d0024cb4:	e2012001 	and	r2, r1, #1
d0024cb8:	e3a01020 	mov	r1, #32
d0024cbc:	95c01000 	strbls	r1, [r0]
d0024cc0:	e2803001 	add	r3, r0, #1
d0024cc4:	e153000c 	cmp	r3, ip
d0024cc8:	0a00000e 	beq	d0024d08 <number+0x378>
d0024ccc:	e3520000 	cmp	r2, #0
d0024cd0:	0a000004 	beq	d0024ce8 <number+0x358>
d0024cd4:	e1530006 	cmp	r3, r6
d0024cd8:	95c31000 	strbls	r1, [r3]
d0024cdc:	e2833001 	add	r3, r3, #1
d0024ce0:	e153000c 	cmp	r3, ip
d0024ce4:	0a000007 	beq	d0024d08 <number+0x378>
d0024ce8:	e1530006 	cmp	r3, r6
d0024cec:	e2832001 	add	r2, r3, #1
d0024cf0:	95c31000 	strbls	r1, [r3]
d0024cf4:	e1520006 	cmp	r2, r6
d0024cf8:	95c31001 	strbls	r1, [r3, #1]
d0024cfc:	e2823001 	add	r3, r2, #1
d0024d00:	e153000c 	cmp	r3, ip
d0024d04:	1afffff7 	bne	d0024ce8 <number+0x358>
d0024d08:	e1a0000c 	mov	r0, ip
d0024d0c:	e28dd05c 	add	sp, sp, #92	; 0x5c
d0024d10:	e8bd8ff0 	pop	{r4, r5, r6, r7, r8, r9, sl, fp, pc}
d0024d14:	e1a00002 	mov	r0, r2
d0024d18:	e1a01003 	mov	r1, r3
d0024d1c:	e1a04008 	mov	r4, r8
d0024d20:	eb000456 	bl	d0025e80 <__do_div64>
d0024d24:	e7dac001 	ldrb	ip, [sl, r1]
d0024d28:	e1920003 	orrs	r0, r2, r3
d0024d2c:	e7c7c005 	strb	ip, [r7, r5]
d0024d30:	e2855001 	add	r5, r5, #1
d0024d34:	1afffff6 	bne	d0024d14 <number+0x384>
d0024d38:	eaffff3d 	b	d0024a34 <number+0xa4>
d0024d3c:	e3530000 	cmp	r3, #0
d0024d40:	ba000026 	blt	d0024de0 <number+0x450>
d0024d44:	e31b0004 	tst	fp, #4
d0024d48:	1a00000c 	bne	d0024d80 <number+0x3f0>
d0024d4c:	e31b0008 	tst	fp, #8
d0024d50:	0affff24 	beq	d00249e8 <number+0x58>
d0024d54:	e59d1084 	ldr	r1, [sp, #132]	; 0x84
d0024d58:	e2410001 	sub	r0, r1, #1
d0024d5c:	e3a01020 	mov	r1, #32
d0024d60:	e58d0084 	str	r0, [sp, #132]	; 0x84
d0024d64:	e58d1004 	str	r1, [sp, #4]
d0024d68:	eaffff20 	b	d00249f0 <number+0x60>
d0024d6c:	e59d0008 	ldr	r0, [sp, #8]
d0024d70:	e5c90000 	strb	r0, [r9]
d0024d74:	eaffff70 	b	d0024b3c <number+0x1ac>
d0024d78:	e5c94000 	strb	r4, [r9]
d0024d7c:	eaffff3f 	b	d0024a80 <number+0xf0>
d0024d80:	e59d0084 	ldr	r0, [sp, #132]	; 0x84
d0024d84:	e2401001 	sub	r1, r0, #1
d0024d88:	e3a0002b 	mov	r0, #43	; 0x2b
d0024d8c:	e58d1084 	str	r1, [sp, #132]	; 0x84
d0024d90:	e58d0004 	str	r0, [sp, #4]
d0024d94:	eaffff15 	b	d00249f0 <number+0x60>
d0024d98:	e1590006 	cmp	r9, r6
d0024d9c:	93a02030 	movls	r2, #48	; 0x30
d0024da0:	95c92000 	strbls	r2, [r9]
d0024da4:	e2892001 	add	r2, r9, #1
d0024da8:	e1560002 	cmp	r6, r2
d0024dac:	25da0021 	ldrbcs	r0, [sl, #33]	; 0x21
d0024db0:	25c90001 	strbcs	r0, [r9, #1]
d0024db4:	e2829001 	add	r9, r2, #1
d0024db8:	eaffff53 	b	d0024b0c <number+0x17c>
d0024dbc:	e1590006 	cmp	r9, r6
d0024dc0:	93a02030 	movls	r2, #48	; 0x30
d0024dc4:	95c92000 	strbls	r2, [r9]
d0024dc8:	e2899001 	add	r9, r9, #1
d0024dcc:	eaffff4e 	b	d0024b0c <number+0x17c>
d0024dd0:	e59d0084 	ldr	r0, [sp, #132]	; 0x84
d0024dd4:	e2401002 	sub	r1, r0, #2
d0024dd8:	e58d1084 	str	r1, [sp, #132]	; 0x84
d0024ddc:	eaffff0c 	b	d0024a14 <number+0x84>
d0024de0:	e59d1084 	ldr	r1, [sp, #132]	; 0x84
d0024de4:	e2722000 	rsbs	r2, r2, #0
d0024de8:	e2e33000 	rsc	r3, r3, #0
d0024dec:	e2410001 	sub	r0, r1, #1
d0024df0:	e3a0102d 	mov	r1, #45	; 0x2d
d0024df4:	e58d0084 	str	r0, [sp, #132]	; 0x84
d0024df8:	e58d1004 	str	r1, [sp, #4]
d0024dfc:	eafffefb 	b	d00249f0 <number+0x60>
d0024e00:	d0026168 	andle	r6, r2, r8, ror #2

d0024e04 <vsscanf>:
d0024e04:	e92d4ff0 	push	{r4, r5, r6, r7, r8, r9, sl, fp, lr}
d0024e08:	e59f5744 	ldr	r5, [pc, #1860]	; d0025554 <vsscanf+0x750>
d0024e0c:	e24dd014 	sub	sp, sp, #20
d0024e10:	e1a07000 	mov	r7, r0
d0024e14:	e1a04001 	mov	r4, r1
d0024e18:	e5d11000 	ldrb	r1, [r1]
d0024e1c:	e3a06000 	mov	r6, #0
d0024e20:	e1a09002 	mov	r9, r2
d0024e24:	e1a08005 	mov	r8, r5
d0024e28:	e28db00c 	add	fp, sp, #12
d0024e2c:	e1a0a007 	mov	sl, r7
d0024e30:	e3510000 	cmp	r1, #0
d0024e34:	0a00000c 	beq	d0024e6c <vsscanf+0x68>
d0024e38:	e5d03000 	ldrb	r3, [r0]
d0024e3c:	e3530000 	cmp	r3, #0
d0024e40:	0a000009 	beq	d0024e6c <vsscanf+0x68>
d0024e44:	e7d52001 	ldrb	r2, [r5, r1]
d0024e48:	e3120020 	tst	r2, #32
d0024e4c:	1a000009 	bne	d0024e78 <vsscanf+0x74>
d0024e50:	e3510000 	cmp	r1, #0
d0024e54:	13510025 	cmpne	r1, #37	; 0x25
d0024e58:	03a07000 	moveq	r7, #0
d0024e5c:	13a07001 	movne	r7, #1
d0024e60:	0a000014 	beq	d0024eb8 <vsscanf+0xb4>
d0024e64:	e1530001 	cmp	r3, r1
d0024e68:	0a000095 	beq	d00250c4 <vsscanf+0x2c0>
d0024e6c:	e1a00006 	mov	r0, r6
d0024e70:	e28dd014 	add	sp, sp, #20
d0024e74:	e8bd8ff0 	pop	{r4, r5, r6, r7, r8, r9, sl, fp, pc}
d0024e78:	e5f41001 	ldrb	r1, [r4, #1]!
d0024e7c:	e7d57001 	ldrb	r7, [r5, r1]
d0024e80:	e3170020 	tst	r7, #32
d0024e84:	1afffffb 	bne	d0024e78 <vsscanf+0x74>
d0024e88:	e7d8c003 	ldrb	ip, [r8, r3]
d0024e8c:	e31c0020 	tst	ip, #32
d0024e90:	0affffee 	beq	d0024e50 <vsscanf+0x4c>
d0024e94:	e5f03001 	ldrb	r3, [r0, #1]!
d0024e98:	e7d52003 	ldrb	r2, [r5, r3]
d0024e9c:	e3120020 	tst	r2, #32
d0024ea0:	1afffffb 	bne	d0024e94 <vsscanf+0x90>
d0024ea4:	e3510000 	cmp	r1, #0
d0024ea8:	13510025 	cmpne	r1, #37	; 0x25
d0024eac:	03a07000 	moveq	r7, #0
d0024eb0:	13a07001 	movne	r7, #1
d0024eb4:	1affffea 	bne	d0024e64 <vsscanf+0x60>
d0024eb8:	e3510000 	cmp	r1, #0
d0024ebc:	0affffea 	beq	d0024e6c <vsscanf+0x68>
d0024ec0:	e5f41001 	ldrb	r1, [r4, #1]!
d0024ec4:	e351002a 	cmp	r1, #42	; 0x2a
d0024ec8:	e1a0c001 	mov	ip, r1
d0024ecc:	0a00007f 	beq	d00250d0 <vsscanf+0x2cc>
d0024ed0:	e7d51001 	ldrb	r1, [r5, r1]
d0024ed4:	e1a0200c 	mov	r2, ip
d0024ed8:	e3110004 	tst	r1, #4
d0024edc:	03e01000 	mvneq	r1, #0
d0024ee0:	0a00000a 	beq	d0024f10 <vsscanf+0x10c>
d0024ee4:	e1a01007 	mov	r1, r7
d0024ee8:	e1a07006 	mov	r7, r6
d0024eec:	e2426030 	sub	r6, r2, #48	; 0x30
d0024ef0:	e5f42001 	ldrb	r2, [r4, #1]!
d0024ef4:	e0811101 	add	r1, r1, r1, lsl #2
d0024ef8:	e7d5c002 	ldrb	ip, [r5, r2]
d0024efc:	e0861081 	add	r1, r6, r1, lsl #1
d0024f00:	e31c0004 	tst	ip, #4
d0024f04:	e1a0c002 	mov	ip, r2
d0024f08:	1afffff7 	bne	d0024eec <vsscanf+0xe8>
d0024f0c:	e1a06007 	mov	r6, r7
d0024f10:	e35c0068 	cmp	ip, #104	; 0x68
d0024f14:	135c006c 	cmpne	ip, #108	; 0x6c
d0024f18:	1a000061 	bne	d00250a4 <vsscanf+0x2a0>
d0024f1c:	e1a0700c 	mov	r7, ip
d0024f20:	e5f4c001 	ldrb	ip, [r4, #1]!
d0024f24:	e157000c 	cmp	r7, ip
d0024f28:	0a000181 	beq	d0025534 <vsscanf+0x730>
d0024f2c:	e35c0000 	cmp	ip, #0
d0024f30:	0affffcd 	beq	d0024e6c <vsscanf+0x68>
d0024f34:	e3530000 	cmp	r3, #0
d0024f38:	e1a02003 	mov	r2, r3
d0024f3c:	0affffca 	beq	d0024e6c <vsscanf+0x68>
d0024f40:	e24cc025 	sub	ip, ip, #37	; 0x25
d0024f44:	e2844001 	add	r4, r4, #1
d0024f48:	e35c0053 	cmp	ip, #83	; 0x53
d0024f4c:	979ff10c 	ldrls	pc, [pc, ip, lsl #2]
d0024f50:	eaffffc5 	b	d0024e6c <vsscanf+0x68>
d0024f54:	d0025120 	andle	r5, r2, r0, lsr #2
d0024f58:	d0024e6c 	andle	r4, r2, ip, ror #28
d0024f5c:	d0024e6c 	andle	r4, r2, ip, ror #28
d0024f60:	d0024e6c 	andle	r4, r2, ip, ror #28
d0024f64:	d0024e6c 	andle	r4, r2, ip, ror #28
d0024f68:	d0024e6c 	andle	r4, r2, ip, ror #28
d0024f6c:	d0024e6c 	andle	r4, r2, ip, ror #28
d0024f70:	d0024e6c 	andle	r4, r2, ip, ror #28
d0024f74:	d0024e6c 	andle	r4, r2, ip, ror #28
d0024f78:	d0024e6c 	andle	r4, r2, ip, ror #28
d0024f7c:	d0024e6c 	andle	r4, r2, ip, ror #28
d0024f80:	d0024e6c 	andle	r4, r2, ip, ror #28
d0024f84:	d0024e6c 	andle	r4, r2, ip, ror #28
d0024f88:	d0024e6c 	andle	r4, r2, ip, ror #28
d0024f8c:	d0024e6c 	andle	r4, r2, ip, ror #28
d0024f90:	d0024e6c 	andle	r4, r2, ip, ror #28
d0024f94:	d0024e6c 	andle	r4, r2, ip, ror #28
d0024f98:	d0024e6c 	andle	r4, r2, ip, ror #28
d0024f9c:	d0024e6c 	andle	r4, r2, ip, ror #28
d0024fa0:	d0024e6c 	andle	r4, r2, ip, ror #28
d0024fa4:	d0024e6c 	andle	r4, r2, ip, ror #28
d0024fa8:	d0024e6c 	andle	r4, r2, ip, ror #28
d0024fac:	d0024e6c 	andle	r4, r2, ip, ror #28
d0024fb0:	d0024e6c 	andle	r4, r2, ip, ror #28
d0024fb4:	d0024e6c 	andle	r4, r2, ip, ror #28
d0024fb8:	d0024e6c 	andle	r4, r2, ip, ror #28
d0024fbc:	d0024e6c 	andle	r4, r2, ip, ror #28
d0024fc0:	d0024e6c 	andle	r4, r2, ip, ror #28
d0024fc4:	d0024e6c 	andle	r4, r2, ip, ror #28
d0024fc8:	d0024e6c 	andle	r4, r2, ip, ror #28
d0024fcc:	d0024e6c 	andle	r4, r2, ip, ror #28
d0024fd0:	d0024e6c 	andle	r4, r2, ip, ror #28
d0024fd4:	d0024e6c 	andle	r4, r2, ip, ror #28
d0024fd8:	d0024e6c 	andle	r4, r2, ip, ror #28
d0024fdc:	d0024e6c 	andle	r4, r2, ip, ror #28
d0024fe0:	d0024e6c 	andle	r4, r2, ip, ror #28
d0024fe4:	d0024e6c 	andle	r4, r2, ip, ror #28
d0024fe8:	d0024e6c 	andle	r4, r2, ip, ror #28
d0024fec:	d0024e6c 	andle	r4, r2, ip, ror #28
d0024ff0:	d0024e6c 	andle	r4, r2, ip, ror #28
d0024ff4:	d0024e6c 	andle	r4, r2, ip, ror #28
d0024ff8:	d0024e6c 	andle	r4, r2, ip, ror #28
d0024ffc:	d0024e6c 	andle	r4, r2, ip, ror #28
d0025000:	d0024e6c 	andle	r4, r2, ip, ror #28
d0025004:	d0024e6c 	andle	r4, r2, ip, ror #28
d0025008:	d0024e6c 	andle	r4, r2, ip, ror #28
d002500c:	d0024e6c 	andle	r4, r2, ip, ror #28
d0025010:	d0024e6c 	andle	r4, r2, ip, ror #28
d0025014:	d0024e6c 	andle	r4, r2, ip, ror #28
d0025018:	d0024e6c 	andle	r4, r2, ip, ror #28
d002501c:	d0024e6c 	andle	r4, r2, ip, ror #28
d0025020:	d0025134 	andle	r5, r2, r4, lsr r1
d0025024:	d0024e6c 	andle	r4, r2, ip, ror #28
d0025028:	d0024e6c 	andle	r4, r2, ip, ror #28
d002502c:	d0024e6c 	andle	r4, r2, ip, ror #28
d0025030:	d0024e6c 	andle	r4, r2, ip, ror #28
d0025034:	d0024e6c 	andle	r4, r2, ip, ror #28
d0025038:	d0024e6c 	andle	r4, r2, ip, ror #28
d002503c:	d0024e6c 	andle	r4, r2, ip, ror #28
d0025040:	d0024e6c 	andle	r4, r2, ip, ror #28
d0025044:	d0024e6c 	andle	r4, r2, ip, ror #28
d0025048:	d0024e6c 	andle	r4, r2, ip, ror #28
d002504c:	d00252b8 	strhle	r5, [r2], -r8
d0025050:	d0025320 	andle	r5, r2, r0, lsr #6
d0025054:	d0024e6c 	andle	r4, r2, ip, ror #28
d0025058:	d0024e6c 	andle	r4, r2, ip, ror #28
d002505c:	d0024e6c 	andle	r4, r2, ip, ror #28
d0025060:	d0024e6c 	andle	r4, r2, ip, ror #28
d0025064:	d0025418 	andle	r5, r2, r8, lsl r4
d0025068:	d0024e6c 	andle	r4, r2, ip, ror #28
d002506c:	d0024e6c 	andle	r4, r2, ip, ror #28
d0025070:	d0024e6c 	andle	r4, r2, ip, ror #28
d0025074:	d0024e6c 	andle	r4, r2, ip, ror #28
d0025078:	d002532c 	andle	r5, r2, ip, lsr #6
d002507c:	d0025340 	andle	r5, r2, r0, asr #6
d0025080:	d0024e6c 	andle	r4, r2, ip, ror #28
d0025084:	d0024e6c 	andle	r4, r2, ip, ror #28
d0025088:	d0024e6c 	andle	r4, r2, ip, ror #28
d002508c:	d002534c 	andle	r5, r2, ip, asr #6
d0025090:	d0024e6c 	andle	r4, r2, ip, ror #28
d0025094:	d002540c 	andle	r5, r2, ip, lsl #8
d0025098:	d0024e6c 	andle	r4, r2, ip, ror #28
d002509c:	d0024e6c 	andle	r4, r2, ip, ror #28
d00250a0:	d0025134 	andle	r5, r2, r4, lsr r1
d00250a4:	e35c004c 	cmp	ip, #76	; 0x4c
d00250a8:	0affff9b 	beq	d0024f1c <vsscanf+0x118>
d00250ac:	e35c005a 	cmp	ip, #90	; 0x5a
d00250b0:	0affff99 	beq	d0024f1c <vsscanf+0x118>
d00250b4:	e35c007a 	cmp	ip, #122	; 0x7a
d00250b8:	13e07000 	mvnne	r7, #0
d00250bc:	1affff9a 	bne	d0024f2c <vsscanf+0x128>
d00250c0:	eaffff95 	b	d0024f1c <vsscanf+0x118>
d00250c4:	e2800001 	add	r0, r0, #1
d00250c8:	e5f41001 	ldrb	r1, [r4, #1]!
d00250cc:	eaffff57 	b	d0024e30 <vsscanf+0x2c>
d00250d0:	e5d5c02a 	ldrb	ip, [r5, #42]	; 0x2a
d00250d4:	e31c0020 	tst	ip, #32
d00250d8:	0a000002 	beq	d00250e8 <vsscanf+0x2e4>
d00250dc:	ea00000b 	b	d0025110 <vsscanf+0x30c>
d00250e0:	e3510000 	cmp	r1, #0
d00250e4:	0a000009 	beq	d0025110 <vsscanf+0x30c>
d00250e8:	e5f41001 	ldrb	r1, [r4, #1]!
d00250ec:	e7d52001 	ldrb	r2, [r5, r1]
d00250f0:	e3120020 	tst	r2, #32
d00250f4:	0afffff9 	beq	d00250e0 <vsscanf+0x2dc>
d00250f8:	e7d5c003 	ldrb	ip, [r5, r3]
d00250fc:	e31c0020 	tst	ip, #32
d0025100:	1affff4a 	bne	d0024e30 <vsscanf+0x2c>
d0025104:	e3530000 	cmp	r3, #0
d0025108:	0affff48 	beq	d0024e30 <vsscanf+0x2c>
d002510c:	e5f03001 	ldrb	r3, [r0, #1]!
d0025110:	e7d5c003 	ldrb	ip, [r5, r3]
d0025114:	e31c0020 	tst	ip, #32
d0025118:	0afffff9 	beq	d0025104 <vsscanf+0x300>
d002511c:	eaffff43 	b	d0024e30 <vsscanf+0x2c>
d0025120:	e3530025 	cmp	r3, #37	; 0x25
d0025124:	1affff50 	bne	d0024e6c <vsscanf+0x68>
d0025128:	e2800001 	add	r0, r0, #1
d002512c:	e5d41000 	ldrb	r1, [r4]
d0025130:	eaffff3e 	b	d0024e30 <vsscanf+0x2c>
d0025134:	e3a0c000 	mov	ip, #0
d0025138:	e3a01010 	mov	r1, #16
d002513c:	e7d53003 	ldrb	r3, [r5, r3]
d0025140:	e3130020 	tst	r3, #32
d0025144:	0a000003 	beq	d0025158 <vsscanf+0x354>
d0025148:	e5f02001 	ldrb	r2, [r0, #1]!
d002514c:	e7d53002 	ldrb	r3, [r5, r2]
d0025150:	e3130020 	tst	r3, #32
d0025154:	1afffffb 	bne	d0025148 <vsscanf+0x344>
d0025158:	e352002d 	cmp	r2, #45	; 0x2d
d002515c:	13a03000 	movne	r3, #0
d0025160:	020c3001 	andeq	r3, ip, #1
d0025164:	e3530000 	cmp	r3, #0
d0025168:	15d02001 	ldrbne	r2, [r0, #1]
d002516c:	e3520000 	cmp	r2, #0
d0025170:	0affff3d 	beq	d0024e6c <vsscanf+0x68>
d0025174:	e3510010 	cmp	r1, #16
d0025178:	0a0000d7 	beq	d00254dc <vsscanf+0x6d8>
d002517c:	e351000a 	cmp	r1, #10
d0025180:	0a0000d1 	beq	d00254cc <vsscanf+0x6c8>
d0025184:	e3510008 	cmp	r1, #8
d0025188:	1a0000cd 	bne	d00254c4 <vsscanf+0x6c0>
d002518c:	e7d53002 	ldrb	r3, [r5, r2]
d0025190:	e1a03123 	lsr	r3, r3, #2
d0025194:	e2233001 	eor	r3, r3, #1
d0025198:	e3520037 	cmp	r2, #55	; 0x37
d002519c:	83833001 	orrhi	r3, r3, #1
d00251a0:	e3130001 	tst	r3, #1
d00251a4:	1affff30 	bne	d0024e6c <vsscanf+0x68>
d00251a8:	e247e048 	sub	lr, r7, #72	; 0x48
d00251ac:	e35e0032 	cmp	lr, #50	; 0x32
d00251b0:	979ff10e 	ldrls	pc, [pc, lr, lsl #2]
d00251b4:	ea000032 	b	d0025284 <vsscanf+0x480>
d00251b8:	d002547c 	andle	r5, r2, ip, ror r4
d00251bc:	d0025284 	andle	r5, r2, r4, lsl #5
d00251c0:	d0025284 	andle	r5, r2, r4, lsl #5
d00251c4:	d0025284 	andle	r5, r2, r4, lsl #5
d00251c8:	d002545c 	andle	r5, r2, ip, asr r4
d00251cc:	d0025284 	andle	r5, r2, r4, lsl #5
d00251d0:	d0025284 	andle	r5, r2, r4, lsl #5
d00251d4:	d0025284 	andle	r5, r2, r4, lsl #5
d00251d8:	d0025284 	andle	r5, r2, r4, lsl #5
d00251dc:	d0025284 	andle	r5, r2, r4, lsl #5
d00251e0:	d0025284 	andle	r5, r2, r4, lsl #5
d00251e4:	d0025284 	andle	r5, r2, r4, lsl #5
d00251e8:	d0025284 	andle	r5, r2, r4, lsl #5
d00251ec:	d0025284 	andle	r5, r2, r4, lsl #5
d00251f0:	d0025284 	andle	r5, r2, r4, lsl #5
d00251f4:	d0025284 	andle	r5, r2, r4, lsl #5
d00251f8:	d0025284 	andle	r5, r2, r4, lsl #5
d00251fc:	d0025284 	andle	r5, r2, r4, lsl #5
d0025200:	d0025424 	andle	r5, r2, r4, lsr #8
d0025204:	d0025284 	andle	r5, r2, r4, lsl #5
d0025208:	d0025284 	andle	r5, r2, r4, lsl #5
d002520c:	d0025284 	andle	r5, r2, r4, lsl #5
d0025210:	d0025284 	andle	r5, r2, r4, lsl #5
d0025214:	d0025284 	andle	r5, r2, r4, lsl #5
d0025218:	d0025284 	andle	r5, r2, r4, lsl #5
d002521c:	d0025284 	andle	r5, r2, r4, lsl #5
d0025220:	d0025284 	andle	r5, r2, r4, lsl #5
d0025224:	d0025284 	andle	r5, r2, r4, lsl #5
d0025228:	d0025284 	andle	r5, r2, r4, lsl #5
d002522c:	d0025284 	andle	r5, r2, r4, lsl #5
d0025230:	d0025284 	andle	r5, r2, r4, lsl #5
d0025234:	d0025284 	andle	r5, r2, r4, lsl #5
d0025238:	d002543c 	andle	r5, r2, ip, lsr r4
d002523c:	d0025284 	andle	r5, r2, r4, lsl #5
d0025240:	d0025284 	andle	r5, r2, r4, lsl #5
d0025244:	d0025284 	andle	r5, r2, r4, lsl #5
d0025248:	d0025284 	andle	r5, r2, r4, lsl #5
d002524c:	d0025284 	andle	r5, r2, r4, lsl #5
d0025250:	d0025284 	andle	r5, r2, r4, lsl #5
d0025254:	d0025284 	andle	r5, r2, r4, lsl #5
d0025258:	d0025284 	andle	r5, r2, r4, lsl #5
d002525c:	d0025284 	andle	r5, r2, r4, lsl #5
d0025260:	d0025284 	andle	r5, r2, r4, lsl #5
d0025264:	d0025284 	andle	r5, r2, r4, lsl #5
d0025268:	d0025284 	andle	r5, r2, r4, lsl #5
d002526c:	d0025284 	andle	r5, r2, r4, lsl #5
d0025270:	d0025284 	andle	r5, r2, r4, lsl #5
d0025274:	d0025284 	andle	r5, r2, r4, lsl #5
d0025278:	d0025284 	andle	r5, r2, r4, lsl #5
d002527c:	d0025284 	andle	r5, r2, r4, lsl #5
d0025280:	d0025424 	andle	r5, r2, r4, lsr #8
d0025284:	e35c0000 	cmp	ip, #0
d0025288:	0a000065 	beq	d0025424 <vsscanf+0x620>
d002528c:	e1a02001 	mov	r2, r1
d0025290:	e1a0100b 	mov	r1, fp
d0025294:	e4997004 	ldr	r7, [r9], #4
d0025298:	ebfffd3a 	bl	d0024788 <simple_strtol>
d002529c:	e5870000 	str	r0, [r7]
d00252a0:	e59d000c 	ldr	r0, [sp, #12]
d00252a4:	e2866001 	add	r6, r6, #1
d00252a8:	e3500000 	cmp	r0, #0
d00252ac:	0afffeee 	beq	d0024e6c <vsscanf+0x68>
d00252b0:	e5d41000 	ldrb	r1, [r4]
d00252b4:	eafffedd 	b	d0024e30 <vsscanf+0x2c>
d00252b8:	e3710001 	cmn	r1, #1
d00252bc:	03a01001 	moveq	r1, #1
d00252c0:	e2417001 	sub	r7, r1, #1
d00252c4:	e3170001 	tst	r7, #1
d00252c8:	e58d7004 	str	r7, [sp, #4]
d00252cc:	e3a0c000 	mov	ip, #0
d00252d0:	e4997004 	ldr	r7, [r9], #4
d00252d4:	1a000070 	bne	d002549c <vsscanf+0x698>
d00252d8:	e2413001 	sub	r3, r1, #1
d00252dc:	e3530000 	cmp	r3, #0
d00252e0:	e7c7200c 	strb	r2, [r7, ip]
d00252e4:	e2800001 	add	r0, r0, #1
d00252e8:	da000009 	ble	d0025314 <vsscanf+0x510>
d00252ec:	e5d02000 	ldrb	r2, [r0]
d00252f0:	e28cc001 	add	ip, ip, #1
d00252f4:	e3520000 	cmp	r2, #0
d00252f8:	0a000005 	beq	d0025314 <vsscanf+0x510>
d00252fc:	e7c7200c 	strb	r2, [r7, ip]
d0025300:	e5f02001 	ldrb	r2, [r0, #1]!
d0025304:	e2431001 	sub	r1, r3, #1
d0025308:	e3520000 	cmp	r2, #0
d002530c:	e28cc001 	add	ip, ip, #1
d0025310:	1afffff0 	bne	d00252d8 <vsscanf+0x4d4>
d0025314:	e2866001 	add	r6, r6, #1
d0025318:	e5d41000 	ldrb	r1, [r4]
d002531c:	eafffec3 	b	d0024e30 <vsscanf+0x2c>
d0025320:	e3a0c001 	mov	ip, #1
d0025324:	e3a0100a 	mov	r1, #10
d0025328:	eaffff83 	b	d002513c <vsscanf+0x338>
d002532c:	e4993004 	ldr	r3, [r9], #4
d0025330:	e06a1000 	rsb	r1, sl, r0
d0025334:	e5831000 	str	r1, [r3]
d0025338:	e5d41000 	ldrb	r1, [r4]
d002533c:	eafffebb 	b	d0024e30 <vsscanf+0x2c>
d0025340:	e3a0c000 	mov	ip, #0
d0025344:	e3a01008 	mov	r1, #8
d0025348:	eaffff7b 	b	d002513c <vsscanf+0x338>
d002534c:	e7d5c003 	ldrb	ip, [r5, r3]
d0025350:	e3710001 	cmn	r1, #1
d0025354:	03e01102 	mvneq	r1, #-2147483648	; 0x80000000
d0025358:	e31c0020 	tst	ip, #32
d002535c:	e4993004 	ldr	r3, [r9], #4
d0025360:	0a000005 	beq	d002537c <vsscanf+0x578>
d0025364:	e5f02001 	ldrb	r2, [r0, #1]!
d0025368:	e7d5c002 	ldrb	ip, [r5, r2]
d002536c:	e31c0020 	tst	ip, #32
d0025370:	1afffffb 	bne	d0025364 <vsscanf+0x560>
d0025374:	e3520000 	cmp	r2, #0
d0025378:	0a000020 	beq	d0025400 <vsscanf+0x5fc>
d002537c:	e3510000 	cmp	r1, #0
d0025380:	0a00001e 	beq	d0025400 <vsscanf+0x5fc>
d0025384:	e4c32001 	strb	r2, [r3], #1
d0025388:	e5f02001 	ldrb	r2, [r0, #1]!
d002538c:	e2411001 	sub	r1, r1, #1
d0025390:	e3520000 	cmp	r2, #0
d0025394:	e2017001 	and	r7, r1, #1
d0025398:	0a000018 	beq	d0025400 <vsscanf+0x5fc>
d002539c:	e7d5c002 	ldrb	ip, [r5, r2]
d00253a0:	e31c0020 	tst	ip, #32
d00253a4:	1a000015 	bne	d0025400 <vsscanf+0x5fc>
d00253a8:	e3510000 	cmp	r1, #0
d00253ac:	0a000013 	beq	d0025400 <vsscanf+0x5fc>
d00253b0:	e3570000 	cmp	r7, #0
d00253b4:	0a000005 	beq	d00253d0 <vsscanf+0x5cc>
d00253b8:	ea00000c 	b	d00253f0 <vsscanf+0x5ec>
d00253bc:	e7d5c002 	ldrb	ip, [r5, r2]
d00253c0:	e31c0020 	tst	ip, #32
d00253c4:	1a00000d 	bne	d0025400 <vsscanf+0x5fc>
d00253c8:	e2511001 	subs	r1, r1, #1
d00253cc:	0a00000b 	beq	d0025400 <vsscanf+0x5fc>
d00253d0:	e4c32001 	strb	r2, [r3], #1
d00253d4:	e5f02001 	ldrb	r2, [r0, #1]!
d00253d8:	e2411001 	sub	r1, r1, #1
d00253dc:	e3520000 	cmp	r2, #0
d00253e0:	0a000006 	beq	d0025400 <vsscanf+0x5fc>
d00253e4:	e7d5c002 	ldrb	ip, [r5, r2]
d00253e8:	e31c0020 	tst	ip, #32
d00253ec:	1a000003 	bne	d0025400 <vsscanf+0x5fc>
d00253f0:	e4c32001 	strb	r2, [r3], #1
d00253f4:	e5f02001 	ldrb	r2, [r0, #1]!
d00253f8:	e3520000 	cmp	r2, #0
d00253fc:	1affffee 	bne	d00253bc <vsscanf+0x5b8>
d0025400:	e3a02000 	mov	r2, #0
d0025404:	e5c32000 	strb	r2, [r3]
d0025408:	eaffffc1 	b	d0025314 <vsscanf+0x510>
d002540c:	e3a0c000 	mov	ip, #0
d0025410:	e3a0100a 	mov	r1, #10
d0025414:	eaffff48 	b	d002513c <vsscanf+0x338>
d0025418:	e3a0c001 	mov	ip, #1
d002541c:	e3a01000 	mov	r1, #0
d0025420:	eaffff45 	b	d002513c <vsscanf+0x338>
d0025424:	e1a02001 	mov	r2, r1
d0025428:	e1a0100b 	mov	r1, fp
d002542c:	e4997004 	ldr	r7, [r9], #4
d0025430:	ebfffc7a 	bl	d0024620 <simple_strtoul>
d0025434:	e5870000 	str	r0, [r7]
d0025438:	eaffff98 	b	d00252a0 <vsscanf+0x49c>
d002543c:	e35c0000 	cmp	ip, #0
d0025440:	0a000035 	beq	d002551c <vsscanf+0x718>
d0025444:	e1a02001 	mov	r2, r1
d0025448:	e1a0100b 	mov	r1, fp
d002544c:	e4997004 	ldr	r7, [r9], #4
d0025450:	ebfffccc 	bl	d0024788 <simple_strtol>
d0025454:	e1c700b0 	strh	r0, [r7]
d0025458:	eaffff90 	b	d00252a0 <vsscanf+0x49c>
d002545c:	e35c0000 	cmp	ip, #0
d0025460:	0a000027 	beq	d0025504 <vsscanf+0x700>
d0025464:	e1a02001 	mov	r2, r1
d0025468:	e1a0100b 	mov	r1, fp
d002546c:	e4997004 	ldr	r7, [r9], #4
d0025470:	ebfffd39 	bl	d002495c <simple_strtoll>
d0025474:	e1c700f0 	strd	r0, [r7]
d0025478:	eaffff88 	b	d00252a0 <vsscanf+0x49c>
d002547c:	e35c0000 	cmp	ip, #0
d0025480:	0a000019 	beq	d00254ec <vsscanf+0x6e8>
d0025484:	e1a02001 	mov	r2, r1
d0025488:	e1a0100b 	mov	r1, fp
d002548c:	e4997004 	ldr	r7, [r9], #4
d0025490:	ebfffcbc 	bl	d0024788 <simple_strtol>
d0025494:	e5c70000 	strb	r0, [r7]
d0025498:	eaffff80 	b	d00252a0 <vsscanf+0x49c>
d002549c:	e59d1004 	ldr	r1, [sp, #4]
d00254a0:	e2800001 	add	r0, r0, #1
d00254a4:	e3510000 	cmp	r1, #0
d00254a8:	e5c73000 	strb	r3, [r7]
d00254ac:	daffff98 	ble	d0025314 <vsscanf+0x510>
d00254b0:	e5d02000 	ldrb	r2, [r0]
d00254b4:	e3a0c001 	mov	ip, #1
d00254b8:	e3520000 	cmp	r2, #0
d00254bc:	1affff85 	bne	d00252d8 <vsscanf+0x4d4>
d00254c0:	eaffff93 	b	d0025314 <vsscanf+0x510>
d00254c4:	e3510000 	cmp	r1, #0
d00254c8:	1affff36 	bne	d00251a8 <vsscanf+0x3a4>
d00254cc:	e7d53002 	ldrb	r3, [r5, r2]
d00254d0:	e3130004 	tst	r3, #4
d00254d4:	1affff33 	bne	d00251a8 <vsscanf+0x3a4>
d00254d8:	eafffe63 	b	d0024e6c <vsscanf+0x68>
d00254dc:	e7d53002 	ldrb	r3, [r5, r2]
d00254e0:	e3130044 	tst	r3, #68	; 0x44
d00254e4:	1affff2f 	bne	d00251a8 <vsscanf+0x3a4>
d00254e8:	eafffe5f 	b	d0024e6c <vsscanf+0x68>
d00254ec:	e1a02001 	mov	r2, r1
d00254f0:	e1a0100b 	mov	r1, fp
d00254f4:	e4997004 	ldr	r7, [r9], #4
d00254f8:	ebfffc48 	bl	d0024620 <simple_strtoul>
d00254fc:	e5c70000 	strb	r0, [r7]
d0025500:	eaffff66 	b	d00252a0 <vsscanf+0x49c>
d0025504:	e1a02001 	mov	r2, r1
d0025508:	e1a0100b 	mov	r1, fp
d002550c:	e4997004 	ldr	r7, [r9], #4
d0025510:	ebfffca6 	bl	d00247b0 <simple_strtoull>
d0025514:	e1c700f0 	strd	r0, [r7]
d0025518:	eaffff60 	b	d00252a0 <vsscanf+0x49c>
d002551c:	e1a02001 	mov	r2, r1
d0025520:	e1a0100b 	mov	r1, fp
d0025524:	e4997004 	ldr	r7, [r9], #4
d0025528:	ebfffc3c 	bl	d0024620 <simple_strtoul>
d002552c:	e1c700b0 	strh	r0, [r7]
d0025530:	eaffff5a 	b	d00252a0 <vsscanf+0x49c>
d0025534:	e35c0068 	cmp	ip, #104	; 0x68
d0025538:	05f4c001 	ldrbeq	ip, [r4, #1]!
d002553c:	03a07048 	moveq	r7, #72	; 0x48
d0025540:	0afffe79 	beq	d0024f2c <vsscanf+0x128>
d0025544:	e35c006c 	cmp	ip, #108	; 0x6c
d0025548:	05f4c001 	ldrbeq	ip, [r4, #1]!
d002554c:	03a0704c 	moveq	r7, #76	; 0x4c
d0025550:	eafffe75 	b	d0024f2c <vsscanf+0x128>
d0025554:	d0026194 	mulle	r2, r4, r1

d0025558 <sscanf>:
d0025558:	e92d000e 	push	{r1, r2, r3}
d002555c:	e52de004 	push	{lr}		; (str lr, [sp, #-4]!)
d0025560:	e59d1004 	ldr	r1, [sp, #4]
d0025564:	e28d2008 	add	r2, sp, #8
d0025568:	ebfffe25 	bl	d0024e04 <vsscanf>
d002556c:	e49de004 	pop	{lr}		; (ldr lr, [sp], #4)
d0025570:	e28dd00c 	add	sp, sp, #12
d0025574:	e12fff1e 	bx	lr

d0025578 <vsnprintf>:
d0025578:	e92d4ff0 	push	{r4, r5, r6, r7, r8, r9, sl, fp, lr}
d002557c:	e3510000 	cmp	r1, #0
d0025580:	e24dd01c 	sub	sp, sp, #28
d0025584:	e1a0b000 	mov	fp, r0
d0025588:	e58d1010 	str	r1, [sp, #16]
d002558c:	e1a04002 	mov	r4, r2
d0025590:	e1a0a003 	mov	sl, r3
d0025594:	b3a0b000 	movlt	fp, #0
d0025598:	ba0000ea 	blt	d0025948 <vsnprintf+0x3d0>
d002559c:	e59d0010 	ldr	r0, [sp, #16]
d00255a0:	e24b3001 	sub	r3, fp, #1
d00255a4:	e2407001 	sub	r7, r0, #1
d00255a8:	e08b7007 	add	r7, fp, r7
d00255ac:	e1570003 	cmp	r7, r3
d00255b0:	326b1000 	rsbcc	r1, fp, #0
d00255b4:	358d1010 	strcc	r1, [sp, #16]
d00255b8:	e5d23000 	ldrb	r3, [r2]
d00255bc:	33e07000 	mvncc	r7, #0
d00255c0:	e3530000 	cmp	r3, #0
d00255c4:	01a0000b 	moveq	r0, fp
d00255c8:	01a0b003 	moveq	fp, r3
d00255cc:	0a0000d5 	beq	d0025928 <vsnprintf+0x3b0>
d00255d0:	e3530025 	cmp	r3, #37	; 0x25
d00255d4:	e59f87fc 	ldr	r8, [pc, #2044]	; d0025dd8 <vsnprintf+0x860>
d00255d8:	e1a0900b 	mov	r9, fp
d00255dc:	03a06000 	moveq	r6, #0
d00255e0:	0a000009 	beq	d002560c <vsnprintf+0x94>
d00255e4:	e1570009 	cmp	r7, r9
d00255e8:	25c93000 	strbcs	r3, [r9]
d00255ec:	e2890001 	add	r0, r9, #1
d00255f0:	e5f43001 	ldrb	r3, [r4, #1]!
d00255f4:	e3530000 	cmp	r3, #0
d00255f8:	0a0000c9 	beq	d0025924 <vsnprintf+0x3ac>
d00255fc:	e3530025 	cmp	r3, #37	; 0x25
d0025600:	e1a09000 	mov	r9, r0
d0025604:	03a06000 	moveq	r6, #0
d0025608:	1afffff5 	bne	d00255e4 <vsnprintf+0x6c>
d002560c:	e5f43001 	ldrb	r3, [r4, #1]!
d0025610:	e2432020 	sub	r2, r3, #32
d0025614:	e3520010 	cmp	r2, #16
d0025618:	979ff102 	ldrls	pc, [pc, r2, lsl #2]
d002561c:	ea00001a 	b	d002568c <vsnprintf+0x114>
d0025620:	d0025684 	andle	r5, r2, r4, lsl #13
d0025624:	d002568c 	andle	r5, r2, ip, lsl #13
d0025628:	d002568c 	andle	r5, r2, ip, lsl #13
d002562c:	d002567c 	andle	r5, r2, ip, ror r6
d0025630:	d002568c 	andle	r5, r2, ip, lsl #13
d0025634:	d002568c 	andle	r5, r2, ip, lsl #13
d0025638:	d002568c 	andle	r5, r2, ip, lsl #13
d002563c:	d002568c 	andle	r5, r2, ip, lsl #13
d0025640:	d002568c 	andle	r5, r2, ip, lsl #13
d0025644:	d002568c 	andle	r5, r2, ip, lsl #13
d0025648:	d002568c 	andle	r5, r2, ip, lsl #13
d002564c:	d0025674 	andle	r5, r2, r4, ror r6
d0025650:	d002568c 	andle	r5, r2, ip, lsl #13
d0025654:	d002566c 	andle	r5, r2, ip, ror #12
d0025658:	d002568c 	andle	r5, r2, ip, lsl #13
d002565c:	d002568c 	andle	r5, r2, ip, lsl #13
d0025660:	d0025664 	andle	r5, r2, r4, ror #12
d0025664:	e3866001 	orr	r6, r6, #1
d0025668:	eaffffe7 	b	d002560c <vsnprintf+0x94>
d002566c:	e3866010 	orr	r6, r6, #16
d0025670:	eaffffe5 	b	d002560c <vsnprintf+0x94>
d0025674:	e3866004 	orr	r6, r6, #4
d0025678:	eaffffe3 	b	d002560c <vsnprintf+0x94>
d002567c:	e3866020 	orr	r6, r6, #32
d0025680:	eaffffe1 	b	d002560c <vsnprintf+0x94>
d0025684:	e3866008 	orr	r6, r6, #8
d0025688:	eaffffdf 	b	d002560c <vsnprintf+0x94>
d002568c:	e7d81003 	ldrb	r1, [r8, r3]
d0025690:	e1a02003 	mov	r2, r3
d0025694:	e3110004 	tst	r1, #4
d0025698:	0a000083 	beq	d00258ac <vsnprintf+0x334>
d002569c:	e3a05000 	mov	r5, #0
d00256a0:	e2421030 	sub	r1, r2, #48	; 0x30
d00256a4:	e5f42001 	ldrb	r2, [r4, #1]!
d00256a8:	e0855105 	add	r5, r5, r5, lsl #2
d00256ac:	e7d83002 	ldrb	r3, [r8, r2]
d00256b0:	e0815085 	add	r5, r1, r5, lsl #1
d00256b4:	e3130004 	tst	r3, #4
d00256b8:	e1a03002 	mov	r3, r2
d00256bc:	1afffff7 	bne	d00256a0 <vsnprintf+0x128>
d00256c0:	e353002e 	cmp	r3, #46	; 0x2e
d00256c4:	13e0c000 	mvnne	ip, #0
d00256c8:	0a000084 	beq	d00258e0 <vsnprintf+0x368>
d00256cc:	e3530068 	cmp	r3, #104	; 0x68
d00256d0:	1353006c 	cmpne	r3, #108	; 0x6c
d00256d4:	0a00006a 	beq	d0025884 <vsnprintf+0x30c>
d00256d8:	e353004c 	cmp	r3, #76	; 0x4c
d00256dc:	0a00009c 	beq	d0025954 <vsnprintf+0x3dc>
d00256e0:	e353005a 	cmp	r3, #90	; 0x5a
d00256e4:	0a00009a 	beq	d0025954 <vsnprintf+0x3dc>
d00256e8:	e353007a 	cmp	r3, #122	; 0x7a
d00256ec:	13e02000 	mvnne	r2, #0
d00256f0:	0a000097 	beq	d0025954 <vsnprintf+0x3dc>
d00256f4:	e2431025 	sub	r1, r3, #37	; 0x25
d00256f8:	e3510053 	cmp	r1, #83	; 0x53
d00256fc:	979ff101 	ldrls	pc, [pc, r1, lsl #2]
d0025700:	ea0000aa 	b	d00259b0 <vsnprintf+0x438>
d0025704:	d00259e0 	andle	r5, r2, r0, ror #19
d0025708:	d00259b0 	strhle	r5, [r2], -r0
d002570c:	d00259b0 	strhle	r5, [r2], -r0
d0025710:	d00259b0 	strhle	r5, [r2], -r0
d0025714:	d00259b0 	strhle	r5, [r2], -r0
d0025718:	d00259b0 	strhle	r5, [r2], -r0
d002571c:	d00259b0 	strhle	r5, [r2], -r0
d0025720:	d00259b0 	strhle	r5, [r2], -r0
d0025724:	d00259b0 	strhle	r5, [r2], -r0
d0025728:	d00259b0 	strhle	r5, [r2], -r0
d002572c:	d00259b0 	strhle	r5, [r2], -r0
d0025730:	d00259b0 	strhle	r5, [r2], -r0
d0025734:	d00259b0 	strhle	r5, [r2], -r0
d0025738:	d00259b0 	strhle	r5, [r2], -r0
d002573c:	d00259b0 	strhle	r5, [r2], -r0
d0025740:	d00259b0 	strhle	r5, [r2], -r0
d0025744:	d00259b0 	strhle	r5, [r2], -r0
d0025748:	d00259b0 	strhle	r5, [r2], -r0
d002574c:	d00259b0 	strhle	r5, [r2], -r0
d0025750:	d00259b0 	strhle	r5, [r2], -r0
d0025754:	d00259b0 	strhle	r5, [r2], -r0
d0025758:	d00259b0 	strhle	r5, [r2], -r0
d002575c:	d00259b0 	strhle	r5, [r2], -r0
d0025760:	d00259b0 	strhle	r5, [r2], -r0
d0025764:	d00259b0 	strhle	r5, [r2], -r0
d0025768:	d00259b0 	strhle	r5, [r2], -r0
d002576c:	d00259b0 	strhle	r5, [r2], -r0
d0025770:	d00259b0 	strhle	r5, [r2], -r0
d0025774:	d00259b0 	strhle	r5, [r2], -r0
d0025778:	d00259b0 	strhle	r5, [r2], -r0
d002577c:	d00259b0 	strhle	r5, [r2], -r0
d0025780:	d00259b0 	strhle	r5, [r2], -r0
d0025784:	d00259b0 	strhle	r5, [r2], -r0
d0025788:	d00259b0 	strhle	r5, [r2], -r0
d002578c:	d00259b0 	strhle	r5, [r2], -r0
d0025790:	d00259b0 	strhle	r5, [r2], -r0
d0025794:	d00259b0 	strhle	r5, [r2], -r0
d0025798:	d00259b0 	strhle	r5, [r2], -r0
d002579c:	d00259b0 	strhle	r5, [r2], -r0
d00257a0:	d00259b0 	strhle	r5, [r2], -r0
d00257a4:	d00259b0 	strhle	r5, [r2], -r0
d00257a8:	d00259b0 	strhle	r5, [r2], -r0
d00257ac:	d00259b0 	strhle	r5, [r2], -r0
d00257b0:	d00259b0 	strhle	r5, [r2], -r0
d00257b4:	d00259b0 	strhle	r5, [r2], -r0
d00257b8:	d00259b0 	strhle	r5, [r2], -r0
d00257bc:	d00259b0 	strhle	r5, [r2], -r0
d00257c0:	d00259b0 	strhle	r5, [r2], -r0
d00257c4:	d00259b0 	strhle	r5, [r2], -r0
d00257c8:	d00259b0 	strhle	r5, [r2], -r0
d00257cc:	d00259b0 	strhle	r5, [r2], -r0
d00257d0:	d0025854 	andle	r5, r2, r4, asr r8
d00257d4:	d00259b0 	strhle	r5, [r2], -r0
d00257d8:	d00259b0 	strhle	r5, [r2], -r0
d00257dc:	d00259b0 	strhle	r5, [r2], -r0
d00257e0:	d00259b0 	strhle	r5, [r2], -r0
d00257e4:	d00259b0 	strhle	r5, [r2], -r0
d00257e8:	d00259b0 	strhle	r5, [r2], -r0
d00257ec:	d00259b0 	strhle	r5, [r2], -r0
d00257f0:	d00259b0 	strhle	r5, [r2], -r0
d00257f4:	d00259b0 	strhle	r5, [r2], -r0
d00257f8:	d00259b0 	strhle	r5, [r2], -r0
d00257fc:	d0025c64 	andle	r5, r2, r4, ror #24
d0025800:	d0025c58 	andle	r5, r2, r8, asr ip
d0025804:	d00259b0 	strhle	r5, [r2], -r0
d0025808:	d00259b0 	strhle	r5, [r2], -r0
d002580c:	d00259b0 	strhle	r5, [r2], -r0
d0025810:	d00259b0 	strhle	r5, [r2], -r0
d0025814:	d0025c58 	andle	r5, r2, r8, asr ip
d0025818:	d00259b0 	strhle	r5, [r2], -r0
d002581c:	d00259b0 	strhle	r5, [r2], -r0
d0025820:	d00259b0 	strhle	r5, [r2], -r0
d0025824:	d00259b0 	strhle	r5, [r2], -r0
d0025828:	d0025c44 	andle	r5, r2, r4, asr #24
d002582c:	d0025c3c 	andle	r5, r2, ip, lsr ip
d0025830:	d0025c04 	andle	r5, r2, r4, lsl #24
d0025834:	d00259b0 	strhle	r5, [r2], -r0
d0025838:	d00259b0 	strhle	r5, [r2], -r0
d002583c:	d0025a04 	andle	r5, r2, r4, lsl #20
d0025840:	d00259b0 	strhle	r5, [r2], -r0
d0025844:	d00259f0 	strdle	r5, [r2], -r0
d0025848:	d00259b0 	strhle	r5, [r2], -r0
d002584c:	d00259b0 	strhle	r5, [r2], -r0
d0025850:	d0025858 	andle	r5, r2, r8, asr r8
d0025854:	e3866040 	orr	r6, r6, #64	; 0x40
d0025858:	e3a0e010 	mov	lr, #16
d002585c:	e352004c 	cmp	r2, #76	; 0x4c
d0025860:	0a000065 	beq	d00259fc <vsnprintf+0x484>
d0025864:	e352006c 	cmp	r2, #108	; 0x6c
d0025868:	0a00003e 	beq	d0025968 <vsnprintf+0x3f0>
d002586c:	e352005a 	cmp	r2, #90	; 0x5a
d0025870:	1352007a 	cmpne	r2, #122	; 0x7a
d0025874:	1a000039 	bne	d0025960 <vsnprintf+0x3e8>
d0025878:	e49a2004 	ldr	r2, [sl], #4
d002587c:	e3a03000 	mov	r3, #0
d0025880:	ea00003c 	b	d0025978 <vsnprintf+0x400>
d0025884:	e353006c 	cmp	r3, #108	; 0x6c
d0025888:	e2844001 	add	r4, r4, #1
d002588c:	e1a02003 	mov	r2, r3
d0025890:	15d43000 	ldrbne	r3, [r4]
d0025894:	1affff96 	bne	d00256f4 <vsnprintf+0x17c>
d0025898:	e5d43000 	ldrb	r3, [r4]
d002589c:	e353006c 	cmp	r3, #108	; 0x6c
d00258a0:	05f43001 	ldrbeq	r3, [r4, #1]!
d00258a4:	03a0204c 	moveq	r2, #76	; 0x4c
d00258a8:	eaffff91 	b	d00256f4 <vsnprintf+0x17c>
d00258ac:	e353002a 	cmp	r3, #42	; 0x2a
d00258b0:	13e05000 	mvnne	r5, #0
d00258b4:	1affff81 	bne	d00256c0 <vsnprintf+0x148>
d00258b8:	e49a5004 	ldr	r5, [sl], #4
d00258bc:	e2844001 	add	r4, r4, #1
d00258c0:	e3550000 	cmp	r5, #0
d00258c4:	a5d43000 	ldrbge	r3, [r4]
d00258c8:	b5d43000 	ldrblt	r3, [r4]
d00258cc:	b2655000 	rsblt	r5, r5, #0
d00258d0:	b3866010 	orrlt	r6, r6, #16
d00258d4:	e353002e 	cmp	r3, #46	; 0x2e
d00258d8:	13e0c000 	mvnne	ip, #0
d00258dc:	1affff7a 	bne	d00256cc <vsnprintf+0x154>
d00258e0:	e5f42001 	ldrb	r2, [r4, #1]!
d00258e4:	e7d8c002 	ldrb	ip, [r8, r2]
d00258e8:	e1a03002 	mov	r3, r2
d00258ec:	e21cc004 	ands	ip, ip, #4
d00258f0:	0a000027 	beq	d0025994 <vsnprintf+0x41c>
d00258f4:	e3a0c000 	mov	ip, #0
d00258f8:	e2421030 	sub	r1, r2, #48	; 0x30
d00258fc:	e5f42001 	ldrb	r2, [r4, #1]!
d0025900:	e08cc10c 	add	ip, ip, ip, lsl #2
d0025904:	e7d83002 	ldrb	r3, [r8, r2]
d0025908:	e081c08c 	add	ip, r1, ip, lsl #1
d002590c:	e3130004 	tst	r3, #4
d0025910:	e1a03002 	mov	r3, r2
d0025914:	1afffff7 	bne	d00258f8 <vsnprintf+0x380>
d0025918:	e35c0000 	cmp	ip, #0
d002591c:	b3a0c000 	movlt	ip, #0
d0025920:	eaffff69 	b	d00256cc <vsnprintf+0x154>
d0025924:	e06bb000 	rsb	fp, fp, r0
d0025928:	e1500007 	cmp	r0, r7
d002592c:	93a03000 	movls	r3, #0
d0025930:	95c03000 	strbls	r3, [r0]
d0025934:	9a000003 	bls	d0025948 <vsnprintf+0x3d0>
d0025938:	e59dc010 	ldr	ip, [sp, #16]
d002593c:	e35c0000 	cmp	ip, #0
d0025940:	13a03000 	movne	r3, #0
d0025944:	15c73000 	strbne	r3, [r7]
d0025948:	e1a0000b 	mov	r0, fp
d002594c:	e28dd01c 	add	sp, sp, #28
d0025950:	e8bd8ff0 	pop	{r4, r5, r6, r7, r8, r9, sl, fp, pc}
d0025954:	e1a02003 	mov	r2, r3
d0025958:	e5f43001 	ldrb	r3, [r4, #1]!
d002595c:	eaffff64 	b	d00256f4 <vsnprintf+0x17c>
d0025960:	e3520068 	cmp	r2, #104	; 0x68
d0025964:	0a000112 	beq	d0025db4 <vsnprintf+0x83c>
d0025968:	e49a2004 	ldr	r2, [sl], #4
d002596c:	e3160002 	tst	r6, #2
d0025970:	e3a03000 	mov	r3, #0
d0025974:	11a03fc2 	asrne	r3, r2, #31
d0025978:	e1a00009 	mov	r0, r9
d002597c:	e1a01007 	mov	r1, r7
d0025980:	e58de000 	str	lr, [sp]
d0025984:	e98d1020 	stmib	sp, {r5, ip}
d0025988:	e58d600c 	str	r6, [sp, #12]
d002598c:	ebfffbff 	bl	d0024990 <number>
d0025990:	eaffff16 	b	d00255f0 <vsnprintf+0x78>
d0025994:	e352002a 	cmp	r2, #42	; 0x2a
d0025998:	1affff4b 	bne	d00256cc <vsnprintf+0x154>
d002599c:	e49ac004 	ldr	ip, [sl], #4
d00259a0:	e5f43001 	ldrb	r3, [r4, #1]!
d00259a4:	e35c0000 	cmp	ip, #0
d00259a8:	b3a0c000 	movlt	ip, #0
d00259ac:	eaffff46 	b	d00256cc <vsnprintf+0x154>
d00259b0:	e1570009 	cmp	r7, r9
d00259b4:	23a01025 	movcs	r1, #37	; 0x25
d00259b8:	25c91000 	strbcs	r1, [r9]
d00259bc:	25d43000 	ldrbcs	r3, [r4]
d00259c0:	e2890001 	add	r0, r9, #1
d00259c4:	e3530000 	cmp	r3, #0
d00259c8:	02444001 	subeq	r4, r4, #1
d00259cc:	0affff07 	beq	d00255f0 <vsnprintf+0x78>
d00259d0:	e1500007 	cmp	r0, r7
d00259d4:	95c03000 	strbls	r3, [r0]
d00259d8:	e2800001 	add	r0, r0, #1
d00259dc:	eaffff03 	b	d00255f0 <vsnprintf+0x78>
d00259e0:	e1570009 	cmp	r7, r9
d00259e4:	23a00025 	movcs	r0, #37	; 0x25
d00259e8:	25c90000 	strbcs	r0, [r9]
d00259ec:	eafffefe 	b	d00255ec <vsnprintf+0x74>
d00259f0:	e352004c 	cmp	r2, #76	; 0x4c
d00259f4:	e3a0e00a 	mov	lr, #10
d00259f8:	1affff99 	bne	d0025864 <vsnprintf+0x2ec>
d00259fc:	e0ca20d8 	ldrd	r2, [sl], #8
d0025a00:	eaffffdc 	b	d0025978 <vsnprintf+0x400>
d0025a04:	e49ae004 	ldr	lr, [sl], #4
d0025a08:	e1a0100c 	mov	r1, ip
d0025a0c:	e59fc3c8 	ldr	ip, [pc, #968]	; d0025ddc <vsnprintf+0x864>
d0025a10:	e59f03c8 	ldr	r0, [pc, #968]	; d0025de0 <vsnprintf+0x868>
d0025a14:	e15e000c 	cmp	lr, ip
d0025a18:	81a0000e 	movhi	r0, lr
d0025a1c:	e58d0014 	str	r0, [sp, #20]
d0025a20:	ebfff938 	bl	d0023f08 <strnlen>
d0025a24:	e3160010 	tst	r6, #16
d0025a28:	11a0c005 	movne	ip, r5
d0025a2c:	e1a02000 	mov	r2, r0
d0025a30:	11a00009 	movne	r0, r9
d0025a34:	1a00002c 	bne	d0025aec <vsnprintf+0x574>
d0025a38:	e1550002 	cmp	r5, r2
d0025a3c:	e245c001 	sub	ip, r5, #1
d0025a40:	d1a00009 	movle	r0, r9
d0025a44:	da000028 	ble	d0025aec <vsnprintf+0x574>
d0025a48:	e1e03002 	mvn	r3, r2
d0025a4c:	e0830005 	add	r0, r3, r5
d0025a50:	e1570009 	cmp	r7, r9
d0025a54:	e2001001 	and	r1, r0, #1
d0025a58:	23a00020 	movcs	r0, #32
d0025a5c:	25c90000 	strbcs	r0, [r9]
d0025a60:	e245e001 	sub	lr, r5, #1
d0025a64:	e15e0002 	cmp	lr, r2
d0025a68:	e3a03001 	mov	r3, #1
d0025a6c:	da000018 	ble	d0025ad4 <vsnprintf+0x55c>
d0025a70:	e3510000 	cmp	r1, #0
d0025a74:	0a000007 	beq	d0025a98 <vsnprintf+0x520>
d0025a78:	e0830009 	add	r0, r3, r9
d0025a7c:	e1570000 	cmp	r7, r0
d0025a80:	23a00020 	movcs	r0, #32
d0025a84:	27c90003 	strbcs	r0, [r9, r3]
d0025a88:	e2833001 	add	r3, r3, #1
d0025a8c:	e0631005 	rsb	r1, r3, r5
d0025a90:	e1510002 	cmp	r1, r2
d0025a94:	da00000e 	ble	d0025ad4 <vsnprintf+0x55c>
d0025a98:	e1a0600c 	mov	r6, ip
d0025a9c:	e083c009 	add	ip, r3, r9
d0025aa0:	e157000c 	cmp	r7, ip
d0025aa4:	e2831001 	add	r1, r3, #1
d0025aa8:	23a0c020 	movcs	ip, #32
d0025aac:	e081e009 	add	lr, r1, r9
d0025ab0:	27c9c003 	strbcs	ip, [r9, r3]
d0025ab4:	e157000e 	cmp	r7, lr
d0025ab8:	23a0c020 	movcs	ip, #32
d0025abc:	27c9c001 	strbcs	ip, [r9, r1]
d0025ac0:	e2813001 	add	r3, r1, #1
d0025ac4:	e063e005 	rsb	lr, r3, r5
d0025ac8:	e15e0002 	cmp	lr, r2
d0025acc:	cafffff2 	bgt	d0025a9c <vsnprintf+0x524>
d0025ad0:	e1a0c006 	mov	ip, r6
d0025ad4:	e265e001 	rsb	lr, r5, #1
d0025ad8:	e24c0001 	sub	r0, ip, #1
d0025adc:	e08e3002 	add	r3, lr, r2
d0025ae0:	e0621005 	rsb	r1, r2, r5
d0025ae4:	e080c003 	add	ip, r0, r3
d0025ae8:	e0890001 	add	r0, r9, r1
d0025aec:	e3520000 	cmp	r2, #0
d0025af0:	da00001e 	ble	d0025b70 <vsnprintf+0x5f8>
d0025af4:	e2423001 	sub	r3, r2, #1
d0025af8:	e1500007 	cmp	r0, r7
d0025afc:	e2031001 	and	r1, r3, #1
d0025b00:	9a0000a4 	bls	d0025d98 <vsnprintf+0x820>
d0025b04:	e3a03001 	mov	r3, #1
d0025b08:	e1520003 	cmp	r2, r3
d0025b0c:	0a000016 	beq	d0025b6c <vsnprintf+0x5f4>
d0025b10:	e3510000 	cmp	r1, #0
d0025b14:	0a000007 	beq	d0025b38 <vsnprintf+0x5c0>
d0025b18:	e083e000 	add	lr, r3, r0
d0025b1c:	e15e0007 	cmp	lr, r7
d0025b20:	959d6014 	ldrls	r6, [sp, #20]
d0025b24:	97d6e003 	ldrbls	lr, [r6, r3]
d0025b28:	97c0e003 	strbls	lr, [r0, r3]
d0025b2c:	e2833001 	add	r3, r3, #1
d0025b30:	e1520003 	cmp	r2, r3
d0025b34:	0a00000c 	beq	d0025b6c <vsnprintf+0x5f4>
d0025b38:	e59d9014 	ldr	r9, [sp, #20]
d0025b3c:	e0836000 	add	r6, r3, r0
d0025b40:	e1560007 	cmp	r6, r7
d0025b44:	e2831001 	add	r1, r3, #1
d0025b48:	97d96003 	ldrbls	r6, [r9, r3]
d0025b4c:	e0815000 	add	r5, r1, r0
d0025b50:	97c06003 	strbls	r6, [r0, r3]
d0025b54:	e1550007 	cmp	r5, r7
d0025b58:	97d93001 	ldrbls	r3, [r9, r1]
d0025b5c:	97c03001 	strbls	r3, [r0, r1]
d0025b60:	e2813001 	add	r3, r1, #1
d0025b64:	e1520003 	cmp	r2, r3
d0025b68:	1afffff3 	bne	d0025b3c <vsnprintf+0x5c4>
d0025b6c:	e0800002 	add	r0, r0, r2
d0025b70:	e15c0002 	cmp	ip, r2
d0025b74:	dafffe9d 	ble	d00255f0 <vsnprintf+0x78>
d0025b78:	e1e01002 	mvn	r1, r2
d0025b7c:	e081e00c 	add	lr, r1, ip
d0025b80:	e1570000 	cmp	r7, r0
d0025b84:	e20e1001 	and	r1, lr, #1
d0025b88:	2a00007f 	bcs	d0025d8c <vsnprintf+0x814>
d0025b8c:	e24c3001 	sub	r3, ip, #1
d0025b90:	e1520003 	cmp	r2, r3
d0025b94:	e3a03001 	mov	r3, #1
d0025b98:	aa000016 	bge	d0025bf8 <vsnprintf+0x680>
d0025b9c:	e3510000 	cmp	r1, #0
d0025ba0:	0a000007 	beq	d0025bc4 <vsnprintf+0x64c>
d0025ba4:	e083e000 	add	lr, r3, r0
d0025ba8:	e157000e 	cmp	r7, lr
d0025bac:	23a05020 	movcs	r5, #32
d0025bb0:	27c05003 	strbcs	r5, [r0, r3]
d0025bb4:	e2833001 	add	r3, r3, #1
d0025bb8:	e063100c 	rsb	r1, r3, ip
d0025bbc:	e1520001 	cmp	r2, r1
d0025bc0:	aa00000c 	bge	d0025bf8 <vsnprintf+0x680>
d0025bc4:	e0836000 	add	r6, r3, r0
d0025bc8:	e1570006 	cmp	r7, r6
d0025bcc:	e2831001 	add	r1, r3, #1
d0025bd0:	23a06020 	movcs	r6, #32
d0025bd4:	e0815000 	add	r5, r1, r0
d0025bd8:	27c06003 	strbcs	r6, [r0, r3]
d0025bdc:	e1570005 	cmp	r7, r5
d0025be0:	23a06020 	movcs	r6, #32
d0025be4:	27c06001 	strbcs	r6, [r0, r1]
d0025be8:	e2813001 	add	r3, r1, #1
d0025bec:	e063100c 	rsb	r1, r3, ip
d0025bf0:	e1520001 	cmp	r2, r1
d0025bf4:	bafffff2 	blt	d0025bc4 <vsnprintf+0x64c>
d0025bf8:	e062200c 	rsb	r2, r2, ip
d0025bfc:	e0800002 	add	r0, r0, r2
d0025c00:	eafffe7a 	b	d00255f0 <vsnprintf+0x78>
d0025c04:	e3750001 	cmn	r5, #1
d0025c08:	e49a2004 	ldr	r2, [sl], #4
d0025c0c:	03866001 	orreq	r6, r6, #1
d0025c10:	03a05008 	moveq	r5, #8
d0025c14:	e58dc008 	str	ip, [sp, #8]
d0025c18:	e1a00009 	mov	r0, r9
d0025c1c:	e3a0c010 	mov	ip, #16
d0025c20:	e1a01007 	mov	r1, r7
d0025c24:	e3a03000 	mov	r3, #0
d0025c28:	e58d5004 	str	r5, [sp, #4]
d0025c2c:	e58d600c 	str	r6, [sp, #12]
d0025c30:	e58dc000 	str	ip, [sp]
d0025c34:	ebfffb55 	bl	d0024990 <number>
d0025c38:	eafffe6c 	b	d00255f0 <vsnprintf+0x78>
d0025c3c:	e3a0e008 	mov	lr, #8
d0025c40:	eaffff05 	b	d002585c <vsnprintf+0x2e4>
d0025c44:	e49a3004 	ldr	r3, [sl], #4
d0025c48:	e06b0009 	rsb	r0, fp, r9
d0025c4c:	e5830000 	str	r0, [r3]
d0025c50:	e1a00009 	mov	r0, r9
d0025c54:	eafffe65 	b	d00255f0 <vsnprintf+0x78>
d0025c58:	e3866002 	orr	r6, r6, #2
d0025c5c:	e3a0e00a 	mov	lr, #10
d0025c60:	eafffefd 	b	d002585c <vsnprintf+0x2e4>
d0025c64:	e3160010 	tst	r6, #16
d0025c68:	11a01005 	movne	r1, r5
d0025c6c:	1a000022 	bne	d0025cfc <vsnprintf+0x784>
d0025c70:	e2450001 	sub	r0, r5, #1
d0025c74:	e3500000 	cmp	r0, #0
d0025c78:	e1a01000 	mov	r1, r0
d0025c7c:	da00001e 	ble	d0025cfc <vsnprintf+0x784>
d0025c80:	e2492001 	sub	r2, r9, #1
d0025c84:	e0825005 	add	r5, r2, r5
d0025c88:	e1e03009 	mvn	r3, r9
d0025c8c:	e0832005 	add	r2, r3, r5
d0025c90:	e1570009 	cmp	r7, r9
d0025c94:	e2022001 	and	r2, r2, #1
d0025c98:	23a0c020 	movcs	ip, #32
d0025c9c:	25c9c000 	strbcs	ip, [r9]
d0025ca0:	e2893001 	add	r3, r9, #1
d0025ca4:	e1530005 	cmp	r3, r5
d0025ca8:	0a000011 	beq	d0025cf4 <vsnprintf+0x77c>
d0025cac:	e3520000 	cmp	r2, #0
d0025cb0:	0a000005 	beq	d0025ccc <vsnprintf+0x754>
d0025cb4:	e1570003 	cmp	r7, r3
d0025cb8:	23a01020 	movcs	r1, #32
d0025cbc:	25c31000 	strbcs	r1, [r3]
d0025cc0:	e2833001 	add	r3, r3, #1
d0025cc4:	e1530005 	cmp	r3, r5
d0025cc8:	0a000009 	beq	d0025cf4 <vsnprintf+0x77c>
d0025ccc:	e1570003 	cmp	r7, r3
d0025cd0:	23a06020 	movcs	r6, #32
d0025cd4:	e2832001 	add	r2, r3, #1
d0025cd8:	25c36000 	strbcs	r6, [r3]
d0025cdc:	e1570002 	cmp	r7, r2
d0025ce0:	23a06020 	movcs	r6, #32
d0025ce4:	25c36001 	strbcs	r6, [r3, #1]
d0025ce8:	e2823001 	add	r3, r2, #1
d0025cec:	e1530005 	cmp	r3, r5
d0025cf0:	1afffff5 	bne	d0025ccc <vsnprintf+0x754>
d0025cf4:	e0899000 	add	r9, r9, r0
d0025cf8:	e3a01000 	mov	r1, #0
d0025cfc:	e1590007 	cmp	r9, r7
d0025d00:	e49a0004 	ldr	r0, [sl], #4
d0025d04:	95c90000 	strbls	r0, [r9]
d0025d08:	e3510001 	cmp	r1, #1
d0025d0c:	e2890001 	add	r0, r9, #1
d0025d10:	dafffe36 	ble	d00255f0 <vsnprintf+0x78>
d0025d14:	e1e02000 	mvn	r2, r0
d0025d18:	e0899001 	add	r9, r9, r1
d0025d1c:	e0823009 	add	r3, r2, r9
d0025d20:	e1570000 	cmp	r7, r0
d0025d24:	e2032001 	and	r2, r3, #1
d0025d28:	2a00001e 	bcs	d0025da8 <vsnprintf+0x830>
d0025d2c:	e2803001 	add	r3, r0, #1
d0025d30:	e1530009 	cmp	r3, r9
d0025d34:	0a000011 	beq	d0025d80 <vsnprintf+0x808>
d0025d38:	e3520000 	cmp	r2, #0
d0025d3c:	0a000005 	beq	d0025d58 <vsnprintf+0x7e0>
d0025d40:	e1570003 	cmp	r7, r3
d0025d44:	23a05020 	movcs	r5, #32
d0025d48:	25c35000 	strbcs	r5, [r3]
d0025d4c:	e2833001 	add	r3, r3, #1
d0025d50:	e1530009 	cmp	r3, r9
d0025d54:	0a000009 	beq	d0025d80 <vsnprintf+0x808>
d0025d58:	e1570003 	cmp	r7, r3
d0025d5c:	23a0c020 	movcs	ip, #32
d0025d60:	e2832001 	add	r2, r3, #1
d0025d64:	25c3c000 	strbcs	ip, [r3]
d0025d68:	e1570002 	cmp	r7, r2
d0025d6c:	23a06020 	movcs	r6, #32
d0025d70:	25c36001 	strbcs	r6, [r3, #1]
d0025d74:	e2823001 	add	r3, r2, #1
d0025d78:	e1530009 	cmp	r3, r9
d0025d7c:	1afffff5 	bne	d0025d58 <vsnprintf+0x7e0>
d0025d80:	e2411001 	sub	r1, r1, #1
d0025d84:	e0800001 	add	r0, r0, r1
d0025d88:	eafffe18 	b	d00255f0 <vsnprintf+0x78>
d0025d8c:	e3a0e020 	mov	lr, #32
d0025d90:	e5c0e000 	strb	lr, [r0]
d0025d94:	eaffff7c 	b	d0025b8c <vsnprintf+0x614>
d0025d98:	e59d5014 	ldr	r5, [sp, #20]
d0025d9c:	e5d53000 	ldrb	r3, [r5]
d0025da0:	e5c03000 	strb	r3, [r0]
d0025da4:	eaffff56 	b	d0025b04 <vsnprintf+0x58c>
d0025da8:	e3a03020 	mov	r3, #32
d0025dac:	e5c03000 	strb	r3, [r0]
d0025db0:	eaffffdd 	b	d0025d2c <vsnprintf+0x7b4>
d0025db4:	e49a2004 	ldr	r2, [sl], #4
d0025db8:	e3160002 	tst	r6, #2
d0025dbc:	e1a01802 	lsl	r1, r2, #16
d0025dc0:	e1a02821 	lsr	r2, r1, #16
d0025dc4:	e3a03000 	mov	r3, #0
d0025dc8:	11a02802 	lslne	r2, r2, #16
d0025dcc:	11a02842 	asrne	r2, r2, #16
d0025dd0:	11a03fc2 	asrne	r3, r2, #31
d0025dd4:	eafffee7 	b	d0025978 <vsnprintf+0x400>
d0025dd8:	d0026194 	mulle	r2, r4, r1
d0025ddc:	000003ff 	strdeq	r0, [r0], -pc
d0025de0:	d0026138 	andle	r6, r2, r8, lsr r1

d0025de4 <vsprintf>:
d0025de4:	e1a03002 	mov	r3, r2
d0025de8:	e1a02001 	mov	r2, r1
d0025dec:	e3e01102 	mvn	r1, #-2147483648	; 0x80000000
d0025df0:	eafffde0 	b	d0025578 <vsnprintf>

d0025df4 <sprintf>:
d0025df4:	e92d000e 	push	{r1, r2, r3}
d0025df8:	e52de004 	push	{lr}		; (str lr, [sp, #-4]!)
d0025dfc:	e59d1004 	ldr	r1, [sp, #4]
d0025e00:	e28d2008 	add	r2, sp, #8
d0025e04:	ebfffff6 	bl	d0025de4 <vsprintf>
d0025e08:	e49de004 	pop	{lr}		; (ldr lr, [sp], #4)
d0025e0c:	e28dd00c 	add	sp, sp, #12
d0025e10:	e12fff1e 	bx	lr

d0025e14 <scnprintf>:
d0025e14:	e92d000c 	push	{r2, r3}
d0025e18:	e92d4010 	push	{r4, lr}
d0025e1c:	e59d2008 	ldr	r2, [sp, #8]
d0025e20:	e28d300c 	add	r3, sp, #12
d0025e24:	e1a04001 	mov	r4, r1
d0025e28:	ebfffdd2 	bl	d0025578 <vsnprintf>
d0025e2c:	e1540000 	cmp	r4, r0
d0025e30:	92440001 	subls	r0, r4, #1
d0025e34:	e8bd4010 	pop	{r4, lr}
d0025e38:	e28dd008 	add	sp, sp, #8
d0025e3c:	e12fff1e 	bx	lr

d0025e40 <snprintf>:
d0025e40:	e92d000c 	push	{r2, r3}
d0025e44:	e92d4008 	push	{r3, lr}
d0025e48:	e59d2008 	ldr	r2, [sp, #8]
d0025e4c:	e28d300c 	add	r3, sp, #12
d0025e50:	ebfffdc8 	bl	d0025578 <vsnprintf>
d0025e54:	e8bd4008 	pop	{r3, lr}
d0025e58:	e28dd008 	add	sp, sp, #8
d0025e5c:	e12fff1e 	bx	lr

d0025e60 <vscnprintf>:
d0025e60:	e92d4010 	push	{r4, lr}
d0025e64:	e1a04001 	mov	r4, r1
d0025e68:	ebfffdc2 	bl	d0025578 <vsnprintf>
d0025e6c:	e1540000 	cmp	r4, r0
d0025e70:	92440001 	subls	r0, r4, #1
d0025e74:	e8bd8010 	pop	{r4, pc}
	...

d0025e80 <__do_div64>:
d0025e80:	e254c001 	subs	ip, r4, #1
d0025e84:	9a00003f 	bls	d0025f88 <__do_div64+0x108>
d0025e88:	e11c0004 	tst	ip, r4
d0025e8c:	0a000028 	beq	d0025f34 <__do_div64+0xb4>
d0025e90:	e1510004 	cmp	r1, r4
d0025e94:	e3a03000 	mov	r3, #0
d0025e98:	3a00000c 	bcc	d0025ed0 <__do_div64+0x50>
d0025e9c:	e1a02004 	mov	r2, r4
d0025ea0:	e3a0c001 	mov	ip, #1
d0025ea4:	e3520102 	cmp	r2, #-2147483648	; 0x80000000
d0025ea8:	31520001 	cmpcc	r2, r1
d0025eac:	31a02082 	lslcc	r2, r2, #1
d0025eb0:	31a0c08c 	lslcc	ip, ip, #1
d0025eb4:	3afffffa 	bcc	d0025ea4 <__do_div64+0x24>
d0025eb8:	e1510002 	cmp	r1, r2
d0025ebc:	2183300c 	orrcs	r3, r3, ip
d0025ec0:	20511002 	subscs	r1, r1, r2
d0025ec4:	11b0c0ac 	lsrsne	ip, ip, #1
d0025ec8:	e1a020a2 	lsr	r2, r2, #1
d0025ecc:	1afffff9 	bne	d0025eb8 <__do_div64+0x38>
d0025ed0:	e3510000 	cmp	r1, #0
d0025ed4:	e3a02000 	mov	r2, #0
d0025ed8:	01500004 	cmpeq	r0, r4
d0025edc:	31a01000 	movcc	r1, r0
d0025ee0:	31a0f00e 	movcc	pc, lr
d0025ee4:	e3a0c102 	mov	ip, #-2147483648	; 0x80000000
d0025ee8:	e1b00080 	lsls	r0, r0, #1
d0025eec:	e0b11001 	adcs	r1, r1, r1
d0025ef0:	0a000005 	beq	d0025f0c <__do_div64+0x8c>
d0025ef4:	31510004 	cmpcc	r1, r4
d0025ef8:	2182200c 	orrcs	r2, r2, ip
d0025efc:	20411004 	subcs	r1, r1, r4
d0025f00:	e1b0c0ac 	lsrs	ip, ip, #1
d0025f04:	1afffff7 	bne	d0025ee8 <__do_div64+0x68>
d0025f08:	e1a0f00e 	mov	pc, lr
d0025f0c:	2afffff9 	bcs	d0025ef8 <__do_div64+0x78>
d0025f10:	e3500000 	cmp	r0, #0
d0025f14:	01a0f00e 	moveq	pc, lr
d0025f18:	e1b00080 	lsls	r0, r0, #1
d0025f1c:	e1a0c0ac 	lsr	ip, ip, #1
d0025f20:	3afffffc 	bcc	d0025f18 <__do_div64+0x98>
d0025f24:	e1b0c0ac 	lsrs	ip, ip, #1
d0025f28:	e3a01001 	mov	r1, #1
d0025f2c:	1affffed 	bne	d0025ee8 <__do_div64+0x68>
d0025f30:	e1a0f00e 	mov	pc, lr
d0025f34:	e1a02004 	mov	r2, r4
d0025f38:	e3540801 	cmp	r4, #65536	; 0x10000
d0025f3c:	e3a0c000 	mov	ip, #0
d0025f40:	21a02822 	lsrcs	r2, r2, #16
d0025f44:	23a0c010 	movcs	ip, #16
d0025f48:	e3520c01 	cmp	r2, #256	; 0x100
d0025f4c:	21a02422 	lsrcs	r2, r2, #8
d0025f50:	228cc008 	addcs	ip, ip, #8
d0025f54:	e3520010 	cmp	r2, #16
d0025f58:	21a02222 	lsrcs	r2, r2, #4
d0025f5c:	228cc004 	addcs	ip, ip, #4
d0025f60:	e3520004 	cmp	r2, #4
d0025f64:	828cc003 	addhi	ip, ip, #3
d0025f68:	908cc0a2 	addls	ip, ip, r2, lsr #1
d0025f6c:	e1a03c31 	lsr	r3, r1, ip
d0025f70:	e1a02c30 	lsr	r2, r0, ip
d0025f74:	e26cc020 	rsb	ip, ip, #32
d0025f78:	e1822c11 	orr	r2, r2, r1, lsl ip
d0025f7c:	e1a01c10 	lsl	r1, r0, ip
d0025f80:	e1a01c31 	lsr	r1, r1, ip
d0025f84:	e1a0f00e 	mov	pc, lr
d0025f88:	01a02000 	moveq	r2, r0
d0025f8c:	01a03001 	moveq	r3, r1
d0025f90:	03a01000 	moveq	r1, #0
d0025f94:	01a0f00e 	moveq	pc, lr
d0025f98:	e52de004 	push	{lr}		; (str lr, [sp, #-4]!)
d0025f9c:	e3a02000 	mov	r2, #0
d0025fa0:	e3a03000 	mov	r3, #0
d0025fa4:	e3a01000 	mov	r1, #0
d0025fa8:	e49df004 	pop	{pc}		; (ldr pc, [sp], #4)
d0025fac:	e1a00000 	nop			; (mov r0, r0)

Disassembly of section .rodata.str1.4:

d0025fb0 <.rodata.str1.4>:
d0025fb0:	61746164 	cmnvs	r4, r4, ror #2
d0025fb4:	6378655f 	cmnvs	r8, #398458880	; 0x17c00000
d0025fb8:	69747065 	ldmdbvs	r4!, {r0, r2, r5, r6, ip, sp, lr}^
d0025fbc:	0a2e6e6f 	beq	d0bc1980 <bss_end+0xb9aec4>
d0025fc0:	00000000 	andeq	r0, r0, r0
d0025fc4:	66657270 	undefined instruction 0x66657270
d0025fc8:	68637465 	stmdavs	r3!, {r0, r2, r5, r6, sl, ip, sp, lr}^
d0025fcc:	6378655f 	cmnvs	r8, #398458880	; 0x17c00000
d0025fd0:	69747065 	ldmdbvs	r4!, {r0, r2, r5, r6, ip, sp, lr}^
d0025fd4:	0a2e6e6f 	beq	d0bc1998 <bss_end+0xb9aedc>
d0025fd8:	00000000 	andeq	r0, r0, r0
d0025fdc:	66746f73 	uhsub16vs	r6, r4, r3
d0025fe0:	746e695f 	strbtvc	r6, [lr], #-2399	; 0x95f
d0025fe4:	6378655f 	cmnvs	r8, #398458880	; 0x17c00000
d0025fe8:	69747065 	ldmdbvs	r4!, {r0, r2, r5, r6, ip, sp, lr}^
d0025fec:	0a2e6e6f 	beq	d0bc19b0 <bss_end+0xb9aef4>
d0025ff0:	00000000 	andeq	r0, r0, r0
d0025ff4:	65646e75 	strbvs	r6, [r4, #-3701]!	; 0xe75
d0025ff8:	78655f66 	stmdavc	r5!, {r1, r2, r5, r6, r8, r9, sl, fp, ip, lr}^
d0025ffc:	74706563 	ldrbtvc	r6, [r0], #-1379	; 0x563
d0026000:	2e6e6f69 	cdpcs	15, 6, cr6, cr14, cr9, {3}
d0026004:	0000000a 	andeq	r0, r0, sl
d0026008:	65736572 	ldrbvs	r6, [r3, #-1394]!	; 0x572
d002600c:	78655f74 	stmdavc	r5!, {r2, r4, r5, r6, r8, r9, sl, fp, ip, lr}^
d0026010:	74706563 	ldrbtvc	r6, [r0], #-1379	; 0x563
d0026014:	2e6e6f69 	cdpcs	15, 6, cr6, cr14, cr9, {3}
d0026018:	0000000a 	andeq	r0, r0, sl
d002601c:	746e6965 	strbtvc	r6, [lr], #-2405	; 0x965
d0026020:	000a3631 	andeq	r3, sl, r1, lsr r6
d0026024:	746e6965 	strbtvc	r6, [lr], #-2405	; 0x965
d0026028:	000a3731 	andeq	r3, sl, r1, lsr r7
d002602c:	746e6965 	strbtvc	r6, [lr], #-2405	; 0x965
d0026030:	000a3831 	andeq	r3, sl, r1, lsr r8
d0026034:	746e6965 	strbtvc	r6, [lr], #-2405	; 0x965
d0026038:	000a3931 	andeq	r3, sl, r1, lsr r9
d002603c:	5f727369 	svcpl	0x00727369
d0026040:	746e6965 	strbtvc	r6, [lr], #-2405	; 0x965
d0026044:	4f445f33 	svcmi	0x00445f33
d0026048:	0a2e4e57 	beq	d0bb99ac <bss_end+0xb92ef0>
d002604c:	00000000 	andeq	r0, r0, r0
d0026050:	5f727369 	svcpl	0x00727369
d0026054:	746e6965 	strbtvc	r6, [lr], #-2405	; 0x965
d0026058:	454c5f32 	strbmi	r5, [ip, #-3890]	; 0xf32
d002605c:	0a2e5446 	beq	d0bbb17c <bss_end+0xb946c0>
d0026060:	00000000 	andeq	r0, r0, r0
d0026064:	2079656b 	rsbscs	r6, r9, fp, ror #10
d0026068:	7466656c 	strbtvc	r6, [r6], #-1388	; 0x56c
d002606c:	00000a2e 	andeq	r0, r0, lr, lsr #20
d0026070:	2079656b 	rsbscs	r6, r9, fp, ror #10
d0026074:	6e776f64 	cdpvs	15, 7, cr6, cr7, cr4, {3}
d0026078:	00000a2e 	andeq	r0, r0, lr, lsr #20
d002607c:	20656874 	rsbcs	r6, r5, r4, ror r8
d0026080:	756c6f63 	strbvc	r6, [ip, #-3939]!	; 0xf63
d0026084:	7369206d 	cmnvc	r9, #109	; 0x6d
d0026088:	2c782520 	cfldr64cs	mvdx2, [r8], #-128	; 0xffffff80
d002608c:	20656874 	rsbcs	r6, r5, r4, ror r8
d0026090:	65676170 	strbvs	r6, [r7, #-368]!	; 0x170
d0026094:	20736920 	rsbscs	r6, r3, r0, lsr #18
d0026098:	000a7825 	andeq	r7, sl, r5, lsr #16
d002609c:	74697277 	strbtvc	r7, [r9], #-631	; 0x277
d00260a0:	78252065 	stmdavc	r5!, {r0, r2, r5, r6, sp}
d00260a4:	69616620 	stmdbvs	r1!, {r5, r9, sl, sp, lr}^
d00260a8:	2164656c 	cmncs	r4, ip, ror #10
d00260ac:	0000000a 	andeq	r0, r0, sl
d00260b0:	74697277 	strbtvc	r7, [r9], #-631	; 0x277
d00260b4:	78252065 	stmdavc	r5!, {r0, r2, r5, r6, sp}
d00260b8:	63757320 	cmnvs	r5, #-2147483648	; 0x80000000
d00260bc:	73736563 	cmnvc	r3, #415236096	; 0x18c00000
d00260c0:	00000a21 	andeq	r0, r0, r1, lsr #20
d00260c4:	73617265 	cmnvc	r1, #1342177286	; 0x50000006
d00260c8:	78252065 	stmdavc	r5!, {r0, r2, r5, r6, sp}
d00260cc:	6f6c6220 	svcvs	0x006c6220
d00260d0:	66206b63 	strtvs	r6, [r0], -r3, ror #22
d00260d4:	656c6961 	strbvs	r6, [ip, #-2401]!	; 0x961
d00260d8:	000a2164 	andeq	r2, sl, r4, ror #2
d00260dc:	73617265 	cmnvc	r1, #1342177286	; 0x50000006
d00260e0:	78252065 	stmdavc	r5!, {r0, r2, r5, r6, sp}
d00260e4:	6f6c6220 	svcvs	0x006c6220
d00260e8:	73206b63 	teqvc	r0, #101376	; 0x18c00
d00260ec:	65636375 	strbvs	r6, [r3, #-885]!	; 0x375
d00260f0:	0a217373 	beq	d0882ec4 <bss_end+0x85c408>
d00260f4:	00000000 	andeq	r0, r0, r0
d00260f8:	255b6472 	ldrbcs	r6, [fp, #-1138]	; 0x472
d00260fc:	253d5d64 	ldrcs	r5, [sp, #-3428]!	; 0xd64
d0026100:	00000a64 	andeq	r0, r0, r4, ror #20
d0026104:	20656874 	rsbcs	r6, r5, r4, ror r8
d0026108:	70696863 	rsbvc	r6, r9, r3, ror #16
d002610c:	255b6469 	ldrbcs	r6, [fp, #-1129]	; 0x469
d0026110:	69205d64 	stmdbvs	r0!, {r2, r5, r6, r8, sl, fp, ip, lr}
d0026114:	78252073 	stmdavc	r5!, {r0, r1, r4, r5, r6, sp}
d0026118:	0000000a 	andeq	r0, r0, sl
d002611c:	736e6969 	cmnvc	lr, #1720320	; 0x1a4000
d0026120:	20656469 	rsbcs	r6, r5, r9, ror #8
d0026124:	646e616e 	strbtvs	r6, [lr], #-366	; 0x16e
d0026128:	776f6c20 	strbvc	r6, [pc, -r0, lsr #24]!
d002612c:	76656c20 	strbtvc	r6, [r5], -r0, lsr #24
d0026130:	0a206c65 	beq	d08412cc <bss_end+0x81a810>
d0026134:	00000000 	andeq	r0, r0, r0
d0026138:	4c554e3c 	mrrcmi	14, 3, r4, r5, cr12
d002613c:	00003e4c 	andeq	r3, r0, ip, asr #28

Disassembly of section .rodata:

d0026140 <small_digits.1117>:
d0026140:	33323130 	teqcc	r2, #12
d0026144:	37363534 	undefined instruction 0x37363534
d0026148:	62613938 	rsbvs	r3, r1, #917504	; 0xe0000
d002614c:	66656463 	strbtvs	r6, [r5], -r3, ror #8
d0026150:	6a696867 	bvs	d1a802f4 <bss_end+0x1a59838>
d0026154:	6e6d6c6b 	cdpvs	12, 6, cr6, cr13, cr11, {3}
d0026158:	7271706f 	rsbsvc	r7, r1, #111	; 0x6f
d002615c:	76757473 	undefined instruction 0x76757473
d0026160:	7a797877 	bvc	d1e84344 <bss_end+0x1e5d888>
d0026164:	00000000 	andeq	r0, r0, r0

d0026168 <large_digits.1118>:
d0026168:	33323130 	teqcc	r2, #12
d002616c:	37363534 	undefined instruction 0x37363534
d0026170:	42413938 	submi	r3, r1, #917504	; 0xe0000
d0026174:	46454443 	strbmi	r4, [r5], -r3, asr #8
d0026178:	4a494847 	bmi	d127829c <bss_end+0x12517e0>
d002617c:	4e4d4c4b 	cdpmi	12, 4, cr4, cr13, cr11, {2}
d0026180:	5251504f 	subspl	r5, r1, #79	; 0x4f
d0026184:	56555453 	undefined instruction 0x56555453
d0026188:	5a595857 	bpl	d167c2ec <bss_end+0x1655830>
d002618c:	00000000 	andeq	r0, r0, r0

Disassembly of section .data:

d0026190 <pfb>:
d0026190:	23000000 	movwcs	r0, #0

d0026194 <_ctype>:
d0026194:	08080808 	stmdaeq	r8, {r3, fp}
d0026198:	08080808 	stmdaeq	r8, {r3, fp}
d002619c:	28282808 	stmdacs	r8!, {r3, fp, sp}
d00261a0:	08082828 	stmdaeq	r8, {r3, r5, fp, sp}
d00261a4:	08080808 	stmdaeq	r8, {r3, fp}
d00261a8:	08080808 	stmdaeq	r8, {r3, fp}
d00261ac:	08080808 	stmdaeq	r8, {r3, fp}
d00261b0:	08080808 	stmdaeq	r8, {r3, fp}
d00261b4:	101010a0 	andsne	r1, r0, r0, lsr #1
d00261b8:	10101010 	andsne	r1, r0, r0, lsl r0
d00261bc:	10101010 	andsne	r1, r0, r0, lsl r0
d00261c0:	10101010 	andsne	r1, r0, r0, lsl r0
d00261c4:	04040404 	streq	r0, [r4], #-1028	; 0x404
d00261c8:	04040404 	streq	r0, [r4], #-1028	; 0x404
d00261cc:	10100404 	andsne	r0, r0, r4, lsl #8
d00261d0:	10101010 	andsne	r1, r0, r0, lsl r0
d00261d4:	41414110 	cmpmi	r1, r0, lsl r1
d00261d8:	01414141 	cmpeq	r1, r1, asr #2
d00261dc:	01010101 	tsteq	r1, r1, lsl #2
d00261e0:	01010101 	tsteq	r1, r1, lsl #2
d00261e4:	01010101 	tsteq	r1, r1, lsl #2
d00261e8:	01010101 	tsteq	r1, r1, lsl #2
d00261ec:	10010101 	andne	r0, r1, r1, lsl #2
d00261f0:	10101010 	andsne	r1, r0, r0, lsl r0
d00261f4:	42424210 	submi	r4, r2, #1
d00261f8:	02424242 	subeq	r4, r2, #536870916	; 0x20000004
d00261fc:	02020202 	andeq	r0, r2, #536870912	; 0x20000000
d0026200:	02020202 	andeq	r0, r2, #536870912	; 0x20000000
d0026204:	02020202 	andeq	r0, r2, #536870912	; 0x20000000
d0026208:	02020202 	andeq	r0, r2, #536870912	; 0x20000000
d002620c:	10020202 	andne	r0, r2, r2, lsl #4
d0026210:	08101010 	ldmdaeq	r0, {r4, ip}
	...
d0026234:	101010a0 	andsne	r1, r0, r0, lsr #1
d0026238:	10101010 	andsne	r1, r0, r0, lsl r0
d002623c:	10101010 	andsne	r1, r0, r0, lsl r0
d0026240:	10101010 	andsne	r1, r0, r0, lsl r0
d0026244:	10101010 	andsne	r1, r0, r0, lsl r0
d0026248:	10101010 	andsne	r1, r0, r0, lsl r0
d002624c:	10101010 	andsne	r1, r0, r0, lsl r0
d0026250:	10101010 	andsne	r1, r0, r0, lsl r0
d0026254:	01010101 	tsteq	r1, r1, lsl #2
d0026258:	01010101 	tsteq	r1, r1, lsl #2
d002625c:	01010101 	tsteq	r1, r1, lsl #2
d0026260:	01010101 	tsteq	r1, r1, lsl #2
d0026264:	01010101 	tsteq	r1, r1, lsl #2
d0026268:	10010101 	andne	r0, r1, r1, lsl #2
d002626c:	01010101 	tsteq	r1, r1, lsl #2
d0026270:	02010101 	andeq	r0, r1, #1073741824	; 0x40000000
d0026274:	02020202 	andeq	r0, r2, #536870912	; 0x20000000
d0026278:	02020202 	andeq	r0, r2, #536870912	; 0x20000000
d002627c:	02020202 	andeq	r0, r2, #536870912	; 0x20000000
d0026280:	02020202 	andeq	r0, r2, #536870912	; 0x20000000
d0026284:	02020202 	andeq	r0, r2, #536870912	; 0x20000000
d0026288:	10020202 	andne	r0, r2, r2, lsl #4
d002628c:	02020202 	andeq	r0, r2, #536870912	; 0x20000000
d0026290:	02020202 	andeq	r0, r2, #536870912	; 0x20000000

Disassembly of section .bss:

d0026294 <flag>:
d0026294:	00000000 	andeq	r0, r0, r0

d0026298 <mynand>:
	...

d00262b8 <g_pcInBuf>:
	...

d00266b8 <g_pcOutBuf>:
	...

d0026ab8 <___strtok>:
d0026ab8:	00000000 	andeq	r0, r0, r0

Disassembly of section .comment:

00000000 <.comment>:
   0:	43434700 	movtmi	r4, #14080	; 0x3700
   4:	5328203a 	teqpl	r8, #58	; 0x3a
   8:	6372756f 	cmnvs	r2, #465567744	; 0x1bc00000
   c:	20797265 	rsbscs	r7, r9, r5, ror #4
  10:	202b2b47 	eorcs	r2, fp, r7, asr #22
  14:	6574694c 	ldrbvs	r6, [r4, #-2380]!	; 0x94c
  18:	30303220 	eorscc	r3, r0, r0, lsr #4
  1c:	2d337139 	ldfcss	f7, [r3, #-228]!	; 0xffffff1c
  20:	20293736 	eorcs	r3, r9, r6, lsr r7
  24:	2e342e34 	mrccs	14, 1, r2, cr4, cr4, {1}
  28:	47000031 	smladxmi	r0, r1, r0, r0
  2c:	203a4343 	eorscs	r4, sl, r3, asr #6
  30:	756f5328 	strbvc	r5, [pc, #-808]!	; fffffd10 <bss_end+0x2ffd9254>
  34:	72656372 	rsbvc	r6, r5, #-939524095	; 0xc8000001
  38:	2b472079 	blcs	11c8224 <_start-0xcee57dec>
  3c:	694c202b 	stmdbvs	ip, {r0, r1, r3, r5, sp}^
  40:	32206574 	eorcc	r6, r0, #486539264	; 0x1d000000
  44:	71393030 	teqvc	r9, r0, lsr r0
  48:	37362d33 	undefined instruction 0x37362d33
  4c:	2e342029 	cdpcs	0, 3, cr2, cr4, cr9, {1}
  50:	00312e34 	eorseq	r2, r1, r4, lsr lr
  54:	43434700 	movtmi	r4, #14080	; 0x3700
  58:	5328203a 	teqpl	r8, #58	; 0x3a
  5c:	6372756f 	cmnvs	r2, #465567744	; 0x1bc00000
  60:	20797265 	rsbscs	r7, r9, r5, ror #4
  64:	202b2b47 	eorcs	r2, fp, r7, asr #22
  68:	6574694c 	ldrbvs	r6, [r4, #-2380]!	; 0x94c
  6c:	30303220 	eorscc	r3, r0, r0, lsr #4
  70:	2d337139 	ldfcss	f7, [r3, #-228]!	; 0xffffff1c
  74:	20293736 	eorcs	r3, r9, r6, lsr r7
  78:	2e342e34 	mrccs	14, 1, r2, cr4, cr4, {1}
  7c:	47000031 	smladxmi	r0, r1, r0, r0
  80:	203a4343 	eorscs	r4, sl, r3, asr #6
  84:	756f5328 	strbvc	r5, [pc, #-808]!	; fffffd64 <bss_end+0x2ffd92a8>
  88:	72656372 	rsbvc	r6, r5, #-939524095	; 0xc8000001
  8c:	2b472079 	blcs	11c8278 <_start-0xcee57d98>
  90:	694c202b 	stmdbvs	ip, {r0, r1, r3, r5, sp}^
  94:	32206574 	eorcc	r6, r0, #486539264	; 0x1d000000
  98:	71393030 	teqvc	r9, r0, lsr r0
  9c:	37362d33 	undefined instruction 0x37362d33
  a0:	2e342029 	cdpcs	0, 3, cr2, cr4, cr9, {1}
  a4:	00312e34 	eorseq	r2, r1, r4, lsr lr
  a8:	43434700 	movtmi	r4, #14080	; 0x3700
  ac:	5328203a 	teqpl	r8, #58	; 0x3a
  b0:	6372756f 	cmnvs	r2, #465567744	; 0x1bc00000
  b4:	20797265 	rsbscs	r7, r9, r5, ror #4
  b8:	202b2b47 	eorcs	r2, fp, r7, asr #22
  bc:	6574694c 	ldrbvs	r6, [r4, #-2380]!	; 0x94c
  c0:	30303220 	eorscc	r3, r0, r0, lsr #4
  c4:	2d337139 	ldfcss	f7, [r3, #-228]!	; 0xffffff1c
  c8:	20293736 	eorcs	r3, r9, r6, lsr r7
  cc:	2e342e34 	mrccs	14, 1, r2, cr4, cr4, {1}
  d0:	47000031 	smladxmi	r0, r1, r0, r0
  d4:	203a4343 	eorscs	r4, sl, r3, asr #6
  d8:	756f5328 	strbvc	r5, [pc, #-808]!	; fffffdb8 <bss_end+0x2ffd92fc>
  dc:	72656372 	rsbvc	r6, r5, #-939524095	; 0xc8000001
  e0:	2b472079 	blcs	11c82cc <_start-0xcee57d44>
  e4:	694c202b 	stmdbvs	ip, {r0, r1, r3, r5, sp}^
  e8:	32206574 	eorcc	r6, r0, #486539264	; 0x1d000000
  ec:	71393030 	teqvc	r9, r0, lsr r0
  f0:	37362d33 	undefined instruction 0x37362d33
  f4:	2e342029 	cdpcs	0, 3, cr2, cr4, cr9, {1}
  f8:	00312e34 	eorseq	r2, r1, r4, lsr lr
  fc:	43434700 	movtmi	r4, #14080	; 0x3700
 100:	5328203a 	teqpl	r8, #58	; 0x3a
 104:	6372756f 	cmnvs	r2, #465567744	; 0x1bc00000
 108:	20797265 	rsbscs	r7, r9, r5, ror #4
 10c:	202b2b47 	eorcs	r2, fp, r7, asr #22
 110:	6574694c 	ldrbvs	r6, [r4, #-2380]!	; 0x94c
 114:	30303220 	eorscc	r3, r0, r0, lsr #4
 118:	2d337139 	ldfcss	f7, [r3, #-228]!	; 0xffffff1c
 11c:	20293736 	eorcs	r3, r9, r6, lsr r7
 120:	2e342e34 	mrccs	14, 1, r2, cr4, cr4, {1}
 124:	47000031 	smladxmi	r0, r1, r0, r0
 128:	203a4343 	eorscs	r4, sl, r3, asr #6
 12c:	756f5328 	strbvc	r5, [pc, #-808]!	; fffffe0c <bss_end+0x2ffd9350>
 130:	72656372 	rsbvc	r6, r5, #-939524095	; 0xc8000001
 134:	2b472079 	blcs	11c8320 <_start-0xcee57cf0>
 138:	694c202b 	stmdbvs	ip, {r0, r1, r3, r5, sp}^
 13c:	32206574 	eorcc	r6, r0, #486539264	; 0x1d000000
 140:	71393030 	teqvc	r9, r0, lsr r0
 144:	37362d33 	undefined instruction 0x37362d33
 148:	2e342029 	cdpcs	0, 3, cr2, cr4, cr9, {1}
 14c:	00312e34 	eorseq	r2, r1, r4, lsr lr
 150:	43434700 	movtmi	r4, #14080	; 0x3700
 154:	5328203a 	teqpl	r8, #58	; 0x3a
 158:	6372756f 	cmnvs	r2, #465567744	; 0x1bc00000
 15c:	20797265 	rsbscs	r7, r9, r5, ror #4
 160:	202b2b47 	eorcs	r2, fp, r7, asr #22
 164:	6574694c 	ldrbvs	r6, [r4, #-2380]!	; 0x94c
 168:	30303220 	eorscc	r3, r0, r0, lsr #4
 16c:	2d337139 	ldfcss	f7, [r3, #-228]!	; 0xffffff1c
 170:	20293736 	eorcs	r3, r9, r6, lsr r7
 174:	2e342e34 	mrccs	14, 1, r2, cr4, cr4, {1}
 178:	47000031 	smladxmi	r0, r1, r0, r0
 17c:	203a4343 	eorscs	r4, sl, r3, asr #6
 180:	756f5328 	strbvc	r5, [pc, #-808]!	; fffffe60 <bss_end+0x2ffd93a4>
 184:	72656372 	rsbvc	r6, r5, #-939524095	; 0xc8000001
 188:	2b472079 	blcs	11c8374 <_start-0xcee57c9c>
 18c:	694c202b 	stmdbvs	ip, {r0, r1, r3, r5, sp}^
 190:	32206574 	eorcc	r6, r0, #486539264	; 0x1d000000
 194:	71393030 	teqvc	r9, r0, lsr r0
 198:	37362d33 	undefined instruction 0x37362d33
 19c:	2e342029 	cdpcs	0, 3, cr2, cr4, cr9, {1}
 1a0:	00312e34 	eorseq	r2, r1, r4, lsr lr
 1a4:	43434700 	movtmi	r4, #14080	; 0x3700
 1a8:	5328203a 	teqpl	r8, #58	; 0x3a
 1ac:	6372756f 	cmnvs	r2, #465567744	; 0x1bc00000
 1b0:	20797265 	rsbscs	r7, r9, r5, ror #4
 1b4:	202b2b47 	eorcs	r2, fp, r7, asr #22
 1b8:	6574694c 	ldrbvs	r6, [r4, #-2380]!	; 0x94c
 1bc:	30303220 	eorscc	r3, r0, r0, lsr #4
 1c0:	2d337139 	ldfcss	f7, [r3, #-228]!	; 0xffffff1c
 1c4:	20293736 	eorcs	r3, r9, r6, lsr r7
 1c8:	2e342e34 	mrccs	14, 1, r2, cr4, cr4, {1}
 1cc:	47000031 	smladxmi	r0, r1, r0, r0
 1d0:	203a4343 	eorscs	r4, sl, r3, asr #6
 1d4:	756f5328 	strbvc	r5, [pc, #-808]!	; fffffeb4 <bss_end+0x2ffd93f8>
 1d8:	72656372 	rsbvc	r6, r5, #-939524095	; 0xc8000001
 1dc:	2b472079 	blcs	11c83c8 <_start-0xcee57c48>
 1e0:	694c202b 	stmdbvs	ip, {r0, r1, r3, r5, sp}^
 1e4:	32206574 	eorcc	r6, r0, #486539264	; 0x1d000000
 1e8:	71393030 	teqvc	r9, r0, lsr r0
 1ec:	37362d33 	undefined instruction 0x37362d33
 1f0:	2e342029 	cdpcs	0, 3, cr2, cr4, cr9, {1}
 1f4:	00312e34 	eorseq	r2, r1, r4, lsr lr

Disassembly of section .ARM.attributes:

00000000 <.ARM.attributes>:
   0:	00002641 	andeq	r2, r0, r1, asr #12
   4:	61656100 	cmnvs	r5, r0, lsl #2
   8:	01006962 	tsteq	r0, r2, ror #18
   c:	0000001c 	andeq	r0, r0, ip, lsl r0
  10:	45543505 	ldrbmi	r3, [r4, #-1285]	; 0x505
  14:	08040600 	stmdaeq	r4, {r9, sl}
  18:	12010901 	andne	r0, r1, #16384	; 0x4000
  1c:	15011404 	strne	r1, [r1, #-1028]	; 0x404
  20:	18031701 	stmdane	r3, {r0, r8, r9, sl, ip}
  24:	Address 0x00000024 is out of bounds.

