
lcd.elf:     file format elf32-littlearm


Disassembly of section .text:

20000000 <_start>:
20000000:	ea000012 	b	20000050 <reset>
20000004:	e59ff014 	ldr	pc, [pc, #20]	; 20000020 <_undefined_instruction>
20000008:	e59ff014 	ldr	pc, [pc, #20]	; 20000024 <_software_interrupt>
2000000c:	e59ff014 	ldr	pc, [pc, #20]	; 20000028 <_prefetch_abort>
20000010:	e59ff014 	ldr	pc, [pc, #20]	; 2000002c <_data_abort>
20000014:	e59ff014 	ldr	pc, [pc, #20]	; 20000030 <_not_used>
20000018:	e59ff014 	ldr	pc, [pc, #20]	; 20000034 <_irq>
2000001c:	e59ff014 	ldr	pc, [pc, #20]	; 20000038 <_fiq>

20000020 <_undefined_instruction>:
20000020:	2000003c 	andcs	r0, r0, ip, lsr r0

20000024 <_software_interrupt>:
20000024:	20000040 	andcs	r0, r0, r0, asr #32

20000028 <_prefetch_abort>:
20000028:	20000044 	andcs	r0, r0, r4, asr #32

2000002c <_data_abort>:
2000002c:	20000048 	andcs	r0, r0, r8, asr #32

20000030 <_not_used>:
20000030:	2000004c 	andcs	r0, r0, ip, asr #32

20000034 <_irq>:
20000034:	2000008c 	andcs	r0, r0, ip, lsl #1

20000038 <_fiq>:
20000038:	2000008c 	andcs	r0, r0, ip, lsl #1

2000003c <undefined_instruction>:
2000003c:	e1a00000 	nop			; (mov r0, r0)

20000040 <software_interrupt>:
20000040:	e1a00000 	nop			; (mov r0, r0)

20000044 <prefetch_abort>:
20000044:	e1a00000 	nop			; (mov r0, r0)

20000048 <data_abort>:
20000048:	e1a00000 	nop			; (mov r0, r0)

2000004c <not_used>:
2000004c:	e1a00000 	nop			; (mov r0, r0)

20000050 <reset>:
20000050:	e10f0000 	mrs	r0, CPSR
20000054:	e3c0001f 	bic	r0, r0, #31
20000058:	e38000d3 	orr	r0, r0, #211	; 0xd3
2000005c:	e129f000 	msr	CPSR_fc, r0
20000060:	e59f0084 	ldr	r0, [pc, #132]	; 200000ec <disable_interrupt+0x28>
20000064:	e3a01000 	mov	r1, #0
20000068:	e5801000 	str	r1, [r0]
2000006c:	eb000014 	bl	200000c4 <disable_interrupt>
20000070:	eb000008 	bl	20000098 <disable_mmu>
20000074:	e59fd074 	ldr	sp, [pc, #116]	; 200000f0 <disable_interrupt+0x2c>
20000078:	ee110f10 	mrc	15, 0, r0, cr1, cr0, {0}
2000007c:	e3800a01 	orr	r0, r0, #4096	; 0x1000
20000080:	ee010f10 	mcr	15, 0, r0, cr1, cr0, {0}

20000084 <run_on_dram>:
20000084:	e59ff068 	ldr	pc, [pc, #104]	; 200000f4 <disable_interrupt+0x30>
20000088:	eafffffe 	b	20000088 <run_on_dram+0x4>

2000008c <IRQ_handle>:
2000008c:	e24ee004 	sub	lr, lr, #4
20000090:	e92d5fff 	push	{r0, r1, r2, r3, r4, r5, r6, r7, r8, r9, sl, fp, ip, lr}
20000094:	e8fd9fff 	ldm	sp!, {r0, r1, r2, r3, r4, r5, r6, r7, r8, r9, sl, fp, ip, pc}^

20000098 <disable_mmu>:
20000098:	ee070f15 	mcr	15, 0, r0, cr7, cr5, {0}
2000009c:	ee070f36 	mcr	15, 0, r0, cr7, cr6, {1}
200000a0:	ee110f10 	mrc	15, 0, r0, cr1, cr0, {0}
200000a4:	e3c00007 	bic	r0, r0, #7
200000a8:	ee010f10 	mcr	15, 0, r0, cr1, cr0, {0}
200000ac:	e1a0f00e 	mov	pc, lr

200000b0 <stack_init>:
200000b0:	e321f0d2 	msr	CPSR_c, #210	; 0xd2
200000b4:	e3a0d42e 	mov	sp, #771751936	; 0x2e000000
200000b8:	e321f0d3 	msr	CPSR_c, #211	; 0xd3
200000bc:	e3a0d42f 	mov	sp, #788529152	; 0x2f000000
200000c0:	e1a0f00e 	mov	pc, lr

200000c4 <disable_interrupt>:
200000c4:	e3e00000 	mvn	r0, #0
200000c8:	e59f1028 	ldr	r1, [pc, #40]	; 200000f8 <disable_interrupt+0x34>
200000cc:	e5810000 	str	r0, [r1]
200000d0:	e59f1024 	ldr	r1, [pc, #36]	; 200000fc <disable_interrupt+0x38>
200000d4:	e5810000 	str	r0, [r1]
200000d8:	e59f1020 	ldr	r1, [pc, #32]	; 20000100 <disable_interrupt+0x3c>
200000dc:	e5810000 	str	r0, [r1]
200000e0:	e59f101c 	ldr	r1, [pc, #28]	; 20000104 <disable_interrupt+0x40>
200000e4:	e5810000 	str	r0, [r1]
200000e8:	e1a0f00e 	mov	pc, lr
200000ec:	e2700000 	rsbs	r0, r0, #0
200000f0:	d0037d80 	andle	r7, r3, r0, lsl #27
200000f4:	200007e0 	andcs	r0, r0, r0, ror #15
200000f8:	f2000014 	vqadd.s8	d0, d0, d4
200000fc:	f2100014 	vqadd.s16	d0, d0, d4
20000100:	f2200014 	vqadd.s32	d0, d0, d4
20000104:	f2300014 	vqadd.s64	d0, d0, d4
20000108:	00001a41 	andeq	r1, r0, r1, asr #20
2000010c:	61656100 	cmnvs	r5, r0, lsl #2
20000110:	01006962 	tsteq	r0, r2, ror #18
20000114:	00000010 	andeq	r0, r0, r0, lsl r0
20000118:	45543505 	ldrbmi	r3, [r4, #-1285]	; 0x505
2000011c:	08040600 	stmdaeq	r4, {r9, sl}
20000120:	00010901 	andeq	r0, r1, r1, lsl #18

20000124 <sdram_asm_init>:
20000124:	e59f01ac 	ldr	r0, [pc, #428]	; 200002d8 <find_lock_val+0xec>
20000128:	e3a01000 	mov	r1, #0
2000012c:	e5801000 	str	r1, [r0]
20000130:	e59f01a4 	ldr	r0, [pc, #420]	; 200002dc <find_lock_val+0xf0>
20000134:	e59f11a4 	ldr	r1, [pc, #420]	; 200002e0 <find_lock_val+0xf4>
20000138:	e58013cc 	str	r1, [r0, #972]	; 0x3cc
2000013c:	e59f119c 	ldr	r1, [pc, #412]	; 200002e0 <find_lock_val+0xf4>
20000140:	e58013ec 	str	r1, [r0, #1004]	; 0x3ec
20000144:	e59f1194 	ldr	r1, [pc, #404]	; 200002e0 <find_lock_val+0xf4>
20000148:	e580140c 	str	r1, [r0, #1036]	; 0x40c
2000014c:	e59f118c 	ldr	r1, [pc, #396]	; 200002e0 <find_lock_val+0xf4>
20000150:	e580142c 	str	r1, [r0, #1068]	; 0x42c
20000154:	e59f1184 	ldr	r1, [pc, #388]	; 200002e0 <find_lock_val+0xf4>
20000158:	e580144c 	str	r1, [r0, #1100]	; 0x44c
2000015c:	e59f117c 	ldr	r1, [pc, #380]	; 200002e0 <find_lock_val+0xf4>
20000160:	e580146c 	str	r1, [r0, #1132]	; 0x46c
20000164:	e59f1174 	ldr	r1, [pc, #372]	; 200002e0 <find_lock_val+0xf4>
20000168:	e580148c 	str	r1, [r0, #1164]	; 0x48c
2000016c:	e59f116c 	ldr	r1, [pc, #364]	; 200002e0 <find_lock_val+0xf4>
20000170:	e58014ac 	str	r1, [r0, #1196]	; 0x4ac
20000174:	e59f1168 	ldr	r1, [pc, #360]	; 200002e4 <find_lock_val+0xf8>
20000178:	e58014cc 	str	r1, [r0, #1228]	; 0x4cc
2000017c:	e59f0158 	ldr	r0, [pc, #344]	; 200002dc <find_lock_val+0xf0>
20000180:	e59f1158 	ldr	r1, [pc, #344]	; 200002e0 <find_lock_val+0xf4>
20000184:	e58014ec 	str	r1, [r0, #1260]	; 0x4ec
20000188:	e59f1150 	ldr	r1, [pc, #336]	; 200002e0 <find_lock_val+0xf4>
2000018c:	e580150c 	str	r1, [r0, #1292]	; 0x50c
20000190:	e59f1148 	ldr	r1, [pc, #328]	; 200002e0 <find_lock_val+0xf4>
20000194:	e580152c 	str	r1, [r0, #1324]	; 0x52c
20000198:	e59f1140 	ldr	r1, [pc, #320]	; 200002e0 <find_lock_val+0xf4>
2000019c:	e580154c 	str	r1, [r0, #1356]	; 0x54c
200001a0:	e59f1138 	ldr	r1, [pc, #312]	; 200002e0 <find_lock_val+0xf4>
200001a4:	e580156c 	str	r1, [r0, #1388]	; 0x56c
200001a8:	e59f1130 	ldr	r1, [pc, #304]	; 200002e0 <find_lock_val+0xf4>
200001ac:	e580158c 	str	r1, [r0, #1420]	; 0x58c
200001b0:	e59f1128 	ldr	r1, [pc, #296]	; 200002e0 <find_lock_val+0xf4>
200001b4:	e58015ac 	str	r1, [r0, #1452]	; 0x5ac
200001b8:	e59f1120 	ldr	r1, [pc, #288]	; 200002e0 <find_lock_val+0xf4>
200001bc:	e58015cc 	str	r1, [r0, #1484]	; 0x5cc
200001c0:	e59f111c 	ldr	r1, [pc, #284]	; 200002e4 <find_lock_val+0xf8>
200001c4:	e58015ec 	str	r1, [r0, #1516]	; 0x5ec
200001c8:	e3a0020f 	mov	r0, #-268435456	; 0xf0000000
200001cc:	e59f1114 	ldr	r1, [pc, #276]	; 200002e8 <find_lock_val+0xfc>
200001d0:	e5801018 	str	r1, [r0, #24]
200001d4:	e3a01086 	mov	r1, #134	; 0x86
200001d8:	e580101c 	str	r1, [r0, #28]
200001dc:	e59f1108 	ldr	r1, [pc, #264]	; 200002ec <find_lock_val+0x100>
200001e0:	e5801018 	str	r1, [r0, #24]
200001e4:	e59f1104 	ldr	r1, [pc, #260]	; 200002f0 <find_lock_val+0x104>
200001e8:	e5801018 	str	r1, [r0, #24]

200001ec <find_lock_val>:
200001ec:	e5901040 	ldr	r1, [r0, #64]	; 0x40
200001f0:	e2012007 	and	r2, r1, #7
200001f4:	e3520007 	cmp	r2, #7
200001f8:	1afffffb 	bne	200001ec <find_lock_val>
200001fc:	e2011dff 	and	r1, r1, #16320	; 0x3fc0
20000200:	e1a02901 	lsl	r2, r1, #18
20000204:	e3822601 	orr	r2, r2, #1048576	; 0x100000
20000208:	e3822a01 	orr	r2, r2, #4096	; 0x1000
2000020c:	e3821003 	orr	r1, r2, #3
20000210:	e5801018 	str	r1, [r0, #24]
20000214:	e59f10d8 	ldr	r1, [pc, #216]	; 200002f4 <find_lock_val+0x108>
20000218:	e5801000 	str	r1, [r0]
2000021c:	e59f10d4 	ldr	r1, [pc, #212]	; 200002f8 <find_lock_val+0x10c>
20000220:	e5801004 	str	r1, [r0, #4]
20000224:	e59f10d0 	ldr	r1, [pc, #208]	; 200002fc <find_lock_val+0x110>
20000228:	e5801008 	str	r1, [r0, #8]
2000022c:	e59f10cc 	ldr	r1, [pc, #204]	; 20000300 <find_lock_val+0x114>
20000230:	e580100c 	str	r1, [r0, #12]
20000234:	e3a014ff 	mov	r1, #-16777216	; 0xff000000
20000238:	e5801014 	str	r1, [r0, #20]
2000023c:	e59f10c0 	ldr	r1, [pc, #192]	; 20000304 <find_lock_val+0x118>
20000240:	e5801030 	str	r1, [r0, #48]	; 0x30
20000244:	e59f10bc 	ldr	r1, [pc, #188]	; 20000308 <find_lock_val+0x11c>
20000248:	e5801034 	str	r1, [r0, #52]	; 0x34
2000024c:	e59f10b8 	ldr	r1, [pc, #184]	; 2000030c <find_lock_val+0x120>
20000250:	e5801038 	str	r1, [r0, #56]	; 0x38
20000254:	e59f10b4 	ldr	r1, [pc, #180]	; 20000310 <find_lock_val+0x124>
20000258:	e580103c 	str	r1, [r0, #60]	; 0x3c
2000025c:	e3a01407 	mov	r1, #117440512	; 0x7000000
20000260:	e5801010 	str	r1, [r0, #16]
20000264:	e3a01401 	mov	r1, #16777216	; 0x1000000
20000268:	e5801010 	str	r1, [r0, #16]
2000026c:	e3a01802 	mov	r1, #131072	; 0x20000
20000270:	e5801010 	str	r1, [r0, #16]
20000274:	e3a01803 	mov	r1, #196608	; 0x30000
20000278:	e5801010 	str	r1, [r0, #16]
2000027c:	e3a01b41 	mov	r1, #66560	; 0x10400
20000280:	e5801010 	str	r1, [r0, #16]
20000284:	e59f1088 	ldr	r1, [pc, #136]	; 20000314 <find_lock_val+0x128>
20000288:	e5801010 	str	r1, [r0, #16]
2000028c:	e3a01401 	mov	r1, #16777216	; 0x1000000
20000290:	e5801010 	str	r1, [r0, #16]
20000294:	e3a01405 	mov	r1, #83886080	; 0x5000000
20000298:	e5801010 	str	r1, [r0, #16]
2000029c:	e3a01405 	mov	r1, #83886080	; 0x5000000
200002a0:	e5801010 	str	r1, [r0, #16]
200002a4:	e59f106c 	ldr	r1, [pc, #108]	; 20000318 <find_lock_val+0x12c>
200002a8:	e5801010 	str	r1, [r0, #16]
200002ac:	e59f1068 	ldr	r1, [pc, #104]	; 2000031c <find_lock_val+0x130>
200002b0:	e5801010 	str	r1, [r0, #16]
200002b4:	e3a01b41 	mov	r1, #66560	; 0x10400
200002b8:	e5801010 	str	r1, [r0, #16]
200002bc:	e59f105c 	ldr	r1, [pc, #92]	; 20000320 <find_lock_val+0x134>
200002c0:	e5801000 	str	r1, [r0]
200002c4:	e3e01cff 	mvn	r1, #65280	; 0xff00
200002c8:	e5801028 	str	r1, [r0, #40]	; 0x28
200002cc:	e59f1024 	ldr	r1, [pc, #36]	; 200002f8 <find_lock_val+0x10c>
200002d0:	e5801004 	str	r1, [r0, #4]
200002d4:	e1a0f00e 	mov	pc, lr
200002d8:	f1e00000 	undefined instruction 0xf1e00000
200002dc:	e0200000 	eor	r0, r0, r0
200002e0:	0000aaaa 	andeq	sl, r0, sl, lsr #21
200002e4:	00002aaa 	andeq	r2, r0, sl, lsr #21
200002e8:	00101000 	andseq	r1, r0, r0
200002ec:	00101002 	andseq	r1, r0, r2
200002f0:	00101003 	andseq	r1, r0, r3
200002f4:	0fff2010 	svceq	0x00ff2010
200002f8:	00202400 	eoreq	r2, r0, r0, lsl #8
200002fc:	20f01323 	rscscs	r1, r0, r3, lsr #6
20000300:	30f00312 	rscscc	r0, r0, r2, lsl r3
20000304:	00000618 	andeq	r0, r0, r8, lsl r6
20000308:	28233287 	stmdacs	r3!, {r0, r1, r2, r7, r9, ip, sp}
2000030c:	23240304 	teqcs	r4, #268435456	; 0x10000000
20000310:	09c80232 	stmibeq	r8, {r1, r4, r5, r9}^
20000314:	00000542 	andeq	r0, r0, r2, asr #10
20000318:	00000442 	andeq	r0, r0, r2, asr #8
2000031c:	00010780 	andeq	r0, r1, r0, lsl #15
20000320:	0ff02030 	svceq	0x00f02030
20000324:	00001a41 	andeq	r1, r0, r1, asr #20
20000328:	61656100 	cmnvs	r5, r0, lsl #2
2000032c:	01006962 	tsteq	r0, r2, ror #18
20000330:	00000010 	andeq	r0, r0, r0, lsl r0
20000334:	45543505 	ldrbmi	r3, [r4, #-1285]	; 0x505
20000338:	08040600 	stmdaeq	r4, {r9, sl}
2000033c:	00010901 	andeq	r0, r1, r1, lsl #18

20000340 <led1>:
20000340:	e52db004 	push	{fp}		; (str fp, [sp, #-4]!)
20000344:	e28db000 	add	fp, sp, #0
20000348:	e59f301c 	ldr	r3, [pc, #28]	; 2000036c <led1+0x2c>
2000034c:	e59f201c 	ldr	r2, [pc, #28]	; 20000370 <led1+0x30>
20000350:	e5832000 	str	r2, [r3]
20000354:	e59f3018 	ldr	r3, [pc, #24]	; 20000374 <led1+0x34>
20000358:	e3a02030 	mov	r2, #48	; 0x30
2000035c:	e5832000 	str	r2, [r3]
20000360:	e28bd000 	add	sp, fp, #0
20000364:	e8bd0800 	pop	{fp}
20000368:	e12fff1e 	bx	lr
2000036c:	e0200240 	eor	r0, r0, r0, asr #4
20000370:	11111111 	tstne	r1, r1, lsl r1
20000374:	e0200244 	eor	r0, r0, r4, asr #4

20000378 <led2>:
20000378:	e52db004 	push	{fp}		; (str fp, [sp, #-4]!)
2000037c:	e28db000 	add	fp, sp, #0
20000380:	e59f301c 	ldr	r3, [pc, #28]	; 200003a4 <led2+0x2c>
20000384:	e59f201c 	ldr	r2, [pc, #28]	; 200003a8 <led2+0x30>
20000388:	e5832000 	str	r2, [r3]
2000038c:	e59f3018 	ldr	r3, [pc, #24]	; 200003ac <led2+0x34>
20000390:	e3a02020 	mov	r2, #32
20000394:	e5832000 	str	r2, [r3]
20000398:	e28bd000 	add	sp, fp, #0
2000039c:	e8bd0800 	pop	{fp}
200003a0:	e12fff1e 	bx	lr
200003a4:	e0200240 	eor	r0, r0, r0, asr #4
200003a8:	11111111 	tstne	r1, r1, lsl r1
200003ac:	e0200244 	eor	r0, r0, r4, asr #4

200003b0 <led3>:
200003b0:	e52db004 	push	{fp}		; (str fp, [sp, #-4]!)
200003b4:	e28db000 	add	fp, sp, #0
200003b8:	e59f301c 	ldr	r3, [pc, #28]	; 200003dc <led3+0x2c>
200003bc:	e59f201c 	ldr	r2, [pc, #28]	; 200003e0 <led3+0x30>
200003c0:	e5832000 	str	r2, [r3]
200003c4:	e59f3018 	ldr	r3, [pc, #24]	; 200003e4 <led3+0x34>
200003c8:	e3a02000 	mov	r2, #0
200003cc:	e5832000 	str	r2, [r3]
200003d0:	e28bd000 	add	sp, fp, #0
200003d4:	e8bd0800 	pop	{fp}
200003d8:	e12fff1e 	bx	lr
200003dc:	e0200240 	eor	r0, r0, r0, asr #4
200003e0:	11111111 	tstne	r1, r1, lsl r1
200003e4:	e0200244 	eor	r0, r0, r4, asr #4

200003e8 <led_blink>:
200003e8:	e92d4800 	push	{fp, lr}
200003ec:	e28db004 	add	fp, sp, #4
200003f0:	e59f3028 	ldr	r3, [pc, #40]	; 20000420 <led_blink+0x38>
200003f4:	e59f2028 	ldr	r2, [pc, #40]	; 20000424 <led_blink+0x3c>
200003f8:	e5832000 	str	r2, [r3]
200003fc:	e59f3024 	ldr	r3, [pc, #36]	; 20000428 <led_blink+0x40>
20000400:	e3a02000 	mov	r2, #0
20000404:	e5832000 	str	r2, [r3]
20000408:	eb000007 	bl	2000042c <delay>
2000040c:	e59f3014 	ldr	r3, [pc, #20]	; 20000428 <led_blink+0x40>
20000410:	e3a02038 	mov	r2, #56	; 0x38
20000414:	e5832000 	str	r2, [r3]
20000418:	eb000003 	bl	2000042c <delay>
2000041c:	eafffff6 	b	200003fc <led_blink+0x14>
20000420:	e0200240 	eor	r0, r0, r0, asr #4
20000424:	11111111 	tstne	r1, r1, lsl r1
20000428:	e0200244 	eor	r0, r0, r4, asr #4

2000042c <delay>:
2000042c:	e52db004 	push	{fp}		; (str fp, [sp, #-4]!)
20000430:	e28db000 	add	fp, sp, #0
20000434:	e24dd00c 	sub	sp, sp, #12
20000438:	e59f3030 	ldr	r3, [pc, #48]	; 20000470 <delay+0x44>
2000043c:	e50b3008 	str	r3, [fp, #-8]
20000440:	e51b3008 	ldr	r3, [fp, #-8]
20000444:	e3530000 	cmp	r3, #0
20000448:	03a02000 	moveq	r2, #0
2000044c:	13a02001 	movne	r2, #1
20000450:	e20220ff 	and	r2, r2, #255	; 0xff
20000454:	e2433001 	sub	r3, r3, #1
20000458:	e50b3008 	str	r3, [fp, #-8]
2000045c:	e3520000 	cmp	r2, #0
20000460:	1afffff6 	bne	20000440 <delay+0x14>
20000464:	e28bd000 	add	sp, fp, #0
20000468:	e8bd0800 	pop	{fp}
2000046c:	e12fff1e 	bx	lr
20000470:	000dbba0 	andeq	fp, sp, r0, lsr #23

20000474 <lcd_init>:
20000474:	e52db004 	push	{fp}		; (str fp, [sp, #-4]!)
20000478:	e28db000 	add	fp, sp, #0
2000047c:	e59f317c 	ldr	r3, [pc, #380]	; 20000600 <lcd_init+0x18c>
20000480:	e59f217c 	ldr	r2, [pc, #380]	; 20000604 <lcd_init+0x190>
20000484:	e5832000 	str	r2, [r3]
20000488:	e59f3178 	ldr	r3, [pc, #376]	; 20000608 <lcd_init+0x194>
2000048c:	e59f2170 	ldr	r2, [pc, #368]	; 20000604 <lcd_init+0x190>
20000490:	e5832000 	str	r2, [r3]
20000494:	e59f3170 	ldr	r3, [pc, #368]	; 2000060c <lcd_init+0x198>
20000498:	e59f2164 	ldr	r2, [pc, #356]	; 20000604 <lcd_init+0x190>
2000049c:	e5832000 	str	r2, [r3]
200004a0:	e59f3168 	ldr	r3, [pc, #360]	; 20000610 <lcd_init+0x19c>
200004a4:	e59f2158 	ldr	r2, [pc, #344]	; 20000604 <lcd_init+0x190>
200004a8:	e5832000 	str	r2, [r3]
200004ac:	e59f3160 	ldr	r3, [pc, #352]	; 20000614 <lcd_init+0x1a0>
200004b0:	e59f215c 	ldr	r2, [pc, #348]	; 20000614 <lcd_init+0x1a0>
200004b4:	e5922000 	ldr	r2, [r2]
200004b8:	e3c2200f 	bic	r2, r2, #15
200004bc:	e5832000 	str	r2, [r3]
200004c0:	e59f314c 	ldr	r3, [pc, #332]	; 20000614 <lcd_init+0x1a0>
200004c4:	e59f2148 	ldr	r2, [pc, #328]	; 20000614 <lcd_init+0x1a0>
200004c8:	e5922000 	ldr	r2, [r2]
200004cc:	e3822001 	orr	r2, r2, #1
200004d0:	e5832000 	str	r2, [r3]
200004d4:	e59f313c 	ldr	r3, [pc, #316]	; 20000618 <lcd_init+0x1a4>
200004d8:	e59f2138 	ldr	r2, [pc, #312]	; 20000618 <lcd_init+0x1a4>
200004dc:	e5922000 	ldr	r2, [r2]
200004e0:	e3c22001 	bic	r2, r2, #1
200004e4:	e5832000 	str	r2, [r3]
200004e8:	e59f312c 	ldr	r3, [pc, #300]	; 2000061c <lcd_init+0x1a8>
200004ec:	e3a02002 	mov	r2, #2
200004f0:	e5832000 	str	r2, [r3]
200004f4:	e3a0233e 	mov	r2, #-134217728	; 0xf8000000
200004f8:	e3a0333e 	mov	r3, #-134217728	; 0xf8000000
200004fc:	e5931000 	ldr	r1, [r3]
20000500:	e59f3118 	ldr	r3, [pc, #280]	; 20000620 <lcd_init+0x1ac>
20000504:	e0013003 	and	r3, r1, r3
20000508:	e5823000 	str	r3, [r2]
2000050c:	e3a0333e 	mov	r3, #-134217728	; 0xf8000000
20000510:	e3a0233e 	mov	r2, #-134217728	; 0xf8000000
20000514:	e5922000 	ldr	r2, [r2]
20000518:	e3822003 	orr	r2, r2, #3
2000051c:	e5832000 	str	r2, [r3]
20000520:	e3a0333e 	mov	r3, #-134217728	; 0xf8000000
20000524:	e3a0233e 	mov	r2, #-134217728	; 0xf8000000
20000528:	e5922000 	ldr	r2, [r2]
2000052c:	e3822e11 	orr	r2, r2, #272	; 0x110
20000530:	e5832000 	str	r2, [r3]
20000534:	e59f30e8 	ldr	r3, [pc, #232]	; 20000624 <lcd_init+0x1b0>
20000538:	e59f20e4 	ldr	r2, [pc, #228]	; 20000624 <lcd_init+0x1b0>
2000053c:	e5922000 	ldr	r2, [r2]
20000540:	e3822060 	orr	r2, r2, #96	; 0x60
20000544:	e5832000 	str	r2, [r3]
20000548:	e59f30d8 	ldr	r3, [pc, #216]	; 20000628 <lcd_init+0x1b4>
2000054c:	e59f20d8 	ldr	r2, [pc, #216]	; 2000062c <lcd_init+0x1b8>
20000550:	e5832000 	str	r2, [r3]
20000554:	e59f30d4 	ldr	r3, [pc, #212]	; 20000630 <lcd_init+0x1bc>
20000558:	e59f20d4 	ldr	r2, [pc, #212]	; 20000634 <lcd_init+0x1c0>
2000055c:	e5832000 	str	r2, [r3]
20000560:	e59f30d0 	ldr	r3, [pc, #208]	; 20000638 <lcd_init+0x1c4>
20000564:	e59f20d0 	ldr	r2, [pc, #208]	; 2000063c <lcd_init+0x1c8>
20000568:	e5832000 	str	r2, [r3]
2000056c:	e59f30cc 	ldr	r3, [pc, #204]	; 20000640 <lcd_init+0x1cc>
20000570:	e59f20c8 	ldr	r2, [pc, #200]	; 20000640 <lcd_init+0x1cc>
20000574:	e5922000 	ldr	r2, [r2]
20000578:	e3822001 	orr	r2, r2, #1
2000057c:	e5832000 	str	r2, [r3]
20000580:	e59f30b8 	ldr	r3, [pc, #184]	; 20000640 <lcd_init+0x1cc>
20000584:	e59f20b4 	ldr	r2, [pc, #180]	; 20000640 <lcd_init+0x1cc>
20000588:	e5922000 	ldr	r2, [r2]
2000058c:	e3c2203c 	bic	r2, r2, #60	; 0x3c
20000590:	e5832000 	str	r2, [r3]
20000594:	e59f20a4 	ldr	r2, [pc, #164]	; 20000640 <lcd_init+0x1cc>
20000598:	e59f30a0 	ldr	r3, [pc, #160]	; 20000640 <lcd_init+0x1cc>
2000059c:	e5933000 	ldr	r3, [r3]
200005a0:	e3833902 	orr	r3, r3, #32768	; 0x8000
200005a4:	e383302c 	orr	r3, r3, #44	; 0x2c
200005a8:	e5823000 	str	r3, [r2]
200005ac:	e59f3090 	ldr	r3, [pc, #144]	; 20000644 <lcd_init+0x1d0>
200005b0:	e3a02000 	mov	r2, #0
200005b4:	e5832000 	str	r2, [r3]
200005b8:	e59f3088 	ldr	r3, [pc, #136]	; 20000648 <lcd_init+0x1d4>
200005bc:	e59f2088 	ldr	r2, [pc, #136]	; 2000064c <lcd_init+0x1d8>
200005c0:	e5832000 	str	r2, [r3]
200005c4:	e59f3084 	ldr	r3, [pc, #132]	; 20000650 <lcd_init+0x1dc>
200005c8:	e59f2084 	ldr	r2, [pc, #132]	; 20000654 <lcd_init+0x1e0>
200005cc:	e5832000 	str	r2, [r3]
200005d0:	e59f3080 	ldr	r3, [pc, #128]	; 20000658 <lcd_init+0x1e4>
200005d4:	e3a02423 	mov	r2, #587202560	; 0x23000000
200005d8:	e5832000 	str	r2, [r3]
200005dc:	e59f3078 	ldr	r3, [pc, #120]	; 2000065c <lcd_init+0x1e8>
200005e0:	e59f2078 	ldr	r2, [pc, #120]	; 20000660 <lcd_init+0x1ec>
200005e4:	e5832000 	str	r2, [r3]
200005e8:	e59f3074 	ldr	r3, [pc, #116]	; 20000664 <lcd_init+0x1f0>
200005ec:	e3a02001 	mov	r2, #1
200005f0:	e5832000 	str	r2, [r3]
200005f4:	e28bd000 	add	sp, fp, #0
200005f8:	e8bd0800 	pop	{fp}
200005fc:	e12fff1e 	bx	lr
20000600:	e0200120 	eor	r0, r0, r0, lsr #2
20000604:	22222222 	eorcs	r2, r2, #536870914	; 0x20000002
20000608:	e0200140 	eor	r0, r0, r0, asr #2
2000060c:	e0200160 	eor	r0, r0, r0, ror #2
20000610:	e0200180 	eor	r0, r0, r0, lsl #3
20000614:	e02000a0 	eor	r0, r0, r0, lsr #1
20000618:	e02000a4 	eor	r0, r0, r4, lsr #1
2000061c:	e0107008 	ands	r7, r0, r8
20000620:	f3fbfffb 	undefined instruction 0xf3fbfffb
20000624:	f8000004 	undefined instruction 0xf8000004
20000628:	f8000010 	undefined instruction 0xf8000010
2000062c:	00091d14 	andeq	r1, r9, r4, lsl sp
20000630:	f8000014 	undefined instruction 0xf8000014
20000634:	0009ef28 	andeq	lr, r9, r8, lsr #30
20000638:	f8000018 	undefined instruction 0xf8000018
2000063c:	000efb1f 	andeq	pc, lr, pc, lsl fp
20000640:	f8000020 	undefined instruction 0xf8000020
20000644:	f8000040 	undefined instruction 0xf8000040
20000648:	f8000044 	undefined instruction 0xf8000044
2000064c:	0018f9df 	ldrsbeq	pc, [r8], -pc
20000650:	f8000048 	undefined instruction 0xf8000048
20000654:	0005dc00 	andeq	sp, r5, r0, lsl #24
20000658:	f80000a0 	undefined instruction 0xf80000a0
2000065c:	f80000d0 	undefined instruction 0xf80000d0
20000660:	00177000 	andseq	r7, r7, r0
20000664:	f8000034 	undefined instruction 0xf8000034

20000668 <lcd_draw_pixel>:
20000668:	e52db004 	push	{fp}		; (str fp, [sp, #-4]!)
2000066c:	e28db000 	add	fp, sp, #0
20000670:	e24dd014 	sub	sp, sp, #20
20000674:	e50b0008 	str	r0, [fp, #-8]
20000678:	e50b100c 	str	r1, [fp, #-12]
2000067c:	e50b2010 	str	r2, [fp, #-16]
20000680:	e59f3030 	ldr	r3, [pc, #48]	; 200006b8 <lcd_draw_pixel+0x50>
20000684:	e5932000 	ldr	r2, [r3]
20000688:	e51b300c 	ldr	r3, [fp, #-12]
2000068c:	e3a01e32 	mov	r1, #800	; 0x320
20000690:	e0010193 	mul	r1, r3, r1
20000694:	e51b3008 	ldr	r3, [fp, #-8]
20000698:	e0813003 	add	r3, r1, r3
2000069c:	e1a03103 	lsl	r3, r3, #2
200006a0:	e0823003 	add	r3, r2, r3
200006a4:	e51b2010 	ldr	r2, [fp, #-16]
200006a8:	e5832000 	str	r2, [r3]
200006ac:	e28bd000 	add	sp, fp, #0
200006b0:	e8bd0800 	pop	{fp}
200006b4:	e12fff1e 	bx	lr
200006b8:	200007f8 	strdcs	r0, [r0], -r8

200006bc <lcd_draw_background>:
200006bc:	e92d4800 	push	{fp, lr}
200006c0:	e28db004 	add	fp, sp, #4
200006c4:	e24dd010 	sub	sp, sp, #16
200006c8:	e50b0010 	str	r0, [fp, #-16]
200006cc:	e3a03000 	mov	r3, #0
200006d0:	e50b3008 	str	r3, [fp, #-8]
200006d4:	ea000010 	b	2000071c <lcd_draw_background+0x60>
200006d8:	e3a03000 	mov	r3, #0
200006dc:	e50b300c 	str	r3, [fp, #-12]
200006e0:	ea000006 	b	20000700 <lcd_draw_background+0x44>
200006e4:	e51b000c 	ldr	r0, [fp, #-12]
200006e8:	e51b1008 	ldr	r1, [fp, #-8]
200006ec:	e51b2010 	ldr	r2, [fp, #-16]
200006f0:	ebffffdc 	bl	20000668 <lcd_draw_pixel>
200006f4:	e51b300c 	ldr	r3, [fp, #-12]
200006f8:	e2833001 	add	r3, r3, #1
200006fc:	e50b300c 	str	r3, [fp, #-12]
20000700:	e51b200c 	ldr	r2, [fp, #-12]
20000704:	e59f3028 	ldr	r3, [pc, #40]	; 20000734 <lcd_draw_background+0x78>
20000708:	e1520003 	cmp	r2, r3
2000070c:	9afffff4 	bls	200006e4 <lcd_draw_background+0x28>
20000710:	e51b3008 	ldr	r3, [fp, #-8]
20000714:	e2833001 	add	r3, r3, #1
20000718:	e50b3008 	str	r3, [fp, #-8]
2000071c:	e51b2008 	ldr	r2, [fp, #-8]
20000720:	e59f3010 	ldr	r3, [pc, #16]	; 20000738 <lcd_draw_background+0x7c>
20000724:	e1520003 	cmp	r2, r3
20000728:	9affffea 	bls	200006d8 <lcd_draw_background+0x1c>
2000072c:	e24bd004 	sub	sp, fp, #4
20000730:	e8bd8800 	pop	{fp, pc}
20000734:	0000031f 	andeq	r0, r0, pc, lsl r3
20000738:	000001df 	ldrdeq	r0, [r0], -pc

2000073c <delay>:
2000073c:	e52db004 	push	{fp}		; (str fp, [sp, #-4]!)
20000740:	e28db000 	add	fp, sp, #0
20000744:	e24dd00c 	sub	sp, sp, #12
20000748:	e3a03000 	mov	r3, #0
2000074c:	e50b3008 	str	r3, [fp, #-8]
20000750:	ea00000c 	b	20000788 <delay+0x4c>
20000754:	e3a03000 	mov	r3, #0
20000758:	e50b300c 	str	r3, [fp, #-12]
2000075c:	ea000002 	b	2000076c <delay+0x30>
20000760:	e51b300c 	ldr	r3, [fp, #-12]
20000764:	e2833001 	add	r3, r3, #1
20000768:	e50b300c 	str	r3, [fp, #-12]
2000076c:	e51b200c 	ldr	r2, [fp, #-12]
20000770:	e59f302c 	ldr	r3, [pc, #44]	; 200007a4 <delay+0x68>
20000774:	e1520003 	cmp	r2, r3
20000778:	9afffff8 	bls	20000760 <delay+0x24>
2000077c:	e51b3008 	ldr	r3, [fp, #-8]
20000780:	e2833001 	add	r3, r3, #1
20000784:	e50b3008 	str	r3, [fp, #-8]
20000788:	e51b2008 	ldr	r2, [fp, #-8]
2000078c:	e59f3014 	ldr	r3, [pc, #20]	; 200007a8 <delay+0x6c>
20000790:	e1520003 	cmp	r2, r3
20000794:	9affffee 	bls	20000754 <delay+0x18>
20000798:	e28bd000 	add	sp, fp, #0
2000079c:	e8bd0800 	pop	{fp}
200007a0:	e12fff1e 	bx	lr
200007a4:	000003e7 	andeq	r0, r0, r7, ror #7
200007a8:	00000f9f 	muleq	r0, pc, pc

200007ac <lcd_test>:
200007ac:	e92d4800 	push	{fp, lr}
200007b0:	e28db004 	add	fp, sp, #4
200007b4:	ebffff2e 	bl	20000474 <lcd_init>
200007b8:	e3a008ff 	mov	r0, #16711680	; 0xff0000
200007bc:	ebffffbe 	bl	200006bc <lcd_draw_background>
200007c0:	ebffffdd 	bl	2000073c <delay>
200007c4:	e3a00cff 	mov	r0, #65280	; 0xff00
200007c8:	ebffffbb 	bl	200006bc <lcd_draw_background>
200007cc:	ebffffda 	bl	2000073c <delay>
200007d0:	e3a000ff 	mov	r0, #255	; 0xff
200007d4:	ebffffb8 	bl	200006bc <lcd_draw_background>
200007d8:	ebffffd7 	bl	2000073c <delay>
200007dc:	eafffff5 	b	200007b8 <lcd_test+0xc>

200007e0 <main>:
200007e0:	e92d4800 	push	{fp, lr}
200007e4:	e28db004 	add	fp, sp, #4
200007e8:	ebffffef 	bl	200007ac <lcd_test>
200007ec:	e3a03000 	mov	r3, #0
200007f0:	e1a00003 	mov	r0, r3
200007f4:	e8bd8800 	pop	{fp, pc}

Disassembly of section .data:

200007f8 <pfb>:
200007f8:	23000000 	movwcs	r0, #0

Disassembly of section .comment:

00000000 <.comment>:
   0:	43434700 	movtmi	r4, #14080	; 0x3700
   4:	5328203a 	teqpl	r8, #58	; 0x3a
   8:	6372756f 	cmnvs	r2, #465567744	; 0x1bc00000
   c:	20797265 	rsbscs	r7, r9, r5, ror #4
  10:	202b2b47 	eorcs	r2, fp, r7, asr #22
  14:	6574694c 	ldrbvs	r6, [r4, #-2380]!	; 0x94c
  18:	30303220 	eorscc	r3, r0, r0, lsr #4
  1c:	2d337139 	ldfcss	f7, [r3, #-228]!	; 0xffffff1c
  20:	20293736 	eorcs	r3, r9, r6, lsr r7
  24:	2e342e34 	mrccs	14, 1, r2, cr4, cr4, {1}
  28:	47000031 	smladxmi	r0, r1, r0, r0
  2c:	203a4343 	eorscs	r4, sl, r3, asr #6
  30:	756f5328 	strbvc	r5, [pc, #-808]!	; fffffd10 <bss_end+0xdffff514>
  34:	72656372 	rsbvc	r6, r5, #-939524095	; 0xc8000001
  38:	2b472079 	blcs	11c8224 <_start-0x1ee37ddc>
  3c:	694c202b 	stmdbvs	ip, {r0, r1, r3, r5, sp}^
  40:	32206574 	eorcc	r6, r0, #486539264	; 0x1d000000
  44:	71393030 	teqvc	r9, r0, lsr r0
  48:	37362d33 	undefined instruction 0x37362d33
  4c:	2e342029 	cdpcs	0, 3, cr2, cr4, cr9, {1}
  50:	00312e34 	eorseq	r2, r1, r4, lsr lr
  54:	43434700 	movtmi	r4, #14080	; 0x3700
  58:	5328203a 	teqpl	r8, #58	; 0x3a
  5c:	6372756f 	cmnvs	r2, #465567744	; 0x1bc00000
  60:	20797265 	rsbscs	r7, r9, r5, ror #4
  64:	202b2b47 	eorcs	r2, fp, r7, asr #22
  68:	6574694c 	ldrbvs	r6, [r4, #-2380]!	; 0x94c
  6c:	30303220 	eorscc	r3, r0, r0, lsr #4
  70:	2d337139 	ldfcss	f7, [r3, #-228]!	; 0xffffff1c
  74:	20293736 	eorcs	r3, r9, r6, lsr r7
  78:	2e342e34 	mrccs	14, 1, r2, cr4, cr4, {1}
  7c:	Address 0x0000007c is out of bounds.


Disassembly of section .ARM.attributes:

00000000 <.ARM.attributes>:
   0:	00002641 	andeq	r2, r0, r1, asr #12
   4:	61656100 	cmnvs	r5, r0, lsl #2
   8:	01006962 	tsteq	r0, r2, ror #18
   c:	0000001c 	andeq	r0, r0, ip, lsl r0
  10:	45543505 	ldrbmi	r3, [r4, #-1285]	; 0x505
  14:	08040600 	stmdaeq	r4, {r9, sl}
  18:	12010901 	andne	r0, r1, #16384	; 0x4000
  1c:	15011404 	strne	r1, [r1, #-1028]	; 0x404
  20:	18031701 	stmdane	r3, {r0, r8, r9, sl, ip}
  24:	Address 0x00000024 is out of bounds.

