
led.elf:     file format elf32-littlearm


Disassembly of section .text:

00000000 <_start>:
   0:	e59f001c 	ldr	r0, [pc, #28]	; 24 <_start+0x24>
   4:	e3a01000 	mov	r1, #0
   8:	e5801000 	str	r1, [r0]
   c:	e59fd014 	ldr	sp, [pc, #20]	; 28 <_start+0x28>
  10:	ee110f10 	mrc	15, 0, r0, cr1, cr0, {0}
  14:	e3800a01 	orr	r0, r0, #4096	; 0x1000
  18:	ee010f10 	mcr	15, 0, r0, cr1, cr0, {0}
  1c:	eb000002 	bl	2c <led_blink>
  20:	eafffffe 	b	20 <_start+0x20>
  24:	e2700000 	rsbs	r0, r0, #0
  28:	d0037d80 	andle	r7, r3, r0, lsl #27

0000002c <led_blink>:
  2c:	e92d4800 	push	{fp, lr}
  30:	e28db004 	add	fp, sp, #4
  34:	e59f3028 	ldr	r3, [pc, #40]	; 64 <led_blink+0x38>
  38:	e59f2028 	ldr	r2, [pc, #40]	; 68 <led_blink+0x3c>
  3c:	e5832000 	str	r2, [r3]
  40:	e59f3024 	ldr	r3, [pc, #36]	; 6c <led_blink+0x40>
  44:	e3a02000 	mov	r2, #0
  48:	e5832000 	str	r2, [r3]
  4c:	eb000007 	bl	70 <delay>
  50:	e59f3014 	ldr	r3, [pc, #20]	; 6c <led_blink+0x40>
  54:	e3a02038 	mov	r2, #56	; 0x38
  58:	e5832000 	str	r2, [r3]
  5c:	eb000003 	bl	70 <delay>
  60:	eafffff6 	b	40 <led_blink+0x14>
  64:	e0200240 	eor	r0, r0, r0, asr #4
  68:	11111111 	tstne	r1, r1, lsl r1
  6c:	e0200244 	eor	r0, r0, r4, asr #4

00000070 <delay>:
  70:	e52db004 	push	{fp}		; (str fp, [sp, #-4]!)
  74:	e28db000 	add	fp, sp, #0
  78:	e24dd00c 	sub	sp, sp, #12
  7c:	e59f3030 	ldr	r3, [pc, #48]	; b4 <delay+0x44>
  80:	e50b3008 	str	r3, [fp, #-8]
  84:	e51b3008 	ldr	r3, [fp, #-8]
  88:	e3530000 	cmp	r3, #0
  8c:	03a02000 	moveq	r2, #0
  90:	13a02001 	movne	r2, #1
  94:	e20220ff 	and	r2, r2, #255	; 0xff
  98:	e2433001 	sub	r3, r3, #1
  9c:	e50b3008 	str	r3, [fp, #-8]
  a0:	e3520000 	cmp	r2, #0
  a4:	1afffff6 	bne	84 <delay+0x14>
  a8:	e28bd000 	add	sp, fp, #0
  ac:	e8bd0800 	pop	{fp}
  b0:	e12fff1e 	bx	lr
  b4:	000dbba0 	andeq	fp, sp, r0, lsr #23
